---
triple:          'x86_64-apple-darwin'
binary-path:     '/Users/runner/work/ios-mediasoup/ios-mediasoup/build/Mediasoup/Build/Products/Release-iphonesimulator/Mediasoup.framework/Mediasoup'
relocations:
  - { offset: 0x33F90, size: 0x8, addend: 0x0, symName: _MediasoupVersionString, symObjAddr: 0x0, symBinAddr: 0xC2C00, symSize: 0x0 }
  - { offset: 0x33FC4, size: 0x8, addend: 0x0, symName: _MediasoupVersionNumber, symObjAddr: 0x30, symBinAddr: 0xC2C30, symSize: 0x0 }
  - { offset: 0x350A0, size: 0x8, addend: 0x0, symName: __ZN8nlohmann16json_abi_v3_11_26detail9dtoa_impl36get_cached_power_for_binary_exponentEi, symObjAddr: 0xC0E0, symBinAddr: 0xD8A0, symSize: 0x220 }
  - { offset: 0x350CC, size: 0x8, addend: 0x0, symName: __ZZN8nlohmann16json_abi_v3_11_26detail9dtoa_impl36get_cached_power_for_binary_exponentEiE13kCachedPowers, symObjAddr: 0xEB88, symBinAddr: 0xC2D28, symSize: 0x0 }
  - { offset: 0x351A8, size: 0x8, addend: 0x0, symName: __ZN8nlohmann16json_abi_v3_11_26detail9dtoa_impl6grisu2IdEEvPcRiS5_T_, symObjAddr: 0xB670, symBinAddr: 0xCE30, symSize: 0x130 }
  - { offset: 0x3521E, size: 0x8, addend: 0x0, symName: __ZN8nlohmann16json_abi_v3_11_26detail9dtoa_impl13format_bufferEPciiii, symObjAddr: 0xB7A0, symBinAddr: 0xCF60, symSize: 0x2B0 }
  - { offset: 0x352AE, size: 0x8, addend: 0x0, symName: __ZN8nlohmann16json_abi_v3_11_26detail9dtoa_impl18compute_boundariesIdEENS2_10boundariesET_, symObjAddr: 0xBA50, symBinAddr: 0xD210, symSize: 0x280 }
  - { offset: 0x353CD, size: 0x8, addend: 0x0, symName: __ZN8nlohmann16json_abi_v3_11_26detail9dtoa_impl6grisu2EPcRiS4_NS2_5diyfpES5_S5_, symObjAddr: 0xBCD0, symBinAddr: 0xD490, symSize: 0x200 }
  - { offset: 0x354BF, size: 0x8, addend: 0x0, symName: __ZN8nlohmann16json_abi_v3_11_26detail9dtoa_impl16reinterpret_bitsIydEET_T0_, symObjAddr: 0xBED0, symBinAddr: 0xD690, symSize: 0x20 }
  - { offset: 0x355CA, size: 0x8, addend: 0x0, symName: __ZN8nlohmann16json_abi_v3_11_26detail9dtoa_impl16grisu2_digit_genEPcRiS4_NS2_5diyfpES5_S5_, symObjAddr: 0xC430, symBinAddr: 0xDBF0, symSize: 0x490 }
  - { offset: 0x35782, size: 0x8, addend: 0x0, symName: __ZN8nlohmann16json_abi_v3_11_26detail9dtoa_impl18find_largest_pow10EjRj, symObjAddr: 0xCA00, symBinAddr: 0xE1C0, symSize: 0x160 }
  - { offset: 0x357C2, size: 0x8, addend: 0x0, symName: __ZN8nlohmann16json_abi_v3_11_26detail9dtoa_impl12grisu2_roundEPciyyyy, symObjAddr: 0xCB60, symBinAddr: 0xE320, symSize: 0x200 }
  - { offset: 0x3583E, size: 0x8, addend: 0x0, symName: __ZN8nlohmann16json_abi_v3_11_26detail9dtoa_impl15append_exponentEPci, symObjAddr: 0xCD80, symBinAddr: 0xE540, symSize: 0x1F0 }
  - { offset: 0x35AC9, size: 0x8, addend: 0x0, symName: __ZN8nlohmann16json_abi_v3_11_26detail6concatINSt3__112basic_stringIcNS3_11char_traitsIcEENS3_9allocatorIcEEEEJRA29_KcS9_RA5_SA_S9_EEET_DpOT0_, symObjAddr: 0x9850, symBinAddr: 0xB030, symSize: 0xD0 }
  - { offset: 0x35F7D, size: 0x8, addend: 0x0, symName: __ZN8nlohmann16json_abi_v3_11_26detail6concatINSt3__112basic_stringIcNS3_11char_traitsIcEENS3_9allocatorIcEEEEJRA39_KcS9_EEET_DpOT0_, symObjAddr: 0x9A10, symBinAddr: 0xB1F0, symSize: 0xB0 }
  - { offset: 0x35FEA, size: 0x8, addend: 0x0, symName: __ZN8nlohmann16json_abi_v3_11_26detail6concatINSt3__112basic_stringIcNS3_11char_traitsIcEENS3_9allocatorIcEEEEJS9_S9_RKS9_EEET_DpOT0_, symObjAddr: 0x9B90, symBinAddr: 0xB350, symSize: 0xC0 }
  - { offset: 0x3606D, size: 0x8, addend: 0x0, symName: __ZN8nlohmann16json_abi_v3_11_26detail13concat_lengthINSt3__112basic_stringIcNS3_11char_traitsIcEENS3_9allocatorIcEEEEJS9_RKS9_EEEmRKT_DpOT0_, symObjAddr: 0x9D80, symBinAddr: 0xB540, symSize: 0x40 }
  - { offset: 0x360D9, size: 0x8, addend: 0x0, symName: __ZN8nlohmann16json_abi_v3_11_26detail11concat_intoINSt3__112basic_stringIcNS3_11char_traitsIcEENS3_9allocatorIcEEEES9_JS9_RKS9_ELi0EEEvRT_OT0_DpOT1_, symObjAddr: 0x9DC0, symBinAddr: 0xB580, symSize: 0x40 }
  - { offset: 0x36161, size: 0x8, addend: 0x0, symName: __ZN8nlohmann16json_abi_v3_11_26detail13concat_lengthINSt3__112basic_stringIcNS3_11char_traitsIcEENS3_9allocatorIcEEEEJRKS9_EEEmRKT_DpOT0_, symObjAddr: 0x9E00, symBinAddr: 0xB5C0, symSize: 0x40 }
  - { offset: 0x361B7, size: 0x8, addend: 0x0, symName: __ZN8nlohmann16json_abi_v3_11_26detail13concat_lengthINSt3__112basic_stringIcNS3_11char_traitsIcEENS3_9allocatorIcEEEEJEEEmRKT_DpOT0_, symObjAddr: 0x9E40, symBinAddr: 0xB600, symSize: 0x30 }
  - { offset: 0x361F6, size: 0x8, addend: 0x0, symName: __ZN8nlohmann16json_abi_v3_11_26detail13concat_lengthEv, symObjAddr: 0x9E70, symBinAddr: 0xB630, symSize: 0x10 }
  - { offset: 0x36215, size: 0x8, addend: 0x0, symName: __ZN8nlohmann16json_abi_v3_11_26detail11concat_intoINSt3__112basic_stringIcNS3_11char_traitsIcEENS3_9allocatorIcEEEES9_JRKS9_ELi0EEEvRT_OT0_DpOT1_, symObjAddr: 0x9ED0, symBinAddr: 0xB690, symSize: 0x40 }
  - { offset: 0x36287, size: 0x8, addend: 0x0, symName: __ZN8nlohmann16json_abi_v3_11_26detail11concat_intoINSt3__112basic_stringIcNS3_11char_traitsIcEENS3_9allocatorIcEEEERKS9_JELi0EEEvRT_OT0_DpOT1_, symObjAddr: 0x9F10, symBinAddr: 0xB6D0, symSize: 0x30 }
  - { offset: 0x362E2, size: 0x8, addend: 0x0, symName: __ZN8nlohmann16json_abi_v3_11_26detail11concat_intoINSt3__112basic_stringIcNS3_11char_traitsIcEENS3_9allocatorIcEEEEEEvRT_, symObjAddr: 0x9F40, symBinAddr: 0xB700, symSize: 0x10 }
  - { offset: 0x36313, size: 0x8, addend: 0x0, symName: __ZN8nlohmann16json_abi_v3_11_26detail6concatINSt3__112basic_stringIcNS3_11char_traitsIcEENS3_9allocatorIcEEEEJRA17_KcRKS9_cS9_RA3_SA_EEET_DpOT0_, symObjAddr: 0x9F50, symBinAddr: 0xB710, symSize: 0xE0 }
  - { offset: 0x363C2, size: 0x8, addend: 0x0, symName: __ZN8nlohmann16json_abi_v3_11_26detail13concat_lengthIJRKNSt3__112basic_stringIcNS3_11char_traitsIcEENS3_9allocatorIcEEEEcS9_RA3_KcEEEmPSC_DpOT_, symObjAddr: 0xA030, symBinAddr: 0xB7F0, symSize: 0x50 }
  - { offset: 0x36451, size: 0x8, addend: 0x0, symName: __ZN8nlohmann16json_abi_v3_11_26detail11concat_intoINSt3__112basic_stringIcNS3_11char_traitsIcEENS3_9allocatorIcEEEERA17_KcJRKS9_cS9_RA3_SA_ELi0EEEvRT_OT0_DpOT1_, symObjAddr: 0xA080, symBinAddr: 0xB840, symSize: 0x50 }
  - { offset: 0x36505, size: 0x8, addend: 0x0, symName: __ZN8nlohmann16json_abi_v3_11_26detail13concat_lengthINSt3__112basic_stringIcNS3_11char_traitsIcEENS3_9allocatorIcEEEEJcS9_RA3_KcEEEmRKT_DpOT0_, symObjAddr: 0xA0D0, symBinAddr: 0xB890, symSize: 0x50 }
  - { offset: 0x36587, size: 0x8, addend: 0x0, symName: __ZN8nlohmann16json_abi_v3_11_26detail13concat_lengthIJNSt3__112basic_stringIcNS3_11char_traitsIcEENS3_9allocatorIcEEEERA3_KcEEEmcDpOT_, symObjAddr: 0xA120, symBinAddr: 0xB8E0, symSize: 0x30 }
  - { offset: 0x365E6, size: 0x8, addend: 0x0, symName: __ZN8nlohmann16json_abi_v3_11_26detail13concat_lengthINSt3__112basic_stringIcNS3_11char_traitsIcEENS3_9allocatorIcEEEEJRA3_KcEEEmRKT_DpOT0_, symObjAddr: 0xA150, symBinAddr: 0xB910, symSize: 0x40 }
  - { offset: 0x3663C, size: 0x8, addend: 0x0, symName: __ZN8nlohmann16json_abi_v3_11_26detail13concat_lengthIJEEEmPKcDpOT_, symObjAddr: 0xA190, symBinAddr: 0xB950, symSize: 0x30 }
  - { offset: 0x36672, size: 0x8, addend: 0x0, symName: __ZN8nlohmann16json_abi_v3_11_26detail11concat_intoINSt3__112basic_stringIcNS3_11char_traitsIcEENS3_9allocatorIcEEEERKS9_JcS9_RA3_KcELi0EEEvRT_OT0_DpOT1_, symObjAddr: 0xA1C0, symBinAddr: 0xB980, symSize: 0x50 }
  - { offset: 0x36710, size: 0x8, addend: 0x0, symName: __ZN8nlohmann16json_abi_v3_11_26detail11concat_intoINSt3__112basic_stringIcNS3_11char_traitsIcEENS3_9allocatorIcEEEEcJS9_RA3_KcELi0EEEvRT_OT0_DpOT1_, symObjAddr: 0xA210, symBinAddr: 0xB9D0, symSize: 0x50 }
  - { offset: 0x36798, size: 0x8, addend: 0x0, symName: __ZN8nlohmann16json_abi_v3_11_26detail11concat_intoINSt3__112basic_stringIcNS3_11char_traitsIcEENS3_9allocatorIcEEEES9_JRA3_KcELi0EEEvRT_OT0_DpOT1_, symObjAddr: 0xA290, symBinAddr: 0xBA50, symSize: 0x40 }
  - { offset: 0x3680A, size: 0x8, addend: 0x0, symName: __ZN8nlohmann16json_abi_v3_11_26detail11concat_intoINSt3__112basic_stringIcNS3_11char_traitsIcEENS3_9allocatorIcEEEERA3_KcJELi0EEEvRT_OT0_DpOT1_, symObjAddr: 0xA2D0, symBinAddr: 0xBA90, symSize: 0x30 }
  - { offset: 0x36865, size: 0x8, addend: 0x0, symName: __ZN8nlohmann16json_abi_v3_11_26detail13concat_lengthIJNSt3__112basic_stringIcNS3_11char_traitsIcEENS3_9allocatorIcEEEERA5_KcS9_EEEmPSA_DpOT_, symObjAddr: 0xA570, symBinAddr: 0xBD30, symSize: 0x50 }
  - { offset: 0x368DE, size: 0x8, addend: 0x0, symName: __ZN8nlohmann16json_abi_v3_11_26detail11concat_intoINSt3__112basic_stringIcNS3_11char_traitsIcEENS3_9allocatorIcEEEERA29_KcJS9_RA5_SA_S9_ELi0EEEvRT_OT0_DpOT1_, symObjAddr: 0xA5C0, symBinAddr: 0xBD80, symSize: 0x50 }
  - { offset: 0x3697C, size: 0x8, addend: 0x0, symName: __ZN8nlohmann16json_abi_v3_11_26detail13concat_lengthINSt3__112basic_stringIcNS3_11char_traitsIcEENS3_9allocatorIcEEEEJRA5_KcS9_EEEmRKT_DpOT0_, symObjAddr: 0xA610, symBinAddr: 0xBDD0, symSize: 0x40 }
  - { offset: 0x369E8, size: 0x8, addend: 0x0, symName: __ZN8nlohmann16json_abi_v3_11_26detail13concat_lengthIJNSt3__112basic_stringIcNS3_11char_traitsIcEENS3_9allocatorIcEEEEEEEmPKcDpOT_, symObjAddr: 0xA650, symBinAddr: 0xBE10, symSize: 0x40 }
  - { offset: 0x36A35, size: 0x8, addend: 0x0, symName: __ZN8nlohmann16json_abi_v3_11_26detail11concat_intoINSt3__112basic_stringIcNS3_11char_traitsIcEENS3_9allocatorIcEEEES9_JRA5_KcS9_ELi0EEEvRT_OT0_DpOT1_, symObjAddr: 0xA690, symBinAddr: 0xBE50, symSize: 0x40 }
  - { offset: 0x36ABD, size: 0x8, addend: 0x0, symName: __ZN8nlohmann16json_abi_v3_11_26detail11concat_intoINSt3__112basic_stringIcNS3_11char_traitsIcEENS3_9allocatorIcEEEERA5_KcJS9_ELi0EEEvRT_OT0_DpOT1_, symObjAddr: 0xA6D0, symBinAddr: 0xBE90, symSize: 0x40 }
  - { offset: 0x36B2F, size: 0x8, addend: 0x0, symName: __ZN8nlohmann16json_abi_v3_11_26detail11concat_intoINSt3__112basic_stringIcNS3_11char_traitsIcEENS3_9allocatorIcEEEES9_JELi0EEEvRT_OT0_DpOT1_, symObjAddr: 0xA710, symBinAddr: 0xBED0, symSize: 0x30 }
  - { offset: 0x36B8A, size: 0x8, addend: 0x0, symName: __ZN8nlohmann16json_abi_v3_11_26detail11concat_intoINSt3__112basic_stringIcNS3_11char_traitsIcEENS3_9allocatorIcEEEERA39_KcJS9_ELi0EEEvRT_OT0_DpOT1_, symObjAddr: 0xA8A0, symBinAddr: 0xC060, symSize: 0x40 }
  - { offset: 0x36BFC, size: 0x8, addend: 0x0, symName: __ZN8nlohmann16json_abi_v3_11_26detail8to_charsIdEEPcS3_PKcT_, symObjAddr: 0xB3A0, symBinAddr: 0xCB60, symSize: 0x2A0 }
  - { offset: 0x477C3, size: 0x8, addend: 0x0, symName: __ZNSt3__17advanceB8de180100INS_20__map_const_iteratorINS_21__tree_const_iteratorINS_12__value_typeINS_12basic_stringIcNS_11char_traitsIcEENS_9allocatorIcEEEEN8nlohmann16json_abi_v3_11_210basic_jsonINS_3mapENS_6vectorES9_bxydS7_NSB_14adl_serializerENSE_IhNS7_IhEEEEEEEEPNS_11__tree_nodeISJ_PvEElEEEEllvEEvRT_T0_, symObjAddr: 0xAAC0, symBinAddr: 0xC280, symSize: 0x70 }
  - { offset: 0x4CFD2, size: 0x8, addend: 0x0, symName: __ZNSt3__112__to_addressB8de180100IKcEEPT_S3_, symObjAddr: 0x11B0, symBinAddr: 0x2990, symSize: 0x10 }
  - { offset: 0x4D03E, size: 0x8, addend: 0x0, symName: __ZNSt3__14moveB8de180100INS_11__wrap_iterIPN8nlohmann16json_abi_v3_11_210basic_jsonINS_3mapENS_6vectorENS_12basic_stringIcNS_11char_traitsIcEENS_9allocatorIcEEEEbxydSA_NS3_14adl_serializerENS6_IhNSA_IhEEEEEEEENS_20back_insert_iteratorINS6_ISG_NSA_ISG_EEEEEEEET0_T_SO_SN_, symObjAddr: 0x1B40, symBinAddr: 0x3320, symSize: 0x60 }
  - { offset: 0x4D09C, size: 0x8, addend: 0x0, symName: __ZNSt3__113back_inserterB8de180100INS_6vectorIN8nlohmann16json_abi_v3_11_210basic_jsonINS_3mapES1_NS_12basic_stringIcNS_11char_traitsIcEENS_9allocatorIcEEEEbxydS9_NS3_14adl_serializerENS1_IhNS9_IhEEEEEENS9_ISF_EEEEEENS_20back_insert_iteratorIT_EERSJ_, symObjAddr: 0x1C00, symBinAddr: 0x33E0, symSize: 0x30 }
  - { offset: 0x4D0D3, size: 0x8, addend: 0x0, symName: __ZNSt3__1neB8de180100ERKNS_14__map_iteratorINS_15__tree_iteratorINS_12__value_typeINS_12basic_stringIcNS_11char_traitsIcEENS_9allocatorIcEEEEN8nlohmann16json_abi_v3_11_210basic_jsonINS_3mapENS_6vectorES8_bxydS6_NSA_14adl_serializerENSD_IhNS6_IhEEEEEEEEPNS_11__tree_nodeISI_PvEElEEEESQ_, symObjAddr: 0x1CB0, symBinAddr: 0x3490, symSize: 0x30 }
  - { offset: 0x4D6CE, size: 0x8, addend: 0x0, symName: __ZNSt3__13minB8de180100ImEERKT_S3_S3_, symObjAddr: 0x2540, symBinAddr: 0x3D20, symSize: 0x30 }
  - { offset: 0x4D91F, size: 0x8, addend: 0x0, symName: __ZNSt3__13minB8de180100ImNS_6__lessIvvEEEERKT_S5_S5_T0_, symObjAddr: 0x25C0, symBinAddr: 0x3DA0, symSize: 0x50 }
  - { offset: 0x4D9C6, size: 0x8, addend: 0x0, symName: __ZNSt3__120__throw_length_errorB8de180100EPKc, symObjAddr: 0x26A0, symBinAddr: 0x3E80, symSize: 0x70 }
  - { offset: 0x4D9F0, size: 0x8, addend: 0x0, symName: __ZNSt3__119__allocate_at_leastB8de180100INS_9allocatorIN8nlohmann16json_abi_v3_11_210basic_jsonINS_3mapENS_6vectorENS_12basic_stringIcNS_11char_traitsIcEENS1_IcEEEEbxydS1_NS3_14adl_serializerENS6_IhNS1_IhEEEEEEEEEENS_19__allocation_resultINS_16allocator_traitsIT_E7pointerEEERSJ_m, symObjAddr: 0x28B0, symBinAddr: 0x4090, symSize: 0x40 }
  - { offset: 0x4DA36, size: 0x8, addend: 0x0, symName: __ZNSt3__117__libcpp_allocateB8de180100Emm, symObjAddr: 0x2A20, symBinAddr: 0x4200, symSize: 0x60 }
  - { offset: 0x4DA95, size: 0x8, addend: 0x0, symName: __ZNSt3__124__is_overaligned_for_newB8de180100Em, symObjAddr: 0x2A80, symBinAddr: 0x4260, symSize: 0x20 }
  - { offset: 0x4DAC5, size: 0x8, addend: 0x0, symName: __ZNSt3__121__libcpp_operator_newB8de180100IJmSt11align_val_tEEEPvDpT_, symObjAddr: 0x2AA0, symBinAddr: 0x4280, symSize: 0x30 }
  - { offset: 0x4DB18, size: 0x8, addend: 0x0, symName: __ZNSt3__121__libcpp_operator_newB8de180100IJmEEEPvDpT_, symObjAddr: 0x2AD0, symBinAddr: 0x42B0, symSize: 0x20 }
  - { offset: 0x4DB55, size: 0x8, addend: 0x0, symName: __ZNSt3__142__uninitialized_allocator_move_if_noexceptB8de180100INS_9allocatorIN8nlohmann16json_abi_v3_11_210basic_jsonINS_3mapENS_6vectorENS_12basic_stringIcNS_11char_traitsIcEENS1_IcEEEEbxydS1_NS3_14adl_serializerENS6_IhNS1_IhEEEEEEEENS_16reverse_iteratorIPSF_EESJ_SJ_EET2_RT_T0_T1_SK_, symObjAddr: 0x2B70, symBinAddr: 0x4350, symSize: 0x180 }
  - { offset: 0x4DBFB, size: 0x8, addend: 0x0, symName: __ZNSt3__14swapB8de180100IPN8nlohmann16json_abi_v3_11_210basic_jsonINS_3mapENS_6vectorENS_12basic_stringIcNS_11char_traitsIcEENS_9allocatorIcEEEEbxydS9_NS2_14adl_serializerENS5_IhNS9_IhEEEEEEEENS_9enable_ifIXaasr21is_move_constructibleIT_EE5valuesr18is_move_assignableISI_EE5valueEvE4typeERSI_SL_, symObjAddr: 0x2D40, symBinAddr: 0x4520, symSize: 0x40 }
  - { offset: 0x4DC50, size: 0x8, addend: 0x0, symName: __ZNSt3__122__make_exception_guardB8de180100INS_29_AllocatorDestroyRangeReverseINS_9allocatorIN8nlohmann16json_abi_v3_11_210basic_jsonINS_3mapENS_6vectorENS_12basic_stringIcNS_11char_traitsIcEENS2_IcEEEEbxydS2_NS4_14adl_serializerENS7_IhNS2_IhEEEEEEEENS_16reverse_iteratorIPSG_EEEEEENS_28__exception_guard_exceptionsIT_EESN_, symObjAddr: 0x2DB0, symBinAddr: 0x4590, symSize: 0x60 }
  - { offset: 0x4DC87, size: 0x8, addend: 0x0, symName: __ZNSt3__1neB8de180100IPN8nlohmann16json_abi_v3_11_210basic_jsonINS_3mapENS_6vectorENS_12basic_stringIcNS_11char_traitsIcEENS_9allocatorIcEEEEbxydS9_NS2_14adl_serializerENS5_IhNS9_IhEEEEEESG_EEbRKNS_16reverse_iteratorIT_EERKNSH_IT0_EE, symObjAddr: 0x2E50, symBinAddr: 0x4630, symSize: 0x40 }
  - { offset: 0x4DCD6, size: 0x8, addend: 0x0, symName: __ZNSt3__112__to_addressB8de180100INS_16reverse_iteratorIPN8nlohmann16json_abi_v3_11_210basic_jsonINS_3mapENS_6vectorENS_12basic_stringIcNS_11char_traitsIcEENS_9allocatorIcEEEEbxydSA_NS3_14adl_serializerENS6_IhNSA_IhEEEEEEEEvEEu7__decayIDTclsr19__to_address_helperIT_EE6__callclsr3stdE7declvalIRKSJ_EEEEESL_, symObjAddr: 0x2EC0, symBinAddr: 0x46A0, symSize: 0x20 }
  - { offset: 0x4DD3B, size: 0x8, addend: 0x0, symName: __ZNSt3__112__to_addressB8de180100IN8nlohmann16json_abi_v3_11_210basic_jsonINS_3mapENS_6vectorENS_12basic_stringIcNS_11char_traitsIcEENS_9allocatorIcEEEEbxydS9_NS2_14adl_serializerENS5_IhNS9_IhEEEEEEEEPT_SH_, symObjAddr: 0x3090, symBinAddr: 0x4870, symSize: 0x10 }
  - { offset: 0x4DD72, size: 0x8, addend: 0x0, symName: __ZNSt3__119__allocator_destroyB8de180100INS_9allocatorIN8nlohmann16json_abi_v3_11_210basic_jsonINS_3mapENS_6vectorENS_12basic_stringIcNS_11char_traitsIcEENS1_IcEEEEbxydS1_NS3_14adl_serializerENS6_IhNS1_IhEEEEEEEENS_16reverse_iteratorINSH_IPSF_EEEESK_EEvRT_T0_T1_, symObjAddr: 0x31F0, symBinAddr: 0x49D0, symSize: 0x70 }
  - { offset: 0x4DDD9, size: 0x8, addend: 0x0, symName: __ZNSt3__1neB8de180100INS_16reverse_iteratorIPN8nlohmann16json_abi_v3_11_210basic_jsonINS_3mapENS_6vectorENS_12basic_stringIcNS_11char_traitsIcEENS_9allocatorIcEEEEbxydSA_NS3_14adl_serializerENS6_IhNSA_IhEEEEEEEESI_EEbRKNS1_IT_EERKNS1_IT0_EE, symObjAddr: 0x3290, symBinAddr: 0x4A70, symSize: 0x50 }
  - { offset: 0x4DE28, size: 0x8, addend: 0x0, symName: __ZNSt3__112__to_addressB8de180100INS_16reverse_iteratorINS1_IPN8nlohmann16json_abi_v3_11_210basic_jsonINS_3mapENS_6vectorENS_12basic_stringIcNS_11char_traitsIcEENS_9allocatorIcEEEEbxydSA_NS3_14adl_serializerENS6_IhNSA_IhEEEEEEEEEEvEEu7__decayIDTclsr19__to_address_helperIT_EE6__callclsr3stdE7declvalIRKSK_EEEEESM_, symObjAddr: 0x3310, symBinAddr: 0x4AF0, symSize: 0x20 }
  - { offset: 0x4DE8D, size: 0x8, addend: 0x0, symName: __ZNSt3__119__libcpp_deallocateB8de180100EPvmm, symObjAddr: 0x36D0, symBinAddr: 0x4EB0, symSize: 0x60 }
  - { offset: 0x4DEF8, size: 0x8, addend: 0x0, symName: __ZNSt3__127__do_deallocate_handle_sizeB8de180100IJSt11align_val_tEEEvPvmDpT_, symObjAddr: 0x3730, symBinAddr: 0x4F10, symSize: 0x30 }
  - { offset: 0x4DF51, size: 0x8, addend: 0x0, symName: __ZNSt3__127__do_deallocate_handle_sizeB8de180100IJEEEvPvmDpT_, symObjAddr: 0x3760, symBinAddr: 0x4F40, symSize: 0x20 }
  - { offset: 0x4DF93, size: 0x8, addend: 0x0, symName: __ZNSt3__124__libcpp_operator_deleteB8de180100IJPvSt11align_val_tEEEvDpT_, symObjAddr: 0x3780, symBinAddr: 0x4F60, symSize: 0x30 }
  - { offset: 0x4DFE2, size: 0x8, addend: 0x0, symName: __ZNSt3__124__libcpp_operator_deleteB8de180100IJPvEEEvDpT_, symObjAddr: 0x37B0, symBinAddr: 0x4F90, symSize: 0x20 }
  - { offset: 0x4E01B, size: 0x8, addend: 0x0, symName: __ZNSt3__16__moveB8de180100INS_17_ClassicAlgPolicyENS_11__wrap_iterIPN8nlohmann16json_abi_v3_11_210basic_jsonINS_3mapENS_6vectorENS_12basic_stringIcNS_11char_traitsIcEENS_9allocatorIcEEEEbxydSB_NS4_14adl_serializerENS7_IhNSB_IhEEEEEEEESJ_NS_20back_insert_iteratorINS7_ISH_NSB_ISH_EEEEEEEENS_4pairIT0_T2_EESP_T1_SQ_, symObjAddr: 0x3810, symBinAddr: 0x4FF0, symSize: 0x60 }
  - { offset: 0x4E08B, size: 0x8, addend: 0x0, symName: __ZNSt3__123__dispatch_copy_or_moveB8de180100INS_17_ClassicAlgPolicyENS_11__move_loopIS1_EENS_14__move_trivialENS_11__wrap_iterIPN8nlohmann16json_abi_v3_11_210basic_jsonINS_3mapENS_6vectorENS_12basic_stringIcNS_11char_traitsIcEENS_9allocatorIcEEEEbxydSE_NS7_14adl_serializerENSA_IhNSE_IhEEEEEEEESM_NS_20back_insert_iteratorINSA_ISK_NSE_ISK_EEEEEEEENS_4pairIT2_T4_EESS_T3_ST_, symObjAddr: 0x3870, symBinAddr: 0x5050, symSize: 0x60 }
  - { offset: 0x4E10D, size: 0x8, addend: 0x0, symName: __ZNSt3__121__unwrap_and_dispatchB8de180100INS_10__overloadINS_11__move_loopINS_17_ClassicAlgPolicyEEENS_14__move_trivialEEENS_11__wrap_iterIPN8nlohmann16json_abi_v3_11_210basic_jsonINS_3mapENS_6vectorENS_12basic_stringIcNS_11char_traitsIcEENS_9allocatorIcEEEEbxydSG_NS9_14adl_serializerENSC_IhNSG_IhEEEEEEEESO_NS_20back_insert_iteratorINSC_ISM_NSG_ISM_EEEEEELi0EEENS_4pairIT0_T2_EESU_T1_SV_, symObjAddr: 0x38D0, symBinAddr: 0x50B0, symSize: 0x100 }
  - { offset: 0x4E1A3, size: 0x8, addend: 0x0, symName: __ZNSt3__114__unwrap_rangeB8de180100INS_11__wrap_iterIPN8nlohmann16json_abi_v3_11_210basic_jsonINS_3mapENS_6vectorENS_12basic_stringIcNS_11char_traitsIcEENS_9allocatorIcEEEEbxydSA_NS3_14adl_serializerENS6_IhNSA_IhEEEEEEEESH_EENS_4pairIT0_SK_EET_SM_, symObjAddr: 0x39D0, symBinAddr: 0x51B0, symSize: 0x60 }
  - { offset: 0x4E32C, size: 0x8, addend: 0x0, symName: __ZNSt3__113__unwrap_iterB8de180100INS_20back_insert_iteratorINS_6vectorIN8nlohmann16json_abi_v3_11_210basic_jsonINS_3mapES2_NS_12basic_stringIcNS_11char_traitsIcEENS_9allocatorIcEEEEbxydSA_NS4_14adl_serializerENS2_IhNSA_IhEEEEEENSA_ISG_EEEEEENS_18__unwrap_iter_implISJ_Lb0EEELi0EEEDTclsrT0_8__unwrapclsr3stdE7declvalIT_EEEESN_, symObjAddr: 0x3AC0, symBinAddr: 0x52A0, symSize: 0x30 }
  - { offset: 0x4E373, size: 0x8, addend: 0x0, symName: __ZNSt3__19make_pairB8de180100INS_11__wrap_iterIPN8nlohmann16json_abi_v3_11_210basic_jsonINS_3mapENS_6vectorENS_12basic_stringIcNS_11char_traitsIcEENS_9allocatorIcEEEEbxydSA_NS3_14adl_serializerENS6_IhNSA_IhEEEEEEEENS_20back_insert_iteratorINS6_ISG_NSA_ISG_EEEEEEEENS_4pairINS_18__unwrap_ref_decayIT_E4typeENSO_IT0_E4typeEEEOSP_OSS_, symObjAddr: 0x3AF0, symBinAddr: 0x52D0, symSize: 0x30 }
  - { offset: 0x4E3C5, size: 0x8, addend: 0x0, symName: __ZNSt3__114__rewrap_rangeB8de180100INS_11__wrap_iterIPN8nlohmann16json_abi_v3_11_210basic_jsonINS_3mapENS_6vectorENS_12basic_stringIcNS_11char_traitsIcEENS_9allocatorIcEEEEbxydSA_NS3_14adl_serializerENS6_IhNSA_IhEEEEEEEESH_EET_SJ_T0_, symObjAddr: 0x3B20, symBinAddr: 0x5300, symSize: 0x40 }
  - { offset: 0x4E414, size: 0x8, addend: 0x0, symName: __ZNSt3__113__rewrap_iterB8de180100INS_20back_insert_iteratorINS_6vectorIN8nlohmann16json_abi_v3_11_210basic_jsonINS_3mapES2_NS_12basic_stringIcNS_11char_traitsIcEENS_9allocatorIcEEEEbxydSA_NS4_14adl_serializerENS2_IhNSA_IhEEEEEENSA_ISG_EEEEEESJ_NS_18__unwrap_iter_implISJ_Lb0EEEEET_SM_T0_, symObjAddr: 0x3B60, symBinAddr: 0x5340, symSize: 0x50 }
  - { offset: 0x4E46C, size: 0x8, addend: 0x0, symName: __ZNSt3__19make_pairB8de180100IPN8nlohmann16json_abi_v3_11_210basic_jsonINS_3mapENS_6vectorENS_12basic_stringIcNS_11char_traitsIcEENS_9allocatorIcEEEEbxydS9_NS2_14adl_serializerENS5_IhNS9_IhEEEEEESG_EENS_4pairINS_18__unwrap_ref_decayIT_E4typeENSI_IT0_E4typeEEEOSJ_OSM_, symObjAddr: 0x3BB0, symBinAddr: 0x5390, symSize: 0x30 }
  - { offset: 0x4E4BE, size: 0x8, addend: 0x0, symName: __ZNSt3__113__unwrap_iterB8de180100INS_11__wrap_iterIPN8nlohmann16json_abi_v3_11_210basic_jsonINS_3mapENS_6vectorENS_12basic_stringIcNS_11char_traitsIcEENS_9allocatorIcEEEEbxydSA_NS3_14adl_serializerENS6_IhNSA_IhEEEEEEEENS_18__unwrap_iter_implISI_Lb1EEELi0EEEDTclsrT0_8__unwrapclsr3stdE7declvalIT_EEEESM_, symObjAddr: 0x3BE0, symBinAddr: 0x53C0, symSize: 0x30 }
  - { offset: 0x4E638, size: 0x8, addend: 0x0, symName: __ZNSt3__112__to_addressB8de180100INS_11__wrap_iterIPN8nlohmann16json_abi_v3_11_210basic_jsonINS_3mapENS_6vectorENS_12basic_stringIcNS_11char_traitsIcEENS_9allocatorIcEEEEbxydSA_NS3_14adl_serializerENS6_IhNSA_IhEEEEEEEEvEEu7__decayIDTclsr19__to_address_helperIT_EE6__callclsr3stdE7declvalIRKSJ_EEEEESL_, symObjAddr: 0x3C90, symBinAddr: 0x5470, symSize: 0x20 }
  - { offset: 0x4E783, size: 0x8, addend: 0x0, symName: __ZNSt3__19make_pairB8de180100IPN8nlohmann16json_abi_v3_11_210basic_jsonINS_3mapENS_6vectorENS_12basic_stringIcNS_11char_traitsIcEENS_9allocatorIcEEEEbxydS9_NS2_14adl_serializerENS5_IhNS9_IhEEEEEENS_20back_insert_iteratorINS5_ISF_NS9_ISF_EEEEEEEENS_4pairINS_18__unwrap_ref_decayIT_E4typeENSM_IT0_E4typeEEEOSN_OSQ_, symObjAddr: 0x3DA0, symBinAddr: 0x5580, symSize: 0x30 }
  - { offset: 0x4E8FD, size: 0x8, addend: 0x0, symName: __ZNSt3__113__rewrap_iterB8de180100INS_11__wrap_iterIPN8nlohmann16json_abi_v3_11_210basic_jsonINS_3mapENS_6vectorENS_12basic_stringIcNS_11char_traitsIcEENS_9allocatorIcEEEEbxydSA_NS3_14adl_serializerENS6_IhNSA_IhEEEEEEEESH_NS_18__unwrap_iter_implISI_Lb1EEEEET_SL_T0_, symObjAddr: 0x3EC0, symBinAddr: 0x56A0, symSize: 0x50 }
  - { offset: 0x4E98A, size: 0x8, addend: 0x0, symName: __ZNSt3__1neB8de180100ERKNS_15__tree_iteratorINS_12__value_typeINS_12basic_stringIcNS_11char_traitsIcEENS_9allocatorIcEEEEN8nlohmann16json_abi_v3_11_210basic_jsonINS_3mapENS_6vectorES7_bxydS5_NS9_14adl_serializerENSC_IhNS5_IhEEEEEEEEPNS_11__tree_nodeISH_PvEElEESO_, symObjAddr: 0x4280, symBinAddr: 0x5A60, symSize: 0x30 }
  - { offset: 0x4E9CA, size: 0x8, addend: 0x0, symName: __ZNSt3__1eqB8de180100ERKNS_15__tree_iteratorINS_12__value_typeINS_12basic_stringIcNS_11char_traitsIcEENS_9allocatorIcEEEEN8nlohmann16json_abi_v3_11_210basic_jsonINS_3mapENS_6vectorES7_bxydS5_NS9_14adl_serializerENSC_IhNS5_IhEEEEEEEEPNS_11__tree_nodeISH_PvEElEESO_, symObjAddr: 0x42B0, symBinAddr: 0x5A90, symSize: 0x30 }
  - { offset: 0x4EA3F, size: 0x8, addend: 0x0, symName: __ZNSt3__17launderB8de180100INS_4pairIKNS_12basic_stringIcNS_11char_traitsIcEENS_9allocatorIcEEEEN8nlohmann16json_abi_v3_11_210basic_jsonINS_3mapENS_6vectorES7_bxydS5_NSA_14adl_serializerENSD_IhNS5_IhEEEEEEEEEEPT_SK_, symObjAddr: 0x4360, symBinAddr: 0x5B40, symSize: 0x20 }
  - { offset: 0x4EA78, size: 0x8, addend: 0x0, symName: __ZNSt3__19__launderB8de180100INS_4pairIKNS_12basic_stringIcNS_11char_traitsIcEENS_9allocatorIcEEEEN8nlohmann16json_abi_v3_11_210basic_jsonINS_3mapENS_6vectorES7_bxydS5_NSA_14adl_serializerENSD_IhNS5_IhEEEEEEEEEEPT_SK_, symObjAddr: 0x4380, symBinAddr: 0x5B60, symSize: 0x10 }
  - { offset: 0x4EAB1, size: 0x8, addend: 0x0, symName: __ZNSt3__13maxB8de180100ImEERKT_S3_S3_, symObjAddr: 0x4640, symBinAddr: 0x5E20, symSize: 0x30 }
  - { offset: 0x4EAF7, size: 0x8, addend: 0x0, symName: __ZNSt3__13maxB8de180100ImNS_6__lessIvvEEEERKT_S5_S5_T0_, symObjAddr: 0x4670, symBinAddr: 0x5E50, symSize: 0x50 }
  - { offset: 0x4EB55, size: 0x8, addend: 0x0, symName: __ZNSt3__116__tree_next_iterB8de180100IPNS_15__tree_end_nodeIPNS_16__tree_node_baseIPvEEEES5_EET_T0_, symObjAddr: 0x46F0, symBinAddr: 0x5ED0, symSize: 0xA0 }
  - { offset: 0x4EB95, size: 0x8, addend: 0x0, symName: __ZNSt3__110__tree_minB8de180100IPNS_16__tree_node_baseIPvEEEET_S5_, symObjAddr: 0x4790, symBinAddr: 0x5F70, symSize: 0x50 }
  - { offset: 0x4EBCC, size: 0x8, addend: 0x0, symName: __ZNSt3__120__tree_is_left_childB8de180100IPNS_16__tree_node_baseIPvEEEEbT_, symObjAddr: 0x47E0, symBinAddr: 0x5FC0, symSize: 0x30 }
  - { offset: 0x4EC03, size: 0x8, addend: 0x0, symName: __ZNSt3__112__destroy_atB8de180100INS_4pairIKNS_12basic_stringIcNS_11char_traitsIcEENS_9allocatorIcEEEEN8nlohmann16json_abi_v3_11_210basic_jsonINS_3mapENS_6vectorES7_bxydS5_NSA_14adl_serializerENSD_IhNS5_IhEEEEEEEELi0EEEvPT_, symObjAddr: 0x4BE0, symBinAddr: 0x63C0, symSize: 0x30 }
  - { offset: 0x4EC3D, size: 0x8, addend: 0x0, symName: __ZNSt3__112__to_addressB8de180100IhEEPT_S2_, symObjAddr: 0x53C0, symBinAddr: 0x6BA0, symSize: 0x10 }
  - { offset: 0x4EC74, size: 0x8, addend: 0x0, symName: __ZNSt3__111make_sharedB8de180100IN8nlohmann16json_abi_v3_11_26detail21output_string_adapterIcNS_12basic_stringIcNS_11char_traitsIcEENS_9allocatorIcEEEEEEJRSA_EvEENS_10shared_ptrIT_EEDpOT0_, symObjAddr: 0x6950, symBinAddr: 0x8130, symSize: 0x40 }
  - { offset: 0x4EEDE, size: 0x8, addend: 0x0, symName: __ZNSt3__115allocate_sharedB8de180100IN8nlohmann16json_abi_v3_11_26detail21output_string_adapterIcNS_12basic_stringIcNS_11char_traitsIcEENS_9allocatorIcEEEEEENS8_ISB_EEJRSA_EvEENS_10shared_ptrIT_EERKT0_DpOT1_, symObjAddr: 0x69E0, symBinAddr: 0x81C0, symSize: 0xB0 }
  - { offset: 0x4F37B, size: 0x8, addend: 0x0, symName: __ZNSt3__134__libcpp_atomic_refcount_decrementB8de180100IlEET_RS1_, symObjAddr: 0x7620, symBinAddr: 0x8E00, symSize: 0x30 }
  - { offset: 0x4F3B2, size: 0x8, addend: 0x0, symName: __ZNSt3__134__libcpp_atomic_refcount_incrementB8de180100IlEET_RS1_, symObjAddr: 0x7710, symBinAddr: 0x8EF0, symSize: 0x30 }
  - { offset: 0x4F3E9, size: 0x8, addend: 0x0, symName: __ZNSt3__1neB8de180100ERKNS_20__map_const_iteratorINS_21__tree_const_iteratorINS_12__value_typeINS_12basic_stringIcNS_11char_traitsIcEENS_9allocatorIcEEEEN8nlohmann16json_abi_v3_11_210basic_jsonINS_3mapENS_6vectorES8_bxydS6_NSA_14adl_serializerENSD_IhNS6_IhEEEEEEEEPNS_11__tree_nodeISI_PvEElEEEESQ_, symObjAddr: 0x8760, symBinAddr: 0x9F40, symSize: 0x30 }
  - { offset: 0x4F429, size: 0x8, addend: 0x0, symName: __ZNSt3__1eqB8de180100ERKNS_20__map_const_iteratorINS_21__tree_const_iteratorINS_12__value_typeINS_12basic_stringIcNS_11char_traitsIcEENS_9allocatorIcEEEEN8nlohmann16json_abi_v3_11_210basic_jsonINS_3mapENS_6vectorES8_bxydS6_NSA_14adl_serializerENSD_IhNS6_IhEEEEEEEEPNS_11__tree_nodeISI_PvEElEEEESQ_, symObjAddr: 0x87C0, symBinAddr: 0x9FA0, symSize: 0x30 }
  - { offset: 0x4F469, size: 0x8, addend: 0x0, symName: __ZNSt3__14nextB8de180100INS_20__map_const_iteratorINS_21__tree_const_iteratorINS_12__value_typeINS_12basic_stringIcNS_11char_traitsIcEENS_9allocatorIcEEEEN8nlohmann16json_abi_v3_11_210basic_jsonINS_3mapENS_6vectorES9_bxydS7_NSB_14adl_serializerENSE_IhNS7_IhEEEEEEEEPNS_11__tree_nodeISJ_PvEElEEEELi0EEET_SQ_NS_15iterator_traitsISQ_E15difference_typeE, symObjAddr: 0x87F0, symBinAddr: 0x9FD0, symSize: 0x70 }
  - { offset: 0x4F4B6, size: 0x8, addend: 0x0, symName: __ZNSt3__1neB8de180100IPKN8nlohmann16json_abi_v3_11_210basic_jsonINS_3mapENS_6vectorENS_12basic_stringIcNS_11char_traitsIcEENS_9allocatorIcEEEEbxydS9_NS2_14adl_serializerENS5_IhNS9_IhEEEEEEEEbRKNS_11__wrap_iterIT_EESM_, symObjAddr: 0x8890, symBinAddr: 0xA070, symSize: 0x30 }
  - { offset: 0x4F4FC, size: 0x8, addend: 0x0, symName: __ZNSt3__1neB8de180100IPKhEEbRKNS_11__wrap_iterIT_EES7_, symObjAddr: 0x89B0, symBinAddr: 0xA190, symSize: 0x30 }
  - { offset: 0x4F542, size: 0x8, addend: 0x0, symName: __ZNSt3__118__constexpr_strlenB8de180100EPKc, symObjAddr: 0xA3A0, symBinAddr: 0xBB60, symSize: 0x20 }
  - { offset: 0x4F60F, size: 0x8, addend: 0x0, symName: __ZNSt3__17launderB8de180100IKNS_4pairIKNS_12basic_stringIcNS_11char_traitsIcEENS_9allocatorIcEEEEN8nlohmann16json_abi_v3_11_210basic_jsonINS_3mapENS_6vectorES7_bxydS5_NSA_14adl_serializerENSD_IhNS5_IhEEEEEEEEEEPT_SL_, symObjAddr: 0xA9A0, symBinAddr: 0xC160, symSize: 0x20 }
  - { offset: 0x4F648, size: 0x8, addend: 0x0, symName: __ZNSt3__19__launderB8de180100IKNS_4pairIKNS_12basic_stringIcNS_11char_traitsIcEENS_9allocatorIcEEEEN8nlohmann16json_abi_v3_11_210basic_jsonINS_3mapENS_6vectorES7_bxydS5_NSA_14adl_serializerENSD_IhNS5_IhEEEEEEEEEEPT_SL_, symObjAddr: 0xA9C0, symBinAddr: 0xC180, symSize: 0x10 }
  - { offset: 0x4F681, size: 0x8, addend: 0x0, symName: __ZNSt3__1neB8de180100ERKNS_21__tree_const_iteratorINS_12__value_typeINS_12basic_stringIcNS_11char_traitsIcEENS_9allocatorIcEEEEN8nlohmann16json_abi_v3_11_210basic_jsonINS_3mapENS_6vectorES7_bxydS5_NS9_14adl_serializerENSC_IhNS5_IhEEEEEEEEPNS_11__tree_nodeISH_PvEElEESO_, symObjAddr: 0xAA00, symBinAddr: 0xC1C0, symSize: 0x30 }
  - { offset: 0x4F6C1, size: 0x8, addend: 0x0, symName: __ZNSt3__1eqB8de180100ERKNS_21__tree_const_iteratorINS_12__value_typeINS_12basic_stringIcNS_11char_traitsIcEENS_9allocatorIcEEEEN8nlohmann16json_abi_v3_11_210basic_jsonINS_3mapENS_6vectorES7_bxydS5_NS9_14adl_serializerENSC_IhNS5_IhEEEEEEEEPNS_11__tree_nodeISH_PvEElEESO_, symObjAddr: 0xAA30, symBinAddr: 0xC1F0, symSize: 0x30 }
  - { offset: 0x4F701, size: 0x8, addend: 0x0, symName: __ZNSt3__121__convert_to_integralB8de180100El, symObjAddr: 0xAB30, symBinAddr: 0xC2F0, symSize: 0x10 }
  - { offset: 0x4F72F, size: 0x8, addend: 0x0, symName: __ZNSt3__19__advanceB8de180100INS_20__map_const_iteratorINS_21__tree_const_iteratorINS_12__value_typeINS_12basic_stringIcNS_11char_traitsIcEENS_9allocatorIcEEEEN8nlohmann16json_abi_v3_11_210basic_jsonINS_3mapENS_6vectorES9_bxydS7_NSB_14adl_serializerENSE_IhNS7_IhEEEEEEEEPNS_11__tree_nodeISJ_PvEElEEEEEEvRT_NS_15iterator_traitsISQ_E15difference_typeENS_26bidirectional_iterator_tagE, symObjAddr: 0xAB40, symBinAddr: 0xC300, symSize: 0x80 }
  - { offset: 0x4F77C, size: 0x8, addend: 0x0, symName: __ZNSt3__116__tree_prev_iterB8de180100IPNS_16__tree_node_baseIPvEEPNS_15__tree_end_nodeIS4_EEEET_T0_, symObjAddr: 0xAC20, symBinAddr: 0xC3E0, symSize: 0x90 }
  - { offset: 0x4F7CB, size: 0x8, addend: 0x0, symName: __ZNSt3__110__tree_maxB8de180100IPNS_16__tree_node_baseIPvEEEET_S5_, symObjAddr: 0xACB0, symBinAddr: 0xC470, symSize: 0x50 }
  - { offset: 0x4F802, size: 0x8, addend: 0x0, symName: __ZNSt3__1eqB8de180100IPKN8nlohmann16json_abi_v3_11_210basic_jsonINS_3mapENS_6vectorENS_12basic_stringIcNS_11char_traitsIcEENS_9allocatorIcEEEEbxydS9_NS2_14adl_serializerENS5_IhNS9_IhEEEEEEEEbRKNS_11__wrap_iterIT_EESM_, symObjAddr: 0xADB0, symBinAddr: 0xC570, symSize: 0x40 }
  - { offset: 0x4F848, size: 0x8, addend: 0x0, symName: __ZNSt3__1eqB8de180100IPKhEEbRKNS_11__wrap_iterIT_EES7_, symObjAddr: 0xAF50, symBinAddr: 0xC710, symSize: 0x40 }
  - { offset: 0x4FAA3, size: 0x8, addend: 0x0, symName: __ZNSt3__16__math8isfiniteB8de180100IdLi0EEEbT_, symObjAddr: 0xB2D0, symBinAddr: 0xCA90, symSize: 0x40 }
  - { offset: 0x4FAE1, size: 0x8, addend: 0x0, symName: __ZNSt3__16__math7signbitB8de180100IdLi0EEEbT_, symObjAddr: 0xB640, symBinAddr: 0xCE00, symSize: 0x30 }
  - { offset: 0x51005, size: 0x8, addend: 0x0, symName: __ZSt28__throw_bad_array_new_lengthB8de180100v, symObjAddr: 0x29E0, symBinAddr: 0x41C0, symSize: 0x40 }
  - { offset: 0x52507, size: 0x8, addend: 0x0, symName: __ZN8nlohmann16json_abi_v3_11_26detail10serializerINS0_10basic_jsonINSt3__13mapENS4_6vectorENS4_12basic_stringIcNS4_11char_traitsIcEENS4_9allocatorIcEEEEbxydSA_NS0_14adl_serializerENS6_IhNSA_IhEEEEEEE6decodeERhRjh, symObjAddr: 0x9530, symBinAddr: 0xAD10, symSize: 0x160 }
  - { offset: 0x525B7, size: 0x8, addend: 0x0, symName: __ZN8nlohmann16json_abi_v3_11_26detail10serializerINS0_10basic_jsonINSt3__13mapENS4_6vectorENS4_12basic_stringIcNS4_11char_traitsIcEENS4_9allocatorIcEEEEbxydSA_NS0_14adl_serializerENS6_IhNSA_IhEEEEEEE12dump_integerIhLi0EEEvT_, symObjAddr: 0x8A40, symBinAddr: 0xA220, symSize: 0x290 }
  - { offset: 0x526FC, size: 0x8, addend: 0x0, symName: __ZN8nlohmann16json_abi_v3_11_26detail10serializerINS0_10basic_jsonINSt3__13mapENS4_6vectorENS4_12basic_stringIcNS4_11char_traitsIcEENS4_9allocatorIcEEEEbxydSA_NS0_14adl_serializerENS6_IhNSA_IhEEEEEEE12dump_integerIyLi0EEEvT_, symObjAddr: 0x8D80, symBinAddr: 0xA560, symSize: 0x280 }
  - { offset: 0x527BD, size: 0x8, addend: 0x0, symName: __ZN8nlohmann16json_abi_v3_11_26detail10serializerINS0_10basic_jsonINSt3__13mapENS4_6vectorENS4_12basic_stringIcNS4_11char_traitsIcEENS4_9allocatorIcEEEEbxydSA_NS0_14adl_serializerENS6_IhNSA_IhEEEEEEE12dump_integerIxLi0EEEvT_, symObjAddr: 0x9050, symBinAddr: 0xA830, symSize: 0x280 }
  - { offset: 0x5287E, size: 0x8, addend: 0x0, symName: __ZN8nlohmann16json_abi_v3_11_26detail10serializerINS0_10basic_jsonINSt3__13mapENS4_6vectorENS4_12basic_stringIcNS4_11char_traitsIcEENS4_9allocatorIcEEEEbxydSA_NS0_14adl_serializerENS6_IhNSA_IhEEEEEEE10dump_floatEd, symObjAddr: 0x92D0, symBinAddr: 0xAAB0, symSize: 0x70 }
  - { offset: 0x55803, size: 0x8, addend: 0x0, symName: __ZNSt3__16vectorIN8nlohmann16json_abi_v3_11_210basic_jsonINS_3mapES0_NS_12basic_stringIcNS_11char_traitsIcEENS_9allocatorIcEEEEbxydS8_NS2_14adl_serializerENS0_IhNS8_IhEEEEEENS8_ISE_EEE26__swap_out_circular_bufferERNS_14__split_bufferISE_RSF_EE, symObjAddr: 0x23B0, symBinAddr: 0x3B90, symSize: 0x120 }
  - { offset: 0x56810, size: 0x8, addend: 0x0, symName: '-[ConsumerWrapper initWithConsumer:track:listenerAdapter:]', symObjAddr: 0x0, symBinAddr: 0x17E0, symSize: 0x140 }
  - { offset: 0x56876, size: 0x8, addend: 0x0, symName: '-[ConsumerWrapper dealloc]', symObjAddr: 0x140, symBinAddr: 0x1920, symSize: 0x1B0 }
  - { offset: 0x568D8, size: 0x8, addend: 0x0, symName: '___26-[ConsumerWrapper dealloc]_block_invoke', symObjAddr: 0x2F0, symBinAddr: 0x1AD0, symSize: 0x70 }
  - { offset: 0x56938, size: 0x8, addend: 0x0, symName: __ZN15mediasoupclient8ConsumerD1Ev, symObjAddr: 0x360, symBinAddr: 0x1B40, symSize: 0x20 }
  - { offset: 0x56964, size: 0x8, addend: 0x0, symName: ___copy_helper_block_ea8_32s, symObjAddr: 0x380, symBinAddr: 0x1B60, symSize: 0x40 }
  - { offset: 0x5698B, size: 0x8, addend: 0x0, symName: ___destroy_helper_block_ea8_32s, symObjAddr: 0x3C0, symBinAddr: 0x1BA0, symSize: 0x30 }
  - { offset: 0x569A9, size: 0x8, addend: 0x0, symName: '-[ConsumerWrapper id]', symObjAddr: 0x400, symBinAddr: 0x1BE0, symSize: 0x50 }
  - { offset: 0x569E2, size: 0x8, addend: 0x0, symName: __ZNKSt3__112basic_stringIcNS_11char_traitsIcEENS_9allocatorIcEEE5c_strB8de180100Ev, symObjAddr: 0x450, symBinAddr: 0x1C30, symSize: 0x20 }
  - { offset: 0x56A08, size: 0x8, addend: 0x0, symName: '-[ConsumerWrapper producerId]', symObjAddr: 0x470, symBinAddr: 0x1C50, symSize: 0x50 }
  - { offset: 0x56A41, size: 0x8, addend: 0x0, symName: '-[ConsumerWrapper localId]', symObjAddr: 0x4C0, symBinAddr: 0x1CA0, symSize: 0x50 }
  - { offset: 0x56A7A, size: 0x8, addend: 0x0, symName: '-[ConsumerWrapper closed]', symObjAddr: 0x510, symBinAddr: 0x1CF0, symSize: 0x40 }
  - { offset: 0x56AB3, size: 0x8, addend: 0x0, symName: '-[ConsumerWrapper paused]', symObjAddr: 0x550, symBinAddr: 0x1D30, symSize: 0x40 }
  - { offset: 0x56AEC, size: 0x8, addend: 0x0, symName: '-[ConsumerWrapper kind]', symObjAddr: 0x590, symBinAddr: 0x1D70, symSize: 0xA0 }
  - { offset: 0x56B25, size: 0x8, addend: 0x0, symName: '-[ConsumerWrapper appData]', symObjAddr: 0x630, symBinAddr: 0x1E10, symSize: 0xC0 }
  - { offset: 0x56B5E, size: 0x8, addend: 0x0, symName: __ZNK8nlohmann16json_abi_v3_11_210basic_jsonINSt3__13mapENS2_6vectorENS2_12basic_stringIcNS2_11char_traitsIcEENS2_9allocatorIcEEEEbxydS8_NS0_14adl_serializerENS4_IhNS8_IhEEEEE4dumpEicbNS0_6detail15error_handler_tE, symObjAddr: 0x6F0, symBinAddr: 0x1ED0, symSize: 0x270 }
  - { offset: 0x56BEC, size: 0x8, addend: 0x0, symName: '-[ConsumerWrapper rtpParameters]', symObjAddr: 0x960, symBinAddr: 0x2140, symSize: 0xC0 }
  - { offset: 0x56C25, size: 0x8, addend: 0x0, symName: '-[ConsumerWrapper stats]', symObjAddr: 0xA20, symBinAddr: 0x2200, symSize: 0x130 }
  - { offset: 0x56C7C, size: 0x8, addend: 0x0, symName: '-[ConsumerWrapper pause]', symObjAddr: 0xB50, symBinAddr: 0x2330, symSize: 0x30 }
  - { offset: 0x56CB1, size: 0x8, addend: 0x0, symName: '-[ConsumerWrapper resume]', symObjAddr: 0xB80, symBinAddr: 0x2360, symSize: 0x30 }
  - { offset: 0x56CE6, size: 0x8, addend: 0x0, symName: '-[ConsumerWrapper close]', symObjAddr: 0xBB0, symBinAddr: 0x2390, symSize: 0x30 }
  - { offset: 0x56D1B, size: 0x8, addend: 0x0, symName: '-[ConsumerWrapper getStatsWithError:]', symObjAddr: 0xBE0, symBinAddr: 0x23C0, symSize: 0x170 }
  - { offset: 0x56D78, size: 0x8, addend: 0x0, symName: ___Block_byref_object_copy_, symObjAddr: 0xD50, symBinAddr: 0x2530, symSize: 0x50 }
  - { offset: 0x56D9F, size: 0x8, addend: 0x0, symName: ___Block_byref_object_dispose_, symObjAddr: 0xDA0, symBinAddr: 0x2580, symSize: 0x30 }
  - { offset: 0x56DBD, size: 0x8, addend: 0x0, symName: '___37-[ConsumerWrapper getStatsWithError:]_block_invoke', symObjAddr: 0xDD0, symBinAddr: 0x25B0, symSize: 0x100 }
  - { offset: 0x56E15, size: 0x8, addend: 0x0, symName: __ZN8nlohmann16json_abi_v3_11_210basic_jsonINSt3__13mapENS2_6vectorENS2_12basic_stringIcNS2_11char_traitsIcEENS2_9allocatorIcEEEEbxydS8_NS0_14adl_serializerENS4_IhNS8_IhEEEEED1Ev, symObjAddr: 0xED0, symBinAddr: 0x26B0, symSize: 0x20 }
  - { offset: 0x56E3F, size: 0x8, addend: 0x0, symName: ___copy_helper_block_ea8_32s40r, symObjAddr: 0xEF0, symBinAddr: 0x26D0, symSize: 0x60 }
  - { offset: 0x56E66, size: 0x8, addend: 0x0, symName: ___destroy_helper_block_ea8_32s40r, symObjAddr: 0xF50, symBinAddr: 0x2730, symSize: 0x40 }
  - { offset: 0x56E84, size: 0x8, addend: 0x0, symName: '-[ConsumerWrapper onTransportClose:]', symObjAddr: 0xF90, symBinAddr: 0x2770, symSize: 0xA0 }
  - { offset: 0x56EC8, size: 0x8, addend: 0x0, symName: '-[ConsumerWrapper delegate]', symObjAddr: 0x1030, symBinAddr: 0x2810, symSize: 0x30 }
  - { offset: 0x56F01, size: 0x8, addend: 0x0, symName: '-[ConsumerWrapper setDelegate:]', symObjAddr: 0x1060, symBinAddr: 0x2840, symSize: 0x30 }
  - { offset: 0x56F43, size: 0x8, addend: 0x0, symName: '-[ConsumerWrapper track]', symObjAddr: 0x1090, symBinAddr: 0x2870, symSize: 0x20 }
  - { offset: 0x56F7C, size: 0x8, addend: 0x0, symName: '-[ConsumerWrapper setTrack:]', symObjAddr: 0x10B0, symBinAddr: 0x2890, symSize: 0x30 }
  - { offset: 0x56FBE, size: 0x8, addend: 0x0, symName: '-[ConsumerWrapper .cxx_destruct]', symObjAddr: 0x10E0, symBinAddr: 0x28C0, symSize: 0x40 }
  - { offset: 0x56FF3, size: 0x8, addend: 0x0, symName: __ZN15mediasoupclient8ConsumerD2Ev, symObjAddr: 0x1120, symBinAddr: 0x2900, symSize: 0x60 }
  - { offset: 0x5701F, size: 0x8, addend: 0x0, symName: __ZNKSt3__112basic_stringIcNS_11char_traitsIcEENS_9allocatorIcEEE4dataB8de180100Ev, symObjAddr: 0x1180, symBinAddr: 0x2960, symSize: 0x30 }
  - { offset: 0x57045, size: 0x8, addend: 0x0, symName: __ZNKSt3__112basic_stringIcNS_11char_traitsIcEENS_9allocatorIcEEE13__get_pointerB8de180100Ev, symObjAddr: 0x11C0, symBinAddr: 0x29A0, symSize: 0x50 }
  - { offset: 0x5706B, size: 0x8, addend: 0x0, symName: __ZNKSt3__112basic_stringIcNS_11char_traitsIcEENS_9allocatorIcEEE9__is_longB8de180100Ev, symObjAddr: 0x1210, symBinAddr: 0x29F0, symSize: 0x30 }
  - { offset: 0x57091, size: 0x8, addend: 0x0, symName: __ZNKSt3__112basic_stringIcNS_11char_traitsIcEENS_9allocatorIcEEE18__get_long_pointerB8de180100Ev, symObjAddr: 0x1240, symBinAddr: 0x2A20, symSize: 0x20 }
  - { offset: 0x570B7, size: 0x8, addend: 0x0, symName: __ZNKSt3__112basic_stringIcNS_11char_traitsIcEENS_9allocatorIcEEE19__get_short_pointerB8de180100Ev, symObjAddr: 0x1260, symBinAddr: 0x2A40, symSize: 0x30 }
  - { offset: 0x570DD, size: 0x8, addend: 0x0, symName: __ZNKSt3__117__compressed_pairINS_12basic_stringIcNS_11char_traitsIcEENS_9allocatorIcEEE5__repES5_E5firstB8de180100Ev, symObjAddr: 0x1290, symBinAddr: 0x2A70, symSize: 0x20 }
  - { offset: 0x57103, size: 0x8, addend: 0x0, symName: __ZNKSt3__122__compressed_pair_elemINS_12basic_stringIcNS_11char_traitsIcEENS_9allocatorIcEEE5__repELi0ELb0EE5__getB8de180100Ev, symObjAddr: 0x12B0, symBinAddr: 0x2A90, symSize: 0x10 }
  - { offset: 0x57129, size: 0x8, addend: 0x0, symName: __ZNSt3__114pointer_traitsIPKcE10pointer_toB8de180100ERS1_, symObjAddr: 0x12C0, symBinAddr: 0x2AA0, symSize: 0x10 }
  - { offset: 0x5714D, size: 0x8, addend: 0x0, symName: __ZN8nlohmann16json_abi_v3_11_210basic_jsonINSt3__13mapENS2_6vectorENS2_12basic_stringIcNS2_11char_traitsIcEENS2_9allocatorIcEEEEbxydS8_NS0_14adl_serializerENS4_IhNS8_IhEEEEED2Ev, symObjAddr: 0x12D0, symBinAddr: 0x2AB0, symSize: 0x50 }
  - { offset: 0x57177, size: 0x8, addend: 0x0, symName: __ZNK8nlohmann16json_abi_v3_11_210basic_jsonINSt3__13mapENS2_6vectorENS2_12basic_stringIcNS2_11char_traitsIcEENS2_9allocatorIcEEEEbxydS8_NS0_14adl_serializerENS4_IhNS8_IhEEEEE16assert_invariantEb, symObjAddr: 0x1320, symBinAddr: 0x2B00, symSize: 0x1A0 }
  - { offset: 0x571AD, size: 0x8, addend: 0x0, symName: __ZN8nlohmann16json_abi_v3_11_210basic_jsonINSt3__13mapENS2_6vectorENS2_12basic_stringIcNS2_11char_traitsIcEENS2_9allocatorIcEEEEbxydS8_NS0_14adl_serializerENS4_IhNS8_IhEEEEE10json_value7destroyENS0_6detail7value_tE, symObjAddr: 0x14C0, symBinAddr: 0x2CA0, symSize: 0x550 }
  - { offset: 0x57344, size: 0x8, addend: 0x0, symName: __ZNSt3__16vectorIN8nlohmann16json_abi_v3_11_210basic_jsonINS_3mapES0_NS_12basic_stringIcNS_11char_traitsIcEENS_9allocatorIcEEEEbxydS8_NS2_14adl_serializerENS0_IhNS8_IhEEEEEENS8_ISE_EEEC1B8de180100Ev, symObjAddr: 0x1A10, symBinAddr: 0x31F0, symSize: 0x20 }
  - { offset: 0x5736E, size: 0x8, addend: 0x0, symName: __ZNSt3__16vectorIN8nlohmann16json_abi_v3_11_210basic_jsonINS_3mapES0_NS_12basic_stringIcNS_11char_traitsIcEENS_9allocatorIcEEEEbxydS8_NS2_14adl_serializerENS0_IhNS8_IhEEEEEENS8_ISE_EEE7reserveEm, symObjAddr: 0x1A30, symBinAddr: 0x3210, symSize: 0xF0 }
  - { offset: 0x573CD, size: 0x8, addend: 0x0, symName: __ZNKSt3__16vectorIN8nlohmann16json_abi_v3_11_210basic_jsonINS_3mapES0_NS_12basic_stringIcNS_11char_traitsIcEENS_9allocatorIcEEEEbxydS8_NS2_14adl_serializerENS0_IhNS8_IhEEEEEENS8_ISE_EEE4sizeB8de180100Ev, symObjAddr: 0x1B20, symBinAddr: 0x3300, symSize: 0x20 }
  - { offset: 0x573F3, size: 0x8, addend: 0x0, symName: __ZNSt3__16vectorIN8nlohmann16json_abi_v3_11_210basic_jsonINS_3mapES0_NS_12basic_stringIcNS_11char_traitsIcEENS_9allocatorIcEEEEbxydS8_NS2_14adl_serializerENS0_IhNS8_IhEEEEEENS8_ISE_EEE5beginB8de180100Ev, symObjAddr: 0x1BA0, symBinAddr: 0x3380, symSize: 0x30 }
  - { offset: 0x5741B, size: 0x8, addend: 0x0, symName: __ZNSt3__16vectorIN8nlohmann16json_abi_v3_11_210basic_jsonINS_3mapES0_NS_12basic_stringIcNS_11char_traitsIcEENS_9allocatorIcEEEEbxydS8_NS2_14adl_serializerENS0_IhNS8_IhEEEEEENS8_ISE_EEE3endB8de180100Ev, symObjAddr: 0x1BD0, symBinAddr: 0x33B0, symSize: 0x30 }
  - { offset: 0x57443, size: 0x8, addend: 0x0, symName: __ZNKSt3__13mapINS_12basic_stringIcNS_11char_traitsIcEENS_9allocatorIcEEEEN8nlohmann16json_abi_v3_11_210basic_jsonIS0_NS_6vectorES6_bxydS4_NS8_14adl_serializerENSA_IhNS4_IhEEEEEENS_4lessIvEENS4_INS_4pairIKS6_SE_EEEEE4sizeB8de180100Ev, symObjAddr: 0x1C30, symBinAddr: 0x3410, symSize: 0x20 }
  - { offset: 0x57469, size: 0x8, addend: 0x0, symName: __ZNSt3__13mapINS_12basic_stringIcNS_11char_traitsIcEENS_9allocatorIcEEEEN8nlohmann16json_abi_v3_11_210basic_jsonIS0_NS_6vectorES6_bxydS4_NS8_14adl_serializerENSA_IhNS4_IhEEEEEENS_4lessIvEENS4_INS_4pairIKS6_SE_EEEEE5beginB8de180100Ev, symObjAddr: 0x1C50, symBinAddr: 0x3430, symSize: 0x30 }
  - { offset: 0x5748F, size: 0x8, addend: 0x0, symName: __ZNSt3__13mapINS_12basic_stringIcNS_11char_traitsIcEENS_9allocatorIcEEEEN8nlohmann16json_abi_v3_11_210basic_jsonIS0_NS_6vectorES6_bxydS4_NS8_14adl_serializerENSA_IhNS4_IhEEEEEENS_4lessIvEENS4_INS_4pairIKS6_SE_EEEEE3endB8de180100Ev, symObjAddr: 0x1C80, symBinAddr: 0x3460, symSize: 0x30 }
  - { offset: 0x574B5, size: 0x8, addend: 0x0, symName: __ZNKSt3__114__map_iteratorINS_15__tree_iteratorINS_12__value_typeINS_12basic_stringIcNS_11char_traitsIcEENS_9allocatorIcEEEEN8nlohmann16json_abi_v3_11_210basic_jsonINS_3mapENS_6vectorES8_bxydS6_NSA_14adl_serializerENSD_IhNS6_IhEEEEEEEEPNS_11__tree_nodeISI_PvEElEEEdeB8de180100Ev, symObjAddr: 0x1CE0, symBinAddr: 0x34C0, symSize: 0x30 }
  - { offset: 0x574DB, size: 0x8, addend: 0x0, symName: __ZNSt3__16vectorIN8nlohmann16json_abi_v3_11_210basic_jsonINS_3mapES0_NS_12basic_stringIcNS_11char_traitsIcEENS_9allocatorIcEEEEbxydS8_NS2_14adl_serializerENS0_IhNS8_IhEEEEEENS8_ISE_EEE9push_backB8de180100EOSE_, symObjAddr: 0x1D10, symBinAddr: 0x34F0, symSize: 0x80 }
  - { offset: 0x57523, size: 0x8, addend: 0x0, symName: __ZNSt3__114__map_iteratorINS_15__tree_iteratorINS_12__value_typeINS_12basic_stringIcNS_11char_traitsIcEENS_9allocatorIcEEEEN8nlohmann16json_abi_v3_11_210basic_jsonINS_3mapENS_6vectorES8_bxydS6_NSA_14adl_serializerENSD_IhNS6_IhEEEEEEEEPNS_11__tree_nodeISI_PvEElEEEppB8de180100Ev, symObjAddr: 0x1D90, symBinAddr: 0x3570, symSize: 0x30 }
  - { offset: 0x57549, size: 0x8, addend: 0x0, symName: __ZNKSt3__16vectorIN8nlohmann16json_abi_v3_11_210basic_jsonINS_3mapES0_NS_12basic_stringIcNS_11char_traitsIcEENS_9allocatorIcEEEEbxydS8_NS2_14adl_serializerENS0_IhNS8_IhEEEEEENS8_ISE_EEE5emptyB8de180100Ev, symObjAddr: 0x1DC0, symBinAddr: 0x35A0, symSize: 0x20 }
  - { offset: 0x5756F, size: 0x8, addend: 0x0, symName: __ZNSt3__16vectorIN8nlohmann16json_abi_v3_11_210basic_jsonINS_3mapES0_NS_12basic_stringIcNS_11char_traitsIcEENS_9allocatorIcEEEEbxydS8_NS2_14adl_serializerENS0_IhNS8_IhEEEEEENS8_ISE_EEE4backB8de180100Ev, symObjAddr: 0x1DE0, symBinAddr: 0x35C0, symSize: 0x50 }
  - { offset: 0x57595, size: 0x8, addend: 0x0, symName: __ZN8nlohmann16json_abi_v3_11_210basic_jsonINSt3__13mapENS2_6vectorENS2_12basic_stringIcNS2_11char_traitsIcEENS2_9allocatorIcEEEEbxydS8_NS0_14adl_serializerENS4_IhNS8_IhEEEEEC1EOSE_, symObjAddr: 0x1E30, symBinAddr: 0x3610, symSize: 0x30 }
  - { offset: 0x575CF, size: 0x8, addend: 0x0, symName: __ZNSt3__16vectorIN8nlohmann16json_abi_v3_11_210basic_jsonINS_3mapES0_NS_12basic_stringIcNS_11char_traitsIcEENS_9allocatorIcEEEEbxydS8_NS2_14adl_serializerENS0_IhNS8_IhEEEEEENS8_ISE_EEE8pop_backEv, symObjAddr: 0x1E60, symBinAddr: 0x3640, symSize: 0x50 }
  - { offset: 0x575F7, size: 0x8, addend: 0x0, symName: __ZNK8nlohmann16json_abi_v3_11_210basic_jsonINSt3__13mapENS2_6vectorENS2_12basic_stringIcNS2_11char_traitsIcEENS2_9allocatorIcEEEEbxydS8_NS0_14adl_serializerENS4_IhNS8_IhEEEEE8is_arrayEv, symObjAddr: 0x1EB0, symBinAddr: 0x3690, symSize: 0x20 }
  - { offset: 0x5761D, size: 0x8, addend: 0x0, symName: __ZNSt3__16vectorIN8nlohmann16json_abi_v3_11_210basic_jsonINS_3mapES0_NS_12basic_stringIcNS_11char_traitsIcEENS_9allocatorIcEEEEbxydS8_NS2_14adl_serializerENS0_IhNS8_IhEEEEEENS8_ISE_EEE5clearB8de180100Ev, symObjAddr: 0x1ED0, symBinAddr: 0x36B0, symSize: 0x40 }
  - { offset: 0x57653, size: 0x8, addend: 0x0, symName: __ZNK8nlohmann16json_abi_v3_11_210basic_jsonINSt3__13mapENS2_6vectorENS2_12basic_stringIcNS2_11char_traitsIcEENS2_9allocatorIcEEEEbxydS8_NS0_14adl_serializerENS4_IhNS8_IhEEEEE9is_objectEv, symObjAddr: 0x1F10, symBinAddr: 0x36F0, symSize: 0x20 }
  - { offset: 0x57679, size: 0x8, addend: 0x0, symName: __ZNSt3__13mapINS_12basic_stringIcNS_11char_traitsIcEENS_9allocatorIcEEEEN8nlohmann16json_abi_v3_11_210basic_jsonIS0_NS_6vectorES6_bxydS4_NS8_14adl_serializerENSA_IhNS4_IhEEEEEENS_4lessIvEENS4_INS_4pairIKS6_SE_EEEEE5clearB8de180100Ev, symObjAddr: 0x1F30, symBinAddr: 0x3710, symSize: 0x20 }
  - { offset: 0x5769F, size: 0x8, addend: 0x0, symName: __ZNSt3__16vectorIN8nlohmann16json_abi_v3_11_210basic_jsonINS_3mapES0_NS_12basic_stringIcNS_11char_traitsIcEENS_9allocatorIcEEEEbxydS8_NS2_14adl_serializerENS0_IhNS8_IhEEEEEENS8_ISE_EEED1B8de180100Ev, symObjAddr: 0x1F50, symBinAddr: 0x3730, symSize: 0x20 }
  - { offset: 0x576E7, size: 0x8, addend: 0x0, symName: __ZNSt3__19allocatorINS_3mapINS_12basic_stringIcNS_11char_traitsIcEENS0_IcEEEEN8nlohmann16json_abi_v3_11_210basic_jsonIS1_NS_6vectorES6_bxydS0_NS8_14adl_serializerENSA_IhNS0_IhEEEEEENS_4lessIvEENS0_INS_4pairIKS6_SE_EEEEEEEC1B8de180100Ev, symObjAddr: 0x1F70, symBinAddr: 0x3750, symSize: 0x20 }
  - { offset: 0x57717, size: 0x8, addend: 0x0, symName: __ZNSt3__116allocator_traitsINS_9allocatorINS_3mapINS_12basic_stringIcNS_11char_traitsIcEENS1_IcEEEEN8nlohmann16json_abi_v3_11_210basic_jsonIS2_NS_6vectorES7_bxydS1_NS9_14adl_serializerENSB_IhNS1_IhEEEEEENS_4lessIvEENS1_INS_4pairIKS7_SF_EEEEEEEEE7destroyB8de180100ISM_vEEvRSN_PT_, symObjAddr: 0x1F90, symBinAddr: 0x3770, symSize: 0x30 }
  - { offset: 0x57757, size: 0x8, addend: 0x0, symName: __ZNSt3__116allocator_traitsINS_9allocatorINS_3mapINS_12basic_stringIcNS_11char_traitsIcEENS1_IcEEEEN8nlohmann16json_abi_v3_11_210basic_jsonIS2_NS_6vectorES7_bxydS1_NS9_14adl_serializerENSB_IhNS1_IhEEEEEENS_4lessIvEENS1_INS_4pairIKS7_SF_EEEEEEEEE10deallocateB8de180100ERSN_PSM_m, symObjAddr: 0x1FC0, symBinAddr: 0x37A0, symSize: 0x30 }
  - { offset: 0x577B5, size: 0x8, addend: 0x0, symName: __ZNSt3__19allocatorINS_6vectorIN8nlohmann16json_abi_v3_11_210basic_jsonINS_3mapES1_NS_12basic_stringIcNS_11char_traitsIcEENS0_IcEEEEbxydS0_NS3_14adl_serializerENS1_IhNS0_IhEEEEEENS0_ISE_EEEEEC1B8de180100Ev, symObjAddr: 0x1FF0, symBinAddr: 0x37D0, symSize: 0x20 }
  - { offset: 0x577E5, size: 0x8, addend: 0x0, symName: __ZNSt3__116allocator_traitsINS_9allocatorINS_6vectorIN8nlohmann16json_abi_v3_11_210basic_jsonINS_3mapES2_NS_12basic_stringIcNS_11char_traitsIcEENS1_IcEEEEbxydS1_NS4_14adl_serializerENS2_IhNS1_IhEEEEEENS1_ISF_EEEEEEE7destroyB8de180100ISH_vEEvRSI_PT_, symObjAddr: 0x2010, symBinAddr: 0x37F0, symSize: 0x30 }
  - { offset: 0x57825, size: 0x8, addend: 0x0, symName: __ZNSt3__116allocator_traitsINS_9allocatorINS_6vectorIN8nlohmann16json_abi_v3_11_210basic_jsonINS_3mapES2_NS_12basic_stringIcNS_11char_traitsIcEENS1_IcEEEEbxydS1_NS4_14adl_serializerENS2_IhNS1_IhEEEEEENS1_ISF_EEEEEEE10deallocateB8de180100ERSI_PSH_m, symObjAddr: 0x2040, symBinAddr: 0x3820, symSize: 0x30 }
  - { offset: 0x5786A, size: 0x8, addend: 0x0, symName: __ZNSt3__19allocatorINS_12basic_stringIcNS_11char_traitsIcEENS0_IcEEEEEC1B8de180100Ev, symObjAddr: 0x2070, symBinAddr: 0x3850, symSize: 0x20 }
  - { offset: 0x57894, size: 0x8, addend: 0x0, symName: __ZNSt3__116allocator_traitsINS_9allocatorINS_12basic_stringIcNS_11char_traitsIcEENS1_IcEEEEEEE7destroyB8de180100IS6_vEEvRS7_PT_, symObjAddr: 0x2090, symBinAddr: 0x3870, symSize: 0x30 }
  - { offset: 0x578D4, size: 0x8, addend: 0x0, symName: __ZNSt3__116allocator_traitsINS_9allocatorINS_12basic_stringIcNS_11char_traitsIcEENS1_IcEEEEEEE10deallocateB8de180100ERS7_PS6_m, symObjAddr: 0x20C0, symBinAddr: 0x38A0, symSize: 0x30 }
  - { offset: 0x5793D, size: 0x8, addend: 0x0, symName: __ZNSt3__19allocatorIN8nlohmann16json_abi_v3_11_227byte_container_with_subtypeINS_6vectorIhNS0_IhEEEEEEEC1B8de180100Ev, symObjAddr: 0x20F0, symBinAddr: 0x38D0, symSize: 0x20 }
  - { offset: 0x5796D, size: 0x8, addend: 0x0, symName: __ZNSt3__116allocator_traitsINS_9allocatorIN8nlohmann16json_abi_v3_11_227byte_container_with_subtypeINS_6vectorIhNS1_IhEEEEEEEEE7destroyB8de180100IS8_vEEvRS9_PT_, symObjAddr: 0x2110, symBinAddr: 0x38F0, symSize: 0x30 }
  - { offset: 0x579AD, size: 0x8, addend: 0x0, symName: __ZNSt3__116allocator_traitsINS_9allocatorIN8nlohmann16json_abi_v3_11_227byte_container_with_subtypeINS_6vectorIhNS1_IhEEEEEEEEE10deallocateB8de180100ERS9_PS8_m, symObjAddr: 0x2140, symBinAddr: 0x3920, symSize: 0x30 }
  - { offset: 0x579F2, size: 0x8, addend: 0x0, symName: __ZNSt3__16vectorIN8nlohmann16json_abi_v3_11_210basic_jsonINS_3mapES0_NS_12basic_stringIcNS_11char_traitsIcEENS_9allocatorIcEEEEbxydS8_NS2_14adl_serializerENS0_IhNS8_IhEEEEEENS8_ISE_EEEC2B8de180100Ev, symObjAddr: 0x2170, symBinAddr: 0x3950, symSize: 0x50 }
  - { offset: 0x57A28, size: 0x8, addend: 0x0, symName: __ZNSt3__117__compressed_pairIPN8nlohmann16json_abi_v3_11_210basic_jsonINS_3mapENS_6vectorENS_12basic_stringIcNS_11char_traitsIcEENS_9allocatorIcEEEEbxydS9_NS2_14adl_serializerENS5_IhNS9_IhEEEEEENS9_ISF_EEEC1B8de180100IDnNS_18__default_init_tagEEEOT_OT0_, symObjAddr: 0x21C0, symBinAddr: 0x39A0, symSize: 0x30 }
  - { offset: 0x57A82, size: 0x8, addend: 0x0, symName: __ZNSt3__117__compressed_pairIPN8nlohmann16json_abi_v3_11_210basic_jsonINS_3mapENS_6vectorENS_12basic_stringIcNS_11char_traitsIcEENS_9allocatorIcEEEEbxydS9_NS2_14adl_serializerENS5_IhNS9_IhEEEEEENS9_ISF_EEEC2B8de180100IDnNS_18__default_init_tagEEEOT_OT0_, symObjAddr: 0x21F0, symBinAddr: 0x39D0, symSize: 0x40 }
  - { offset: 0x57ADC, size: 0x8, addend: 0x0, symName: __ZNSt3__122__compressed_pair_elemIPN8nlohmann16json_abi_v3_11_210basic_jsonINS_3mapENS_6vectorENS_12basic_stringIcNS_11char_traitsIcEENS_9allocatorIcEEEEbxydS9_NS2_14adl_serializerENS5_IhNS9_IhEEEEEELi0ELb0EEC2B8de180100IDnvEEOT_, symObjAddr: 0x2230, symBinAddr: 0x3A10, symSize: 0x20 }
  - { offset: 0x57B20, size: 0x8, addend: 0x0, symName: __ZNSt3__122__compressed_pair_elemINS_9allocatorIN8nlohmann16json_abi_v3_11_210basic_jsonINS_3mapENS_6vectorENS_12basic_stringIcNS_11char_traitsIcEENS1_IcEEEEbxydS1_NS3_14adl_serializerENS6_IhNS1_IhEEEEEEEELi1ELb1EEC2B8de180100ENS_18__default_init_tagE, symObjAddr: 0x2250, symBinAddr: 0x3A30, symSize: 0x20 }
  - { offset: 0x57B55, size: 0x8, addend: 0x0, symName: __ZNSt3__19allocatorIN8nlohmann16json_abi_v3_11_210basic_jsonINS_3mapENS_6vectorENS_12basic_stringIcNS_11char_traitsIcEENS0_IcEEEEbxydS0_NS2_14adl_serializerENS5_IhNS0_IhEEEEEEEC2B8de180100Ev, symObjAddr: 0x2270, symBinAddr: 0x3A50, symSize: 0x20 }
  - { offset: 0x57B7F, size: 0x8, addend: 0x0, symName: __ZNSt3__116__non_trivial_ifILb1ENS_9allocatorIN8nlohmann16json_abi_v3_11_210basic_jsonINS_3mapENS_6vectorENS_12basic_stringIcNS_11char_traitsIcEENS1_IcEEEEbxydS1_NS3_14adl_serializerENS6_IhNS1_IhEEEEEEEEEC2B8de180100Ev, symObjAddr: 0x2290, symBinAddr: 0x3A70, symSize: 0x10 }
  - { offset: 0x57BA9, size: 0x8, addend: 0x0, symName: __ZNKSt3__16vectorIN8nlohmann16json_abi_v3_11_210basic_jsonINS_3mapES0_NS_12basic_stringIcNS_11char_traitsIcEENS_9allocatorIcEEEEbxydS8_NS2_14adl_serializerENS0_IhNS8_IhEEEEEENS8_ISE_EEE8capacityB8de180100Ev, symObjAddr: 0x22A0, symBinAddr: 0x3A80, symSize: 0x30 }
  - { offset: 0x57BCF, size: 0x8, addend: 0x0, symName: __ZNKSt3__16vectorIN8nlohmann16json_abi_v3_11_210basic_jsonINS_3mapES0_NS_12basic_stringIcNS_11char_traitsIcEENS_9allocatorIcEEEEbxydS8_NS2_14adl_serializerENS0_IhNS8_IhEEEEEENS8_ISE_EEE8max_sizeEv, symObjAddr: 0x22D0, symBinAddr: 0x3AB0, symSize: 0x60 }
  - { offset: 0x57BF7, size: 0x8, addend: 0x0, symName: __ZNKSt3__16vectorIN8nlohmann16json_abi_v3_11_210basic_jsonINS_3mapES0_NS_12basic_stringIcNS_11char_traitsIcEENS_9allocatorIcEEEEbxydS8_NS2_14adl_serializerENS0_IhNS8_IhEEEEEENS8_ISE_EEE20__throw_length_errorB8de180100Ev, symObjAddr: 0x2330, symBinAddr: 0x3B10, symSize: 0x20 }
  - { offset: 0x57C1D, size: 0x8, addend: 0x0, symName: __ZNSt3__16vectorIN8nlohmann16json_abi_v3_11_210basic_jsonINS_3mapES0_NS_12basic_stringIcNS_11char_traitsIcEENS_9allocatorIcEEEEbxydS8_NS2_14adl_serializerENS0_IhNS8_IhEEEEEENS8_ISE_EEE7__allocB8de180100Ev, symObjAddr: 0x2350, symBinAddr: 0x3B30, symSize: 0x20 }
  - { offset: 0x57C43, size: 0x8, addend: 0x0, symName: __ZNSt3__114__split_bufferIN8nlohmann16json_abi_v3_11_210basic_jsonINS_3mapENS_6vectorENS_12basic_stringIcNS_11char_traitsIcEENS_9allocatorIcEEEEbxydS9_NS2_14adl_serializerENS5_IhNS9_IhEEEEEERNS9_ISF_EEEC1EmmSH_, symObjAddr: 0x2370, symBinAddr: 0x3B50, symSize: 0x40 }
  - { offset: 0x57C9C, size: 0x8, addend: 0x0, symName: __ZNSt3__114__split_bufferIN8nlohmann16json_abi_v3_11_210basic_jsonINS_3mapENS_6vectorENS_12basic_stringIcNS_11char_traitsIcEENS_9allocatorIcEEEEbxydS9_NS2_14adl_serializerENS5_IhNS9_IhEEEEEERNS9_ISF_EEED1Ev, symObjAddr: 0x24D0, symBinAddr: 0x3CB0, symSize: 0x20 }
  - { offset: 0x57CC8, size: 0x8, addend: 0x0, symName: __ZNKSt3__16vectorIN8nlohmann16json_abi_v3_11_210basic_jsonINS_3mapES0_NS_12basic_stringIcNS_11char_traitsIcEENS_9allocatorIcEEEEbxydS8_NS2_14adl_serializerENS0_IhNS8_IhEEEEEENS8_ISE_EEE9__end_capB8de180100Ev, symObjAddr: 0x24F0, symBinAddr: 0x3CD0, symSize: 0x20 }
  - { offset: 0x57CEE, size: 0x8, addend: 0x0, symName: __ZNKSt3__117__compressed_pairIPN8nlohmann16json_abi_v3_11_210basic_jsonINS_3mapENS_6vectorENS_12basic_stringIcNS_11char_traitsIcEENS_9allocatorIcEEEEbxydS9_NS2_14adl_serializerENS5_IhNS9_IhEEEEEENS9_ISF_EEE5firstB8de180100Ev, symObjAddr: 0x2510, symBinAddr: 0x3CF0, symSize: 0x20 }
  - { offset: 0x57D14, size: 0x8, addend: 0x0, symName: __ZNKSt3__122__compressed_pair_elemIPN8nlohmann16json_abi_v3_11_210basic_jsonINS_3mapENS_6vectorENS_12basic_stringIcNS_11char_traitsIcEENS_9allocatorIcEEEEbxydS9_NS2_14adl_serializerENS5_IhNS9_IhEEEEEELi0ELb0EE5__getB8de180100Ev, symObjAddr: 0x2530, symBinAddr: 0x3D10, symSize: 0x10 }
  - { offset: 0x57D45, size: 0x8, addend: 0x0, symName: __ZNSt3__116allocator_traitsINS_9allocatorIN8nlohmann16json_abi_v3_11_210basic_jsonINS_3mapENS_6vectorENS_12basic_stringIcNS_11char_traitsIcEENS1_IcEEEEbxydS1_NS3_14adl_serializerENS6_IhNS1_IhEEEEEEEEE8max_sizeB8de180100ISG_vEEmRKSG_, symObjAddr: 0x2570, symBinAddr: 0x3D50, symSize: 0x20 }
  - { offset: 0x57D75, size: 0x8, addend: 0x0, symName: __ZNKSt3__16vectorIN8nlohmann16json_abi_v3_11_210basic_jsonINS_3mapES0_NS_12basic_stringIcNS_11char_traitsIcEENS_9allocatorIcEEEEbxydS8_NS2_14adl_serializerENS0_IhNS8_IhEEEEEENS8_ISE_EEE7__allocB8de180100Ev, symObjAddr: 0x2590, symBinAddr: 0x3D70, symSize: 0x20 }
  - { offset: 0x57D9B, size: 0x8, addend: 0x0, symName: __ZNSt3__114numeric_limitsIlE3maxB8de180100Ev, symObjAddr: 0x25B0, symBinAddr: 0x3D90, symSize: 0x10 }
  - { offset: 0x57DB9, size: 0x8, addend: 0x0, symName: __ZNKSt3__16__lessIvvEclB8de180100ImmEEbRKT_RKT0_, symObjAddr: 0x2610, symBinAddr: 0x3DF0, symSize: 0x30 }
  - { offset: 0x57E0F, size: 0x8, addend: 0x0, symName: __ZNKSt3__19allocatorIN8nlohmann16json_abi_v3_11_210basic_jsonINS_3mapENS_6vectorENS_12basic_stringIcNS_11char_traitsIcEENS0_IcEEEEbxydS0_NS2_14adl_serializerENS5_IhNS0_IhEEEEEEE8max_sizeB8de180100Ev, symObjAddr: 0x2640, symBinAddr: 0x3E20, symSize: 0x20 }
  - { offset: 0x57E35, size: 0x8, addend: 0x0, symName: __ZNKSt3__117__compressed_pairIPN8nlohmann16json_abi_v3_11_210basic_jsonINS_3mapENS_6vectorENS_12basic_stringIcNS_11char_traitsIcEENS_9allocatorIcEEEEbxydS9_NS2_14adl_serializerENS5_IhNS9_IhEEEEEENS9_ISF_EEE6secondB8de180100Ev, symObjAddr: 0x2660, symBinAddr: 0x3E40, symSize: 0x20 }
  - { offset: 0x57E5B, size: 0x8, addend: 0x0, symName: __ZNKSt3__122__compressed_pair_elemINS_9allocatorIN8nlohmann16json_abi_v3_11_210basic_jsonINS_3mapENS_6vectorENS_12basic_stringIcNS_11char_traitsIcEENS1_IcEEEEbxydS1_NS3_14adl_serializerENS6_IhNS1_IhEEEEEEEELi1ELb1EE5__getB8de180100Ev, symObjAddr: 0x2680, symBinAddr: 0x3E60, symSize: 0x10 }
  - { offset: 0x57E81, size: 0x8, addend: 0x0, symName: __ZNSt3__123__libcpp_numeric_limitsIlLb1EE3maxB8de180100Ev, symObjAddr: 0x2690, symBinAddr: 0x3E70, symSize: 0x10 }
  - { offset: 0x57E95, size: 0x8, addend: 0x0, symName: __ZNSt12length_errorC1B8de180100EPKc, symObjAddr: 0x2710, symBinAddr: 0x3EF0, symSize: 0x30 }
  - { offset: 0x57ECE, size: 0x8, addend: 0x0, symName: __ZNSt12length_errorC2B8de180100EPKc, symObjAddr: 0x2740, symBinAddr: 0x3F20, symSize: 0x40 }
  - { offset: 0x57F07, size: 0x8, addend: 0x0, symName: __ZNSt3__117__compressed_pairIPN8nlohmann16json_abi_v3_11_210basic_jsonINS_3mapENS_6vectorENS_12basic_stringIcNS_11char_traitsIcEENS_9allocatorIcEEEEbxydS9_NS2_14adl_serializerENS5_IhNS9_IhEEEEEENS9_ISF_EEE6secondB8de180100Ev, symObjAddr: 0x2780, symBinAddr: 0x3F60, symSize: 0x20 }
  - { offset: 0x57F2D, size: 0x8, addend: 0x0, symName: __ZNSt3__122__compressed_pair_elemINS_9allocatorIN8nlohmann16json_abi_v3_11_210basic_jsonINS_3mapENS_6vectorENS_12basic_stringIcNS_11char_traitsIcEENS1_IcEEEEbxydS1_NS3_14adl_serializerENS6_IhNS1_IhEEEEEEEELi1ELb1EE5__getB8de180100Ev, symObjAddr: 0x27A0, symBinAddr: 0x3F80, symSize: 0x10 }
  - { offset: 0x57F53, size: 0x8, addend: 0x0, symName: __ZNSt3__114__split_bufferIN8nlohmann16json_abi_v3_11_210basic_jsonINS_3mapENS_6vectorENS_12basic_stringIcNS_11char_traitsIcEENS_9allocatorIcEEEEbxydS9_NS2_14adl_serializerENS5_IhNS9_IhEEEEEERNS9_ISF_EEEC2EmmSH_, symObjAddr: 0x27B0, symBinAddr: 0x3F90, symSize: 0xD0 }
  - { offset: 0x57FCB, size: 0x8, addend: 0x0, symName: __ZNSt3__117__compressed_pairIPN8nlohmann16json_abi_v3_11_210basic_jsonINS_3mapENS_6vectorENS_12basic_stringIcNS_11char_traitsIcEENS_9allocatorIcEEEEbxydS9_NS2_14adl_serializerENS5_IhNS9_IhEEEEEERNS9_ISF_EEEC1B8de180100IDnSI_EEOT_OT0_, symObjAddr: 0x2880, symBinAddr: 0x4060, symSize: 0x30 }
  - { offset: 0x58025, size: 0x8, addend: 0x0, symName: __ZNSt3__114__split_bufferIN8nlohmann16json_abi_v3_11_210basic_jsonINS_3mapENS_6vectorENS_12basic_stringIcNS_11char_traitsIcEENS_9allocatorIcEEEEbxydS9_NS2_14adl_serializerENS5_IhNS9_IhEEEEEERNS9_ISF_EEE7__allocB8de180100Ev, symObjAddr: 0x28F0, symBinAddr: 0x40D0, symSize: 0x20 }
  - { offset: 0x5804B, size: 0x8, addend: 0x0, symName: __ZNSt3__114__split_bufferIN8nlohmann16json_abi_v3_11_210basic_jsonINS_3mapENS_6vectorENS_12basic_stringIcNS_11char_traitsIcEENS_9allocatorIcEEEEbxydS9_NS2_14adl_serializerENS5_IhNS9_IhEEEEEERNS9_ISF_EEE9__end_capB8de180100Ev, symObjAddr: 0x2910, symBinAddr: 0x40F0, symSize: 0x20 }
  - { offset: 0x58071, size: 0x8, addend: 0x0, symName: __ZNSt3__117__compressed_pairIPN8nlohmann16json_abi_v3_11_210basic_jsonINS_3mapENS_6vectorENS_12basic_stringIcNS_11char_traitsIcEENS_9allocatorIcEEEEbxydS9_NS2_14adl_serializerENS5_IhNS9_IhEEEEEERNS9_ISF_EEEC2B8de180100IDnSI_EEOT_OT0_, symObjAddr: 0x2930, symBinAddr: 0x4110, symSize: 0x40 }
  - { offset: 0x580CB, size: 0x8, addend: 0x0, symName: __ZNSt3__122__compressed_pair_elemIRNS_9allocatorIN8nlohmann16json_abi_v3_11_210basic_jsonINS_3mapENS_6vectorENS_12basic_stringIcNS_11char_traitsIcEENS1_IcEEEEbxydS1_NS3_14adl_serializerENS6_IhNS1_IhEEEEEEEELi1ELb0EEC2B8de180100ISH_vEEOT_, symObjAddr: 0x2970, symBinAddr: 0x4150, symSize: 0x20 }
  - { offset: 0x5810F, size: 0x8, addend: 0x0, symName: __ZNSt3__19allocatorIN8nlohmann16json_abi_v3_11_210basic_jsonINS_3mapENS_6vectorENS_12basic_stringIcNS_11char_traitsIcEENS0_IcEEEEbxydS0_NS2_14adl_serializerENS5_IhNS0_IhEEEEEEE8allocateB8de180100Em, symObjAddr: 0x2990, symBinAddr: 0x4170, symSize: 0x50 }
  - { offset: 0x58144, size: 0x8, addend: 0x0, symName: __ZNSt3__117__compressed_pairIPN8nlohmann16json_abi_v3_11_210basic_jsonINS_3mapENS_6vectorENS_12basic_stringIcNS_11char_traitsIcEENS_9allocatorIcEEEEbxydS9_NS2_14adl_serializerENS5_IhNS9_IhEEEEEERNS9_ISF_EEE6secondB8de180100Ev, symObjAddr: 0x2AF0, symBinAddr: 0x42D0, symSize: 0x20 }
  - { offset: 0x5816A, size: 0x8, addend: 0x0, symName: __ZNSt3__122__compressed_pair_elemIRNS_9allocatorIN8nlohmann16json_abi_v3_11_210basic_jsonINS_3mapENS_6vectorENS_12basic_stringIcNS_11char_traitsIcEENS1_IcEEEEbxydS1_NS3_14adl_serializerENS6_IhNS1_IhEEEEEEEELi1ELb0EE5__getB8de180100Ev, symObjAddr: 0x2B10, symBinAddr: 0x42F0, symSize: 0x20 }
  - { offset: 0x58190, size: 0x8, addend: 0x0, symName: __ZNSt3__117__compressed_pairIPN8nlohmann16json_abi_v3_11_210basic_jsonINS_3mapENS_6vectorENS_12basic_stringIcNS_11char_traitsIcEENS_9allocatorIcEEEEbxydS9_NS2_14adl_serializerENS5_IhNS9_IhEEEEEERNS9_ISF_EEE5firstB8de180100Ev, symObjAddr: 0x2B30, symBinAddr: 0x4310, symSize: 0x20 }
  - { offset: 0x581B6, size: 0x8, addend: 0x0, symName: __ZNSt3__122__compressed_pair_elemIPN8nlohmann16json_abi_v3_11_210basic_jsonINS_3mapENS_6vectorENS_12basic_stringIcNS_11char_traitsIcEENS_9allocatorIcEEEEbxydS9_NS2_14adl_serializerENS5_IhNS9_IhEEEEEELi0ELb0EE5__getB8de180100Ev, symObjAddr: 0x2B50, symBinAddr: 0x4330, symSize: 0x10 }
  - { offset: 0x581DC, size: 0x8, addend: 0x0, symName: __ZNKSt3__16vectorIN8nlohmann16json_abi_v3_11_210basic_jsonINS_3mapES0_NS_12basic_stringIcNS_11char_traitsIcEENS_9allocatorIcEEEEbxydS8_NS2_14adl_serializerENS0_IhNS8_IhEEEEEENS8_ISE_EEE17__annotate_deleteB8de180100Ev, symObjAddr: 0x2B60, symBinAddr: 0x4340, symSize: 0x10 }
  - { offset: 0x58202, size: 0x8, addend: 0x0, symName: __ZNSt3__116reverse_iteratorIPN8nlohmann16json_abi_v3_11_210basic_jsonINS_3mapENS_6vectorENS_12basic_stringIcNS_11char_traitsIcEENS_9allocatorIcEEEEbxydS9_NS2_14adl_serializerENS5_IhNS9_IhEEEEEEEC1B8de180100ESG_, symObjAddr: 0x2CF0, symBinAddr: 0x44D0, symSize: 0x30 }
  - { offset: 0x5823B, size: 0x8, addend: 0x0, symName: __ZNKSt3__116reverse_iteratorIPN8nlohmann16json_abi_v3_11_210basic_jsonINS_3mapENS_6vectorENS_12basic_stringIcNS_11char_traitsIcEENS_9allocatorIcEEEEbxydS9_NS2_14adl_serializerENS5_IhNS9_IhEEEEEEE4baseB8de180100Ev, symObjAddr: 0x2D20, symBinAddr: 0x4500, symSize: 0x20 }
  - { offset: 0x58261, size: 0x8, addend: 0x0, symName: __ZNSt3__16vectorIN8nlohmann16json_abi_v3_11_210basic_jsonINS_3mapES0_NS_12basic_stringIcNS_11char_traitsIcEENS_9allocatorIcEEEEbxydS8_NS2_14adl_serializerENS0_IhNS8_IhEEEEEENS8_ISE_EEE9__end_capB8de180100Ev, symObjAddr: 0x2D80, symBinAddr: 0x4560, symSize: 0x20 }
  - { offset: 0x58287, size: 0x8, addend: 0x0, symName: __ZNKSt3__16vectorIN8nlohmann16json_abi_v3_11_210basic_jsonINS_3mapES0_NS_12basic_stringIcNS_11char_traitsIcEENS_9allocatorIcEEEEbxydS8_NS2_14adl_serializerENS0_IhNS8_IhEEEEEENS8_ISE_EEE14__annotate_newB8de180100Em, symObjAddr: 0x2DA0, symBinAddr: 0x4580, symSize: 0x10 }
  - { offset: 0x582BD, size: 0x8, addend: 0x0, symName: __ZNSt3__129_AllocatorDestroyRangeReverseINS_9allocatorIN8nlohmann16json_abi_v3_11_210basic_jsonINS_3mapENS_6vectorENS_12basic_stringIcNS_11char_traitsIcEENS1_IcEEEEbxydS1_NS3_14adl_serializerENS6_IhNS1_IhEEEEEEEENS_16reverse_iteratorIPSF_EEEC1B8de180100ERSG_RSJ_SM_, symObjAddr: 0x2E10, symBinAddr: 0x45F0, symSize: 0x40 }
  - { offset: 0x58317, size: 0x8, addend: 0x0, symName: __ZNSt3__116allocator_traitsINS_9allocatorIN8nlohmann16json_abi_v3_11_210basic_jsonINS_3mapENS_6vectorENS_12basic_stringIcNS_11char_traitsIcEENS1_IcEEEEbxydS1_NS3_14adl_serializerENS6_IhNS1_IhEEEEEEEEE9constructB8de180100ISF_JSF_EvEEvRSG_PT_DpOT0_, symObjAddr: 0x2E90, symBinAddr: 0x4670, symSize: 0x30 }
  - { offset: 0x58374, size: 0x8, addend: 0x0, symName: __ZNKSt3__116reverse_iteratorIPN8nlohmann16json_abi_v3_11_210basic_jsonINS_3mapENS_6vectorENS_12basic_stringIcNS_11char_traitsIcEENS_9allocatorIcEEEEbxydS9_NS2_14adl_serializerENS5_IhNS9_IhEEEEEEEdeB8de180100Ev, symObjAddr: 0x2EE0, symBinAddr: 0x46C0, symSize: 0x30 }
  - { offset: 0x583A9, size: 0x8, addend: 0x0, symName: __ZNSt3__116reverse_iteratorIPN8nlohmann16json_abi_v3_11_210basic_jsonINS_3mapENS_6vectorENS_12basic_stringIcNS_11char_traitsIcEENS_9allocatorIcEEEEbxydS9_NS2_14adl_serializerENS5_IhNS9_IhEEEEEEEppB8de180100Ev, symObjAddr: 0x2F10, symBinAddr: 0x46F0, symSize: 0x20 }
  - { offset: 0x583CF, size: 0x8, addend: 0x0, symName: __ZNSt3__128__exception_guard_exceptionsINS_29_AllocatorDestroyRangeReverseINS_9allocatorIN8nlohmann16json_abi_v3_11_210basic_jsonINS_3mapENS_6vectorENS_12basic_stringIcNS_11char_traitsIcEENS2_IcEEEEbxydS2_NS4_14adl_serializerENS7_IhNS2_IhEEEEEEEENS_16reverse_iteratorIPSG_EEEEE10__completeB8de180100Ev, symObjAddr: 0x2F30, symBinAddr: 0x4710, symSize: 0x20 }
  - { offset: 0x583F5, size: 0x8, addend: 0x0, symName: __ZNSt3__128__exception_guard_exceptionsINS_29_AllocatorDestroyRangeReverseINS_9allocatorIN8nlohmann16json_abi_v3_11_210basic_jsonINS_3mapENS_6vectorENS_12basic_stringIcNS_11char_traitsIcEENS2_IcEEEEbxydS2_NS4_14adl_serializerENS7_IhNS2_IhEEEEEEEENS_16reverse_iteratorIPSG_EEEEED1B8de180100Ev, symObjAddr: 0x2F50, symBinAddr: 0x4730, symSize: 0x20 }
  - { offset: 0x5841F, size: 0x8, addend: 0x0, symName: __ZNSt3__128__exception_guard_exceptionsINS_29_AllocatorDestroyRangeReverseINS_9allocatorIN8nlohmann16json_abi_v3_11_210basic_jsonINS_3mapENS_6vectorENS_12basic_stringIcNS_11char_traitsIcEENS2_IcEEEEbxydS2_NS4_14adl_serializerENS7_IhNS2_IhEEEEEEEENS_16reverse_iteratorIPSG_EEEEEC1B8de180100ESL_, symObjAddr: 0x2F70, symBinAddr: 0x4750, symSize: 0x40 }
  - { offset: 0x58458, size: 0x8, addend: 0x0, symName: __ZNSt3__128__exception_guard_exceptionsINS_29_AllocatorDestroyRangeReverseINS_9allocatorIN8nlohmann16json_abi_v3_11_210basic_jsonINS_3mapENS_6vectorENS_12basic_stringIcNS_11char_traitsIcEENS2_IcEEEEbxydS2_NS4_14adl_serializerENS7_IhNS2_IhEEEEEEEENS_16reverse_iteratorIPSG_EEEEEC2B8de180100ESL_, symObjAddr: 0x2FB0, symBinAddr: 0x4790, symSize: 0x30 }
  - { offset: 0x58491, size: 0x8, addend: 0x0, symName: __ZNSt3__129_AllocatorDestroyRangeReverseINS_9allocatorIN8nlohmann16json_abi_v3_11_210basic_jsonINS_3mapENS_6vectorENS_12basic_stringIcNS_11char_traitsIcEENS1_IcEEEEbxydS1_NS3_14adl_serializerENS6_IhNS1_IhEEEEEEEENS_16reverse_iteratorIPSF_EEEC2B8de180100ERSG_RSJ_SM_, symObjAddr: 0x2FE0, symBinAddr: 0x47C0, symSize: 0x40 }
  - { offset: 0x584EB, size: 0x8, addend: 0x0, symName: __ZNSt3__19allocatorIN8nlohmann16json_abi_v3_11_210basic_jsonINS_3mapENS_6vectorENS_12basic_stringIcNS_11char_traitsIcEENS0_IcEEEEbxydS0_NS2_14adl_serializerENS5_IhNS0_IhEEEEEEE9constructB8de180100ISE_JSE_EEEvPT_DpOT0_, symObjAddr: 0x3020, symBinAddr: 0x4800, symSize: 0x30 }
  - { offset: 0x5854B, size: 0x8, addend: 0x0, symName: __ZNSt3__119__to_address_helperINS_16reverse_iteratorIPN8nlohmann16json_abi_v3_11_210basic_jsonINS_3mapENS_6vectorENS_12basic_stringIcNS_11char_traitsIcEENS_9allocatorIcEEEEbxydSA_NS3_14adl_serializerENS6_IhNSA_IhEEEEEEEEvE6__callB8de180100ERKSI_, symObjAddr: 0x3050, symBinAddr: 0x4830, symSize: 0x40 }
  - { offset: 0x5856F, size: 0x8, addend: 0x0, symName: __ZNKSt3__116reverse_iteratorIPN8nlohmann16json_abi_v3_11_210basic_jsonINS_3mapENS_6vectorENS_12basic_stringIcNS_11char_traitsIcEENS_9allocatorIcEEEEbxydS9_NS2_14adl_serializerENS5_IhNS9_IhEEEEEEEptB8de180100Ev, symObjAddr: 0x30A0, symBinAddr: 0x4880, symSize: 0x20 }
  - { offset: 0x58595, size: 0x8, addend: 0x0, symName: __ZNSt3__128__exception_guard_exceptionsINS_29_AllocatorDestroyRangeReverseINS_9allocatorIN8nlohmann16json_abi_v3_11_210basic_jsonINS_3mapENS_6vectorENS_12basic_stringIcNS_11char_traitsIcEENS2_IcEEEEbxydS2_NS4_14adl_serializerENS7_IhNS2_IhEEEEEEEENS_16reverse_iteratorIPSG_EEEEED2B8de180100Ev, symObjAddr: 0x30C0, symBinAddr: 0x48A0, symSize: 0x40 }
  - { offset: 0x585BF, size: 0x8, addend: 0x0, symName: __ZNKSt3__129_AllocatorDestroyRangeReverseINS_9allocatorIN8nlohmann16json_abi_v3_11_210basic_jsonINS_3mapENS_6vectorENS_12basic_stringIcNS_11char_traitsIcEENS1_IcEEEEbxydS1_NS3_14adl_serializerENS6_IhNS1_IhEEEEEEEENS_16reverse_iteratorIPSF_EEEclB8de180100Ev, symObjAddr: 0x3100, symBinAddr: 0x48E0, symSize: 0xF0 }
  - { offset: 0x585E6, size: 0x8, addend: 0x0, symName: __ZNSt3__116reverse_iteratorINS0_IPN8nlohmann16json_abi_v3_11_210basic_jsonINS_3mapENS_6vectorENS_12basic_stringIcNS_11char_traitsIcEENS_9allocatorIcEEEEbxydS9_NS2_14adl_serializerENS5_IhNS9_IhEEEEEEEEEC1B8de180100ESH_, symObjAddr: 0x3260, symBinAddr: 0x4A40, symSize: 0x30 }
  - { offset: 0x5861F, size: 0x8, addend: 0x0, symName: __ZNSt3__116allocator_traitsINS_9allocatorIN8nlohmann16json_abi_v3_11_210basic_jsonINS_3mapENS_6vectorENS_12basic_stringIcNS_11char_traitsIcEENS1_IcEEEEbxydS1_NS3_14adl_serializerENS6_IhNS1_IhEEEEEEEEE7destroyB8de180100ISF_vEEvRSG_PT_, symObjAddr: 0x32E0, symBinAddr: 0x4AC0, symSize: 0x30 }
  - { offset: 0x5865F, size: 0x8, addend: 0x0, symName: __ZNSt3__116reverse_iteratorINS0_IPN8nlohmann16json_abi_v3_11_210basic_jsonINS_3mapENS_6vectorENS_12basic_stringIcNS_11char_traitsIcEENS_9allocatorIcEEEEbxydS9_NS2_14adl_serializerENS5_IhNS9_IhEEEEEEEEEppB8de180100Ev, symObjAddr: 0x3330, symBinAddr: 0x4B10, symSize: 0x30 }
  - { offset: 0x58685, size: 0x8, addend: 0x0, symName: __ZNKSt3__116reverse_iteratorINS0_IPN8nlohmann16json_abi_v3_11_210basic_jsonINS_3mapENS_6vectorENS_12basic_stringIcNS_11char_traitsIcEENS_9allocatorIcEEEEbxydS9_NS2_14adl_serializerENS5_IhNS9_IhEEEEEEEEE4baseB8de180100Ev, symObjAddr: 0x3360, symBinAddr: 0x4B40, symSize: 0x20 }
  - { offset: 0x586AB, size: 0x8, addend: 0x0, symName: __ZNSt3__19allocatorIN8nlohmann16json_abi_v3_11_210basic_jsonINS_3mapENS_6vectorENS_12basic_stringIcNS_11char_traitsIcEENS0_IcEEEEbxydS0_NS2_14adl_serializerENS5_IhNS0_IhEEEEEEE7destroyB8de180100EPSE_, symObjAddr: 0x3380, symBinAddr: 0x4B60, symSize: 0x20 }
  - { offset: 0x586E6, size: 0x8, addend: 0x0, symName: __ZNSt3__119__to_address_helperINS_16reverse_iteratorINS1_IPN8nlohmann16json_abi_v3_11_210basic_jsonINS_3mapENS_6vectorENS_12basic_stringIcNS_11char_traitsIcEENS_9allocatorIcEEEEbxydSA_NS3_14adl_serializerENS6_IhNSA_IhEEEEEEEEEEvE6__callB8de180100ERKSJ_, symObjAddr: 0x33A0, symBinAddr: 0x4B80, symSize: 0x40 }
  - { offset: 0x5870A, size: 0x8, addend: 0x0, symName: __ZNKSt3__116reverse_iteratorINS0_IPN8nlohmann16json_abi_v3_11_210basic_jsonINS_3mapENS_6vectorENS_12basic_stringIcNS_11char_traitsIcEENS_9allocatorIcEEEEbxydS9_NS2_14adl_serializerENS5_IhNS9_IhEEEEEEEEEptB8de180100Ev, symObjAddr: 0x33E0, symBinAddr: 0x4BC0, symSize: 0x20 }
  - { offset: 0x58730, size: 0x8, addend: 0x0, symName: __ZNKSt3__116reverse_iteratorINS0_IPN8nlohmann16json_abi_v3_11_210basic_jsonINS_3mapENS_6vectorENS_12basic_stringIcNS_11char_traitsIcEENS_9allocatorIcEEEEbxydS9_NS2_14adl_serializerENS5_IhNS9_IhEEEEEEEEEdeB8de180100Ev, symObjAddr: 0x3400, symBinAddr: 0x4BE0, symSize: 0x40 }
  - { offset: 0x58765, size: 0x8, addend: 0x0, symName: __ZNSt3__116reverse_iteratorIPN8nlohmann16json_abi_v3_11_210basic_jsonINS_3mapENS_6vectorENS_12basic_stringIcNS_11char_traitsIcEENS_9allocatorIcEEEEbxydS9_NS2_14adl_serializerENS5_IhNS9_IhEEEEEEEmmB8de180100Ev, symObjAddr: 0x3440, symBinAddr: 0x4C20, symSize: 0x20 }
  - { offset: 0x5878B, size: 0x8, addend: 0x0, symName: __ZNSt3__116reverse_iteratorINS0_IPN8nlohmann16json_abi_v3_11_210basic_jsonINS_3mapENS_6vectorENS_12basic_stringIcNS_11char_traitsIcEENS_9allocatorIcEEEEbxydS9_NS2_14adl_serializerENS5_IhNS9_IhEEEEEEEEEC2B8de180100ESH_, symObjAddr: 0x3460, symBinAddr: 0x4C40, symSize: 0x40 }
  - { offset: 0x587C4, size: 0x8, addend: 0x0, symName: __ZNSt3__116reverse_iteratorIPN8nlohmann16json_abi_v3_11_210basic_jsonINS_3mapENS_6vectorENS_12basic_stringIcNS_11char_traitsIcEENS_9allocatorIcEEEEbxydS9_NS2_14adl_serializerENS5_IhNS9_IhEEEEEEEC2B8de180100ESG_, symObjAddr: 0x34A0, symBinAddr: 0x4C80, symSize: 0x30 }
  - { offset: 0x587FD, size: 0x8, addend: 0x0, symName: __ZNSt3__117__compressed_pairIPN8nlohmann16json_abi_v3_11_210basic_jsonINS_3mapENS_6vectorENS_12basic_stringIcNS_11char_traitsIcEENS_9allocatorIcEEEEbxydS9_NS2_14adl_serializerENS5_IhNS9_IhEEEEEENS9_ISF_EEE5firstB8de180100Ev, symObjAddr: 0x34D0, symBinAddr: 0x4CB0, symSize: 0x20 }
  - { offset: 0x58823, size: 0x8, addend: 0x0, symName: __ZNSt3__114__split_bufferIN8nlohmann16json_abi_v3_11_210basic_jsonINS_3mapENS_6vectorENS_12basic_stringIcNS_11char_traitsIcEENS_9allocatorIcEEEEbxydS9_NS2_14adl_serializerENS5_IhNS9_IhEEEEEERNS9_ISF_EEED2Ev, symObjAddr: 0x34F0, symBinAddr: 0x4CD0, symSize: 0x70 }
  - { offset: 0x5884F, size: 0x8, addend: 0x0, symName: __ZNSt3__114__split_bufferIN8nlohmann16json_abi_v3_11_210basic_jsonINS_3mapENS_6vectorENS_12basic_stringIcNS_11char_traitsIcEENS_9allocatorIcEEEEbxydS9_NS2_14adl_serializerENS5_IhNS9_IhEEEEEERNS9_ISF_EEE5clearB8de180100Ev, symObjAddr: 0x3560, symBinAddr: 0x4D40, symSize: 0x20 }
  - { offset: 0x58875, size: 0x8, addend: 0x0, symName: __ZNSt3__116allocator_traitsINS_9allocatorIN8nlohmann16json_abi_v3_11_210basic_jsonINS_3mapENS_6vectorENS_12basic_stringIcNS_11char_traitsIcEENS1_IcEEEEbxydS1_NS3_14adl_serializerENS6_IhNS1_IhEEEEEEEEE10deallocateB8de180100ERSG_PSF_m, symObjAddr: 0x3580, symBinAddr: 0x4D60, symSize: 0x30 }
  - { offset: 0x588BA, size: 0x8, addend: 0x0, symName: __ZNKSt3__114__split_bufferIN8nlohmann16json_abi_v3_11_210basic_jsonINS_3mapENS_6vectorENS_12basic_stringIcNS_11char_traitsIcEENS_9allocatorIcEEEEbxydS9_NS2_14adl_serializerENS5_IhNS9_IhEEEEEERNS9_ISF_EEE8capacityB8de180100Ev, symObjAddr: 0x35B0, symBinAddr: 0x4D90, symSize: 0x30 }
  - { offset: 0x588E0, size: 0x8, addend: 0x0, symName: __ZNSt3__114__split_bufferIN8nlohmann16json_abi_v3_11_210basic_jsonINS_3mapENS_6vectorENS_12basic_stringIcNS_11char_traitsIcEENS_9allocatorIcEEEEbxydS9_NS2_14adl_serializerENS5_IhNS9_IhEEEEEERNS9_ISF_EEE17__destruct_at_endB8de180100EPSF_, symObjAddr: 0x35E0, symBinAddr: 0x4DC0, symSize: 0x30 }
  - { offset: 0x58915, size: 0x8, addend: 0x0, symName: __ZNSt3__114__split_bufferIN8nlohmann16json_abi_v3_11_210basic_jsonINS_3mapENS_6vectorENS_12basic_stringIcNS_11char_traitsIcEENS_9allocatorIcEEEEbxydS9_NS2_14adl_serializerENS5_IhNS9_IhEEEEEERNS9_ISF_EEE17__destruct_at_endB8de180100EPSF_NS_17integral_constantIbLb0EEE, symObjAddr: 0x3610, symBinAddr: 0x4DF0, symSize: 0x80 }
  - { offset: 0x58957, size: 0x8, addend: 0x0, symName: __ZNSt3__19allocatorIN8nlohmann16json_abi_v3_11_210basic_jsonINS_3mapENS_6vectorENS_12basic_stringIcNS_11char_traitsIcEENS0_IcEEEEbxydS0_NS2_14adl_serializerENS5_IhNS0_IhEEEEEEE10deallocateB8de180100EPSE_m, symObjAddr: 0x3690, symBinAddr: 0x4E70, symSize: 0x40 }
  - { offset: 0x5899B, size: 0x8, addend: 0x0, symName: __ZNKSt3__114__split_bufferIN8nlohmann16json_abi_v3_11_210basic_jsonINS_3mapENS_6vectorENS_12basic_stringIcNS_11char_traitsIcEENS_9allocatorIcEEEEbxydS9_NS2_14adl_serializerENS5_IhNS9_IhEEEEEERNS9_ISF_EEE9__end_capB8de180100Ev, symObjAddr: 0x37D0, symBinAddr: 0x4FB0, symSize: 0x20 }
  - { offset: 0x589C1, size: 0x8, addend: 0x0, symName: __ZNKSt3__117__compressed_pairIPN8nlohmann16json_abi_v3_11_210basic_jsonINS_3mapENS_6vectorENS_12basic_stringIcNS_11char_traitsIcEENS_9allocatorIcEEEEbxydS9_NS2_14adl_serializerENS5_IhNS9_IhEEEEEERNS9_ISF_EEE5firstB8de180100Ev, symObjAddr: 0x37F0, symBinAddr: 0x4FD0, symSize: 0x20 }
  - { offset: 0x58A0D, size: 0x8, addend: 0x0, symName: __ZNKSt3__111__move_loopINS_17_ClassicAlgPolicyEEclB8de180100IPN8nlohmann16json_abi_v3_11_210basic_jsonINS_3mapENS_6vectorENS_12basic_stringIcNS_11char_traitsIcEENS_9allocatorIcEEEEbxydSC_NS5_14adl_serializerENS8_IhNSC_IhEEEEEESJ_NS_20back_insert_iteratorINS8_ISI_NSC_ISI_EEEEEEEENS_4pairIT_T1_EESP_T0_SQ_, symObjAddr: 0x3A30, symBinAddr: 0x5210, symSize: 0x90 }
  - { offset: 0x58A9D, size: 0x8, addend: 0x0, symName: __ZNSt3__14pairIPN8nlohmann16json_abi_v3_11_210basic_jsonINS_3mapENS_6vectorENS_12basic_stringIcNS_11char_traitsIcEENS_9allocatorIcEEEEbxydS9_NS2_14adl_serializerENS5_IhNS9_IhEEEEEESG_EC1B8de180100ISG_SG_Li0EEEOT_OT0_, symObjAddr: 0x3C10, symBinAddr: 0x53F0, symSize: 0x30 }
  - { offset: 0x58AFE, size: 0x8, addend: 0x0, symName: __ZNSt3__14pairIPN8nlohmann16json_abi_v3_11_210basic_jsonINS_3mapENS_6vectorENS_12basic_stringIcNS_11char_traitsIcEENS_9allocatorIcEEEEbxydS9_NS2_14adl_serializerENS5_IhNS9_IhEEEEEESG_EC2B8de180100ISG_SG_Li0EEEOT_OT0_, symObjAddr: 0x3C40, symBinAddr: 0x5420, symSize: 0x30 }
  - { offset: 0x58B5F, size: 0x8, addend: 0x0, symName: __ZNSt3__118__unwrap_iter_implINS_11__wrap_iterIPN8nlohmann16json_abi_v3_11_210basic_jsonINS_3mapENS_6vectorENS_12basic_stringIcNS_11char_traitsIcEENS_9allocatorIcEEEEbxydSA_NS3_14adl_serializerENS6_IhNSA_IhEEEEEEEELb1EE8__unwrapB8de180100ESI_, symObjAddr: 0x3C70, symBinAddr: 0x5450, symSize: 0x20 }
  - { offset: 0x58B8E, size: 0x8, addend: 0x0, symName: __ZNSt3__119__to_address_helperINS_11__wrap_iterIPN8nlohmann16json_abi_v3_11_210basic_jsonINS_3mapENS_6vectorENS_12basic_stringIcNS_11char_traitsIcEENS_9allocatorIcEEEEbxydSA_NS3_14adl_serializerENS6_IhNSA_IhEEEEEEEEvE6__callB8de180100ERKSI_, symObjAddr: 0x3CB0, symBinAddr: 0x5490, symSize: 0x30 }
  - { offset: 0x58BB2, size: 0x8, addend: 0x0, symName: __ZNSt3__114pointer_traitsINS_11__wrap_iterIPN8nlohmann16json_abi_v3_11_210basic_jsonINS_3mapENS_6vectorENS_12basic_stringIcNS_11char_traitsIcEENS_9allocatorIcEEEEbxydSA_NS3_14adl_serializerENS6_IhNSA_IhEEEEEEEEE10to_addressB8de180100ESI_, symObjAddr: 0x3CE0, symBinAddr: 0x54C0, symSize: 0x30 }
  - { offset: 0x58BD6, size: 0x8, addend: 0x0, symName: __ZNKSt3__111__wrap_iterIPN8nlohmann16json_abi_v3_11_210basic_jsonINS_3mapENS_6vectorENS_12basic_stringIcNS_11char_traitsIcEENS_9allocatorIcEEEEbxydS9_NS2_14adl_serializerENS5_IhNS9_IhEEEEEEE4baseB8de180100Ev, symObjAddr: 0x3D10, symBinAddr: 0x54F0, symSize: 0x20 }
  - { offset: 0x58C02, size: 0x8, addend: 0x0, symName: __ZNSt3__18_IterOpsINS_17_ClassicAlgPolicyEE11__iter_moveB8de180100IRPN8nlohmann16json_abi_v3_11_210basic_jsonINS_3mapENS_6vectorENS_12basic_stringIcNS_11char_traitsIcEENS_9allocatorIcEEEEbxydSC_NS5_14adl_serializerENS8_IhNSC_IhEEEEEELi0EEEDTclsr3stdE4movedeclsr3stdE7declvalIRT_EEEEOSL_, symObjAddr: 0x3D30, symBinAddr: 0x5510, symSize: 0x20 }
  - { offset: 0x58C36, size: 0x8, addend: 0x0, symName: __ZNSt3__120back_insert_iteratorINS_6vectorIN8nlohmann16json_abi_v3_11_210basic_jsonINS_3mapES1_NS_12basic_stringIcNS_11char_traitsIcEENS_9allocatorIcEEEEbxydS9_NS3_14adl_serializerENS1_IhNS9_IhEEEEEENS9_ISF_EEEEEdeB8de180100Ev, symObjAddr: 0x3D50, symBinAddr: 0x5530, symSize: 0x10 }
  - { offset: 0x58C5C, size: 0x8, addend: 0x0, symName: __ZNSt3__120back_insert_iteratorINS_6vectorIN8nlohmann16json_abi_v3_11_210basic_jsonINS_3mapES1_NS_12basic_stringIcNS_11char_traitsIcEENS_9allocatorIcEEEEbxydS9_NS3_14adl_serializerENS1_IhNS9_IhEEEEEENS9_ISF_EEEEEaSB8de180100EOSF_, symObjAddr: 0x3D60, symBinAddr: 0x5540, symSize: 0x30 }
  - { offset: 0x58C91, size: 0x8, addend: 0x0, symName: __ZNSt3__120back_insert_iteratorINS_6vectorIN8nlohmann16json_abi_v3_11_210basic_jsonINS_3mapES1_NS_12basic_stringIcNS_11char_traitsIcEENS_9allocatorIcEEEEbxydS9_NS3_14adl_serializerENS1_IhNS9_IhEEEEEENS9_ISF_EEEEEppB8de180100Ev, symObjAddr: 0x3D90, symBinAddr: 0x5570, symSize: 0x10 }
  - { offset: 0x58CB7, size: 0x8, addend: 0x0, symName: __ZNSt3__18_IterOpsINS_17_ClassicAlgPolicyEE25__validate_iter_referenceB8de180100IRPN8nlohmann16json_abi_v3_11_210basic_jsonINS_3mapENS_6vectorENS_12basic_stringIcNS_11char_traitsIcEENS_9allocatorIcEEEEbxydSC_NS5_14adl_serializerENS8_IhNSC_IhEEEEEEEEvv, symObjAddr: 0x3DD0, symBinAddr: 0x55B0, symSize: 0x10 }
  - { offset: 0x58CDB, size: 0x8, addend: 0x0, symName: __ZNSt3__14pairIPN8nlohmann16json_abi_v3_11_210basic_jsonINS_3mapENS_6vectorENS_12basic_stringIcNS_11char_traitsIcEENS_9allocatorIcEEEEbxydS9_NS2_14adl_serializerENS5_IhNS9_IhEEEEEENS_20back_insert_iteratorINS5_ISF_NS9_ISF_EEEEEEEC1B8de180100ISG_SK_Li0EEEOT_OT0_, symObjAddr: 0x3DE0, symBinAddr: 0x55C0, symSize: 0x30 }
  - { offset: 0x58D3C, size: 0x8, addend: 0x0, symName: __ZNSt3__14pairIPN8nlohmann16json_abi_v3_11_210basic_jsonINS_3mapENS_6vectorENS_12basic_stringIcNS_11char_traitsIcEENS_9allocatorIcEEEEbxydS9_NS2_14adl_serializerENS5_IhNS9_IhEEEEEENS_20back_insert_iteratorINS5_ISF_NS9_ISF_EEEEEEEC2B8de180100ISG_SK_Li0EEEOT_OT0_, symObjAddr: 0x3E10, symBinAddr: 0x55F0, symSize: 0x30 }
  - { offset: 0x58D9D, size: 0x8, addend: 0x0, symName: __ZNSt3__118__unwrap_iter_implINS_20back_insert_iteratorINS_6vectorIN8nlohmann16json_abi_v3_11_210basic_jsonINS_3mapES2_NS_12basic_stringIcNS_11char_traitsIcEENS_9allocatorIcEEEEbxydSA_NS4_14adl_serializerENS2_IhNSA_IhEEEEEENSA_ISG_EEEEEELb0EE8__unwrapB8de180100ESJ_, symObjAddr: 0x3E40, symBinAddr: 0x5620, symSize: 0x20 }
  - { offset: 0x58DE3, size: 0x8, addend: 0x0, symName: __ZNSt3__14pairINS_11__wrap_iterIPN8nlohmann16json_abi_v3_11_210basic_jsonINS_3mapENS_6vectorENS_12basic_stringIcNS_11char_traitsIcEENS_9allocatorIcEEEEbxydSA_NS3_14adl_serializerENS6_IhNSA_IhEEEEEEEENS_20back_insert_iteratorINS6_ISG_NSA_ISG_EEEEEEEC1B8de180100ISI_SM_Li0EEEOT_OT0_, symObjAddr: 0x3E60, symBinAddr: 0x5640, symSize: 0x30 }
  - { offset: 0x58E44, size: 0x8, addend: 0x0, symName: __ZNSt3__14pairINS_11__wrap_iterIPN8nlohmann16json_abi_v3_11_210basic_jsonINS_3mapENS_6vectorENS_12basic_stringIcNS_11char_traitsIcEENS_9allocatorIcEEEEbxydSA_NS3_14adl_serializerENS6_IhNSA_IhEEEEEEEENS_20back_insert_iteratorINS6_ISG_NSA_ISG_EEEEEEEC2B8de180100ISI_SM_Li0EEEOT_OT0_, symObjAddr: 0x3E90, symBinAddr: 0x5670, symSize: 0x30 }
  - { offset: 0x58EA5, size: 0x8, addend: 0x0, symName: __ZNSt3__118__unwrap_iter_implINS_11__wrap_iterIPN8nlohmann16json_abi_v3_11_210basic_jsonINS_3mapENS_6vectorENS_12basic_stringIcNS_11char_traitsIcEENS_9allocatorIcEEEEbxydSA_NS3_14adl_serializerENS6_IhNSA_IhEEEEEEEELb1EE8__rewrapB8de180100ESI_SH_, symObjAddr: 0x3F10, symBinAddr: 0x56F0, symSize: 0x50 }
  - { offset: 0x58ED8, size: 0x8, addend: 0x0, symName: __ZNKSt3__111__wrap_iterIPN8nlohmann16json_abi_v3_11_210basic_jsonINS_3mapENS_6vectorENS_12basic_stringIcNS_11char_traitsIcEENS_9allocatorIcEEEEbxydS9_NS2_14adl_serializerENS5_IhNS9_IhEEEEEEEplB8de180100El, symObjAddr: 0x3F60, symBinAddr: 0x5740, symSize: 0x40 }
  - { offset: 0x58F1C, size: 0x8, addend: 0x0, symName: __ZNSt3__111__wrap_iterIPN8nlohmann16json_abi_v3_11_210basic_jsonINS_3mapENS_6vectorENS_12basic_stringIcNS_11char_traitsIcEENS_9allocatorIcEEEEbxydS9_NS2_14adl_serializerENS5_IhNS9_IhEEEEEEEpLB8de180100El, symObjAddr: 0x3FA0, symBinAddr: 0x5780, symSize: 0x20 }
  - { offset: 0x58F51, size: 0x8, addend: 0x0, symName: __ZNSt3__118__unwrap_iter_implINS_20back_insert_iteratorINS_6vectorIN8nlohmann16json_abi_v3_11_210basic_jsonINS_3mapES2_NS_12basic_stringIcNS_11char_traitsIcEENS_9allocatorIcEEEEbxydSA_NS4_14adl_serializerENS2_IhNSA_IhEEEEEENSA_ISG_EEEEEELb0EE8__rewrapB8de180100ESJ_SJ_, symObjAddr: 0x3FC0, symBinAddr: 0x57A0, symSize: 0x20 }
  - { offset: 0x58F80, size: 0x8, addend: 0x0, symName: __ZNSt3__16vectorIN8nlohmann16json_abi_v3_11_210basic_jsonINS_3mapES0_NS_12basic_stringIcNS_11char_traitsIcEENS_9allocatorIcEEEEbxydS8_NS2_14adl_serializerENS0_IhNS8_IhEEEEEENS8_ISE_EEE11__make_iterB8de180100EPSE_, symObjAddr: 0x3FE0, symBinAddr: 0x57C0, symSize: 0x30 }
  - { offset: 0x58FB6, size: 0x8, addend: 0x0, symName: __ZNSt3__111__wrap_iterIPN8nlohmann16json_abi_v3_11_210basic_jsonINS_3mapENS_6vectorENS_12basic_stringIcNS_11char_traitsIcEENS_9allocatorIcEEEEbxydS9_NS2_14adl_serializerENS5_IhNS9_IhEEEEEEEC1B8de180100ESG_, symObjAddr: 0x4010, symBinAddr: 0x57F0, symSize: 0x30 }
  - { offset: 0x58FEF, size: 0x8, addend: 0x0, symName: __ZNSt3__111__wrap_iterIPN8nlohmann16json_abi_v3_11_210basic_jsonINS_3mapENS_6vectorENS_12basic_stringIcNS_11char_traitsIcEENS_9allocatorIcEEEEbxydS9_NS2_14adl_serializerENS5_IhNS9_IhEEEEEEEC2B8de180100ESG_, symObjAddr: 0x4040, symBinAddr: 0x5820, symSize: 0x20 }
  - { offset: 0x59028, size: 0x8, addend: 0x0, symName: __ZNSt3__120back_insert_iteratorINS_6vectorIN8nlohmann16json_abi_v3_11_210basic_jsonINS_3mapES1_NS_12basic_stringIcNS_11char_traitsIcEENS_9allocatorIcEEEEbxydS9_NS3_14adl_serializerENS1_IhNS9_IhEEEEEENS9_ISF_EEEEEC1B8de180100ERSH_, symObjAddr: 0x4060, symBinAddr: 0x5840, symSize: 0x30 }
  - { offset: 0x59061, size: 0x8, addend: 0x0, symName: __ZNSt3__120back_insert_iteratorINS_6vectorIN8nlohmann16json_abi_v3_11_210basic_jsonINS_3mapES1_NS_12basic_stringIcNS_11char_traitsIcEENS_9allocatorIcEEEEbxydS9_NS3_14adl_serializerENS1_IhNS9_IhEEEEEENS9_ISF_EEEEEC2B8de180100ERSH_, symObjAddr: 0x4090, symBinAddr: 0x5870, symSize: 0x20 }
  - { offset: 0x5909A, size: 0x8, addend: 0x0, symName: __ZNKSt3__16__treeINS_12__value_typeINS_12basic_stringIcNS_11char_traitsIcEENS_9allocatorIcEEEEN8nlohmann16json_abi_v3_11_210basic_jsonINS_3mapENS_6vectorES7_bxydS5_NS9_14adl_serializerENSC_IhNS5_IhEEEEEEEENS_19__map_value_compareIS7_SH_NS_4lessIvEELb1EEENS5_ISH_EEE4sizeB8de180100Ev, symObjAddr: 0x40B0, symBinAddr: 0x5890, symSize: 0x20 }
  - { offset: 0x590C0, size: 0x8, addend: 0x0, symName: __ZNKSt3__117__compressed_pairImNS_19__map_value_compareINS_12basic_stringIcNS_11char_traitsIcEENS_9allocatorIcEEEENS_12__value_typeIS7_N8nlohmann16json_abi_v3_11_210basic_jsonINS_3mapENS_6vectorES7_bxydS5_NSA_14adl_serializerENSD_IhNS5_IhEEEEEEEENS_4lessIvEELb1EEEE5firstB8de180100Ev, symObjAddr: 0x40D0, symBinAddr: 0x58B0, symSize: 0x20 }
  - { offset: 0x590E6, size: 0x8, addend: 0x0, symName: __ZNKSt3__122__compressed_pair_elemImLi0ELb0EE5__getB8de180100Ev, symObjAddr: 0x40F0, symBinAddr: 0x58D0, symSize: 0x10 }
  - { offset: 0x5910C, size: 0x8, addend: 0x0, symName: __ZNSt3__16__treeINS_12__value_typeINS_12basic_stringIcNS_11char_traitsIcEENS_9allocatorIcEEEEN8nlohmann16json_abi_v3_11_210basic_jsonINS_3mapENS_6vectorES7_bxydS5_NS9_14adl_serializerENSC_IhNS5_IhEEEEEEEENS_19__map_value_compareIS7_SH_NS_4lessIvEELb1EEENS5_ISH_EEE5beginB8de180100Ev, symObjAddr: 0x4100, symBinAddr: 0x58E0, symSize: 0x30 }
  - { offset: 0x59132, size: 0x8, addend: 0x0, symName: __ZNSt3__114__map_iteratorINS_15__tree_iteratorINS_12__value_typeINS_12basic_stringIcNS_11char_traitsIcEENS_9allocatorIcEEEEN8nlohmann16json_abi_v3_11_210basic_jsonINS_3mapENS_6vectorES8_bxydS6_NSA_14adl_serializerENSD_IhNS6_IhEEEEEEEEPNS_11__tree_nodeISI_PvEElEEEC1B8de180100ESN_, symObjAddr: 0x4130, symBinAddr: 0x5910, symSize: 0x30 }
  - { offset: 0x5916C, size: 0x8, addend: 0x0, symName: __ZNSt3__16__treeINS_12__value_typeINS_12basic_stringIcNS_11char_traitsIcEENS_9allocatorIcEEEEN8nlohmann16json_abi_v3_11_210basic_jsonINS_3mapENS_6vectorES7_bxydS5_NS9_14adl_serializerENSC_IhNS5_IhEEEEEEEENS_19__map_value_compareIS7_SH_NS_4lessIvEELb1EEENS5_ISH_EEE12__begin_nodeB8de180100Ev, symObjAddr: 0x4160, symBinAddr: 0x5940, symSize: 0x10 }
  - { offset: 0x59192, size: 0x8, addend: 0x0, symName: __ZNSt3__115__tree_iteratorINS_12__value_typeINS_12basic_stringIcNS_11char_traitsIcEENS_9allocatorIcEEEEN8nlohmann16json_abi_v3_11_210basic_jsonINS_3mapENS_6vectorES7_bxydS5_NS9_14adl_serializerENSC_IhNS5_IhEEEEEEEEPNS_11__tree_nodeISH_PvEElEC1B8de180100EPNS_15__tree_end_nodeIPNS_16__tree_node_baseISJ_EEEE, symObjAddr: 0x4170, symBinAddr: 0x5950, symSize: 0x30 }
  - { offset: 0x591CC, size: 0x8, addend: 0x0, symName: __ZNSt3__115__tree_iteratorINS_12__value_typeINS_12basic_stringIcNS_11char_traitsIcEENS_9allocatorIcEEEEN8nlohmann16json_abi_v3_11_210basic_jsonINS_3mapENS_6vectorES7_bxydS5_NS9_14adl_serializerENSC_IhNS5_IhEEEEEEEEPNS_11__tree_nodeISH_PvEElEC2B8de180100EPNS_15__tree_end_nodeIPNS_16__tree_node_baseISJ_EEEE, symObjAddr: 0x41A0, symBinAddr: 0x5980, symSize: 0x20 }
  - { offset: 0x59206, size: 0x8, addend: 0x0, symName: __ZNSt3__114__map_iteratorINS_15__tree_iteratorINS_12__value_typeINS_12basic_stringIcNS_11char_traitsIcEENS_9allocatorIcEEEEN8nlohmann16json_abi_v3_11_210basic_jsonINS_3mapENS_6vectorES8_bxydS6_NSA_14adl_serializerENSD_IhNS6_IhEEEEEEEEPNS_11__tree_nodeISI_PvEElEEEC2B8de180100ESN_, symObjAddr: 0x41C0, symBinAddr: 0x59A0, symSize: 0x20 }
  - { offset: 0x59240, size: 0x8, addend: 0x0, symName: __ZNSt3__16__treeINS_12__value_typeINS_12basic_stringIcNS_11char_traitsIcEENS_9allocatorIcEEEEN8nlohmann16json_abi_v3_11_210basic_jsonINS_3mapENS_6vectorES7_bxydS5_NS9_14adl_serializerENSC_IhNS5_IhEEEEEEEENS_19__map_value_compareIS7_SH_NS_4lessIvEELb1EEENS5_ISH_EEE3endB8de180100Ev, symObjAddr: 0x41E0, symBinAddr: 0x59C0, symSize: 0x30 }
  - { offset: 0x59266, size: 0x8, addend: 0x0, symName: __ZNSt3__16__treeINS_12__value_typeINS_12basic_stringIcNS_11char_traitsIcEENS_9allocatorIcEEEEN8nlohmann16json_abi_v3_11_210basic_jsonINS_3mapENS_6vectorES7_bxydS5_NS9_14adl_serializerENSC_IhNS5_IhEEEEEEEENS_19__map_value_compareIS7_SH_NS_4lessIvEELb1EEENS5_ISH_EEE10__end_nodeB8de180100Ev, symObjAddr: 0x4210, symBinAddr: 0x59F0, symSize: 0x30 }
  - { offset: 0x5928C, size: 0x8, addend: 0x0, symName: __ZNSt3__114pointer_traitsIPNS_15__tree_end_nodeIPNS_16__tree_node_baseIPvEEEEE10pointer_toB8de180100ERS6_, symObjAddr: 0x4240, symBinAddr: 0x5A20, symSize: 0x10 }
  - { offset: 0x592B0, size: 0x8, addend: 0x0, symName: __ZNSt3__117__compressed_pairINS_15__tree_end_nodeIPNS_16__tree_node_baseIPvEEEENS_9allocatorINS_11__tree_nodeINS_12__value_typeINS_12basic_stringIcNS_11char_traitsIcEENS7_IcEEEEN8nlohmann16json_abi_v3_11_210basic_jsonINS_3mapENS_6vectorESE_bxydS7_NSG_14adl_serializerENSJ_IhNS7_IhEEEEEEEES3_EEEEE5firstB8de180100Ev, symObjAddr: 0x4250, symBinAddr: 0x5A30, symSize: 0x20 }
  - { offset: 0x592D6, size: 0x8, addend: 0x0, symName: __ZNSt3__122__compressed_pair_elemINS_15__tree_end_nodeIPNS_16__tree_node_baseIPvEEEELi0ELb0EE5__getB8de180100Ev, symObjAddr: 0x4270, symBinAddr: 0x5A50, symSize: 0x10 }
  - { offset: 0x592FC, size: 0x8, addend: 0x0, symName: __ZNKSt3__115__tree_iteratorINS_12__value_typeINS_12basic_stringIcNS_11char_traitsIcEENS_9allocatorIcEEEEN8nlohmann16json_abi_v3_11_210basic_jsonINS_3mapENS_6vectorES7_bxydS5_NS9_14adl_serializerENSC_IhNS5_IhEEEEEEEEPNS_11__tree_nodeISH_PvEElEptB8de180100Ev, symObjAddr: 0x42E0, symBinAddr: 0x5AC0, symSize: 0x30 }
  - { offset: 0x59322, size: 0x8, addend: 0x0, symName: __ZNSt3__112__value_typeINS_12basic_stringIcNS_11char_traitsIcEENS_9allocatorIcEEEEN8nlohmann16json_abi_v3_11_210basic_jsonINS_3mapENS_6vectorES6_bxydS4_NS8_14adl_serializerENSB_IhNS4_IhEEEEEEE11__get_valueB8de180100Ev, symObjAddr: 0x4310, symBinAddr: 0x5AF0, symSize: 0x20 }
  - { offset: 0x59348, size: 0x8, addend: 0x0, symName: __ZNSt3__114pointer_traitsIPNS_12__value_typeINS_12basic_stringIcNS_11char_traitsIcEENS_9allocatorIcEEEEN8nlohmann16json_abi_v3_11_210basic_jsonINS_3mapENS_6vectorES7_bxydS5_NS9_14adl_serializerENSC_IhNS5_IhEEEEEEEEE10pointer_toB8de180100ERSH_, symObjAddr: 0x4330, symBinAddr: 0x5B10, symSize: 0x10 }
  - { offset: 0x5936C, size: 0x8, addend: 0x0, symName: __ZNKSt3__115__tree_iteratorINS_12__value_typeINS_12basic_stringIcNS_11char_traitsIcEENS_9allocatorIcEEEEN8nlohmann16json_abi_v3_11_210basic_jsonINS_3mapENS_6vectorES7_bxydS5_NS9_14adl_serializerENSC_IhNS5_IhEEEEEEEEPNS_11__tree_nodeISH_PvEElE8__get_npB8de180100Ev, symObjAddr: 0x4340, symBinAddr: 0x5B20, symSize: 0x20 }
  - { offset: 0x59392, size: 0x8, addend: 0x0, symName: __ZNSt3__16vectorIN8nlohmann16json_abi_v3_11_210basic_jsonINS_3mapES0_NS_12basic_stringIcNS_11char_traitsIcEENS_9allocatorIcEEEEbxydS8_NS2_14adl_serializerENS0_IhNS8_IhEEEEEENS8_ISE_EEE22__construct_one_at_endB8de180100IJSE_EEEvDpOT_, symObjAddr: 0x4390, symBinAddr: 0x5B70, symSize: 0x90 }
  - { offset: 0x593E5, size: 0x8, addend: 0x0, symName: __ZNSt3__16vectorIN8nlohmann16json_abi_v3_11_210basic_jsonINS_3mapES0_NS_12basic_stringIcNS_11char_traitsIcEENS_9allocatorIcEEEEbxydS8_NS2_14adl_serializerENS0_IhNS8_IhEEEEEENS8_ISE_EEE21__push_back_slow_pathISE_EEPSE_OT_, symObjAddr: 0x4420, symBinAddr: 0x5C00, symSize: 0xE0 }
  - { offset: 0x59461, size: 0x8, addend: 0x0, symName: __ZNSt3__16vectorIN8nlohmann16json_abi_v3_11_210basic_jsonINS_3mapES0_NS_12basic_stringIcNS_11char_traitsIcEENS_9allocatorIcEEEEbxydS8_NS2_14adl_serializerENS0_IhNS8_IhEEEEEENS8_ISE_EEE21_ConstructTransactionC1B8de180100ERSG_m, symObjAddr: 0x4500, symBinAddr: 0x5CE0, symSize: 0x30 }
  - { offset: 0x594AB, size: 0x8, addend: 0x0, symName: __ZNSt3__16vectorIN8nlohmann16json_abi_v3_11_210basic_jsonINS_3mapES0_NS_12basic_stringIcNS_11char_traitsIcEENS_9allocatorIcEEEEbxydS8_NS2_14adl_serializerENS0_IhNS8_IhEEEEEENS8_ISE_EEE21_ConstructTransactionD1B8de180100Ev, symObjAddr: 0x4530, symBinAddr: 0x5D10, symSize: 0x20 }
  - { offset: 0x594D5, size: 0x8, addend: 0x0, symName: __ZNSt3__16vectorIN8nlohmann16json_abi_v3_11_210basic_jsonINS_3mapES0_NS_12basic_stringIcNS_11char_traitsIcEENS_9allocatorIcEEEEbxydS8_NS2_14adl_serializerENS0_IhNS8_IhEEEEEENS8_ISE_EEE21_ConstructTransactionC2B8de180100ERSG_m, symObjAddr: 0x4550, symBinAddr: 0x5D30, symSize: 0x40 }
  - { offset: 0x5951F, size: 0x8, addend: 0x0, symName: __ZNSt3__16vectorIN8nlohmann16json_abi_v3_11_210basic_jsonINS_3mapES0_NS_12basic_stringIcNS_11char_traitsIcEENS_9allocatorIcEEEEbxydS8_NS2_14adl_serializerENS0_IhNS8_IhEEEEEENS8_ISE_EEE21_ConstructTransactionD2B8de180100Ev, symObjAddr: 0x4590, symBinAddr: 0x5D70, symSize: 0x20 }
  - { offset: 0x59549, size: 0x8, addend: 0x0, symName: __ZNKSt3__16vectorIN8nlohmann16json_abi_v3_11_210basic_jsonINS_3mapES0_NS_12basic_stringIcNS_11char_traitsIcEENS_9allocatorIcEEEEbxydS8_NS2_14adl_serializerENS0_IhNS8_IhEEEEEENS8_ISE_EEE11__recommendB8de180100Em, symObjAddr: 0x45B0, symBinAddr: 0x5D90, symSize: 0x90 }
  - { offset: 0x595A1, size: 0x8, addend: 0x0, symName: __ZNSt3__115__tree_iteratorINS_12__value_typeINS_12basic_stringIcNS_11char_traitsIcEENS_9allocatorIcEEEEN8nlohmann16json_abi_v3_11_210basic_jsonINS_3mapENS_6vectorES7_bxydS5_NS9_14adl_serializerENSC_IhNS5_IhEEEEEEEEPNS_11__tree_nodeISH_PvEElEppB8de180100Ev, symObjAddr: 0x46C0, symBinAddr: 0x5EA0, symSize: 0x30 }
  - { offset: 0x595C7, size: 0x8, addend: 0x0, symName: __ZNKSt3__116__tree_node_baseIPvE15__parent_unsafeB8de180100Ev, symObjAddr: 0x4810, symBinAddr: 0x5FF0, symSize: 0x20 }
  - { offset: 0x595ED, size: 0x8, addend: 0x0, symName: __ZN8nlohmann16json_abi_v3_11_210basic_jsonINSt3__13mapENS2_6vectorENS2_12basic_stringIcNS2_11char_traitsIcEENS2_9allocatorIcEEEEbxydS8_NS0_14adl_serializerENS4_IhNS8_IhEEEEEC2EOSE_, symObjAddr: 0x4830, symBinAddr: 0x6010, symSize: 0x80 }
  - { offset: 0x59627, size: 0x8, addend: 0x0, symName: __ZN8nlohmann16json_abi_v3_11_210basic_jsonINSt3__13mapENS2_6vectorENS2_12basic_stringIcNS2_11char_traitsIcEENS2_9allocatorIcEEEEbxydS8_NS0_14adl_serializerENS4_IhNS8_IhEEEEE11set_parentsEv, symObjAddr: 0x48B0, symBinAddr: 0x6090, symSize: 0x10 }
  - { offset: 0x5964D, size: 0x8, addend: 0x0, symName: __ZNSt3__16vectorIN8nlohmann16json_abi_v3_11_210basic_jsonINS_3mapES0_NS_12basic_stringIcNS_11char_traitsIcEENS_9allocatorIcEEEEbxydS8_NS2_14adl_serializerENS0_IhNS8_IhEEEEEENS8_ISE_EEE17__destruct_at_endB8de180100EPSE_, symObjAddr: 0x48C0, symBinAddr: 0x60A0, symSize: 0x50 }
  - { offset: 0x59693, size: 0x8, addend: 0x0, symName: __ZNSt3__16vectorIN8nlohmann16json_abi_v3_11_210basic_jsonINS_3mapES0_NS_12basic_stringIcNS_11char_traitsIcEENS_9allocatorIcEEEEbxydS8_NS2_14adl_serializerENS0_IhNS8_IhEEEEEENS8_ISE_EEE22__base_destruct_at_endB8de180100EPSE_, symObjAddr: 0x4910, symBinAddr: 0x60F0, symSize: 0x80 }
  - { offset: 0x596D9, size: 0x8, addend: 0x0, symName: __ZNKSt3__16vectorIN8nlohmann16json_abi_v3_11_210basic_jsonINS_3mapES0_NS_12basic_stringIcNS_11char_traitsIcEENS_9allocatorIcEEEEbxydS8_NS2_14adl_serializerENS0_IhNS8_IhEEEEEENS8_ISE_EEE17__annotate_shrinkB8de180100Em, symObjAddr: 0x4990, symBinAddr: 0x6170, symSize: 0x10 }
  - { offset: 0x5970F, size: 0x8, addend: 0x0, symName: __ZNSt3__16vectorIN8nlohmann16json_abi_v3_11_210basic_jsonINS_3mapES0_NS_12basic_stringIcNS_11char_traitsIcEENS_9allocatorIcEEEEbxydS8_NS2_14adl_serializerENS0_IhNS8_IhEEEEEENS8_ISE_EEE7__clearB8de180100Ev, symObjAddr: 0x49A0, symBinAddr: 0x6180, symSize: 0x20 }
  - { offset: 0x59735, size: 0x8, addend: 0x0, symName: __ZNSt3__16__treeINS_12__value_typeINS_12basic_stringIcNS_11char_traitsIcEENS_9allocatorIcEEEEN8nlohmann16json_abi_v3_11_210basic_jsonINS_3mapENS_6vectorES7_bxydS5_NS9_14adl_serializerENSC_IhNS5_IhEEEEEEEENS_19__map_value_compareIS7_SH_NS_4lessIvEELb1EEENS5_ISH_EEE5clearEv, symObjAddr: 0x49C0, symBinAddr: 0x61A0, symSize: 0x70 }
  - { offset: 0x5975D, size: 0x8, addend: 0x0, symName: __ZNSt3__16__treeINS_12__value_typeINS_12basic_stringIcNS_11char_traitsIcEENS_9allocatorIcEEEEN8nlohmann16json_abi_v3_11_210basic_jsonINS_3mapENS_6vectorES7_bxydS5_NS9_14adl_serializerENSC_IhNS5_IhEEEEEEEENS_19__map_value_compareIS7_SH_NS_4lessIvEELb1EEENS5_ISH_EEE7destroyEPNS_11__tree_nodeISH_PvEE, symObjAddr: 0x4A30, symBinAddr: 0x6210, symSize: 0xB0 }
  - { offset: 0x597AC, size: 0x8, addend: 0x0, symName: __ZNKSt3__16__treeINS_12__value_typeINS_12basic_stringIcNS_11char_traitsIcEENS_9allocatorIcEEEEN8nlohmann16json_abi_v3_11_210basic_jsonINS_3mapENS_6vectorES7_bxydS5_NS9_14adl_serializerENSC_IhNS5_IhEEEEEEEENS_19__map_value_compareIS7_SH_NS_4lessIvEELb1EEENS5_ISH_EEE6__rootB8de180100Ev, symObjAddr: 0x4AE0, symBinAddr: 0x62C0, symSize: 0x20 }
  - { offset: 0x597D2, size: 0x8, addend: 0x0, symName: __ZNSt3__16__treeINS_12__value_typeINS_12basic_stringIcNS_11char_traitsIcEENS_9allocatorIcEEEEN8nlohmann16json_abi_v3_11_210basic_jsonINS_3mapENS_6vectorES7_bxydS5_NS9_14adl_serializerENSC_IhNS5_IhEEEEEEEENS_19__map_value_compareIS7_SH_NS_4lessIvEELb1EEENS5_ISH_EEE4sizeB8de180100Ev, symObjAddr: 0x4B00, symBinAddr: 0x62E0, symSize: 0x20 }
  - { offset: 0x597F8, size: 0x8, addend: 0x0, symName: __ZNSt3__16__treeINS_12__value_typeINS_12basic_stringIcNS_11char_traitsIcEENS_9allocatorIcEEEEN8nlohmann16json_abi_v3_11_210basic_jsonINS_3mapENS_6vectorES7_bxydS5_NS9_14adl_serializerENSC_IhNS5_IhEEEEEEEENS_19__map_value_compareIS7_SH_NS_4lessIvEELb1EEENS5_ISH_EEE12__node_allocB8de180100Ev, symObjAddr: 0x4B20, symBinAddr: 0x6300, symSize: 0x20 }
  - { offset: 0x5981E, size: 0x8, addend: 0x0, symName: __ZNSt3__116allocator_traitsINS_9allocatorINS_11__tree_nodeINS_12__value_typeINS_12basic_stringIcNS_11char_traitsIcEENS1_IcEEEEN8nlohmann16json_abi_v3_11_210basic_jsonINS_3mapENS_6vectorES8_bxydS1_NSA_14adl_serializerENSD_IhNS1_IhEEEEEEEEPvEEEEE7destroyB8de180100INS_4pairIKS8_SH_EEvvEEvRSL_PT_, symObjAddr: 0x4B40, symBinAddr: 0x6320, symSize: 0x20 }
  - { offset: 0x5985C, size: 0x8, addend: 0x0, symName: __ZNSt3__122__tree_key_value_typesINS_12__value_typeINS_12basic_stringIcNS_11char_traitsIcEENS_9allocatorIcEEEEN8nlohmann16json_abi_v3_11_210basic_jsonINS_3mapENS_6vectorES7_bxydS5_NS9_14adl_serializerENSC_IhNS5_IhEEEEEEEEE9__get_ptrB8de180100ERSH_, symObjAddr: 0x4B60, symBinAddr: 0x6340, symSize: 0x20 }
  - { offset: 0x59881, size: 0x8, addend: 0x0, symName: __ZNSt3__116allocator_traitsINS_9allocatorINS_11__tree_nodeINS_12__value_typeINS_12basic_stringIcNS_11char_traitsIcEENS1_IcEEEEN8nlohmann16json_abi_v3_11_210basic_jsonINS_3mapENS_6vectorES8_bxydS1_NSA_14adl_serializerENSD_IhNS1_IhEEEEEEEEPvEEEEE10deallocateB8de180100ERSL_PSK_m, symObjAddr: 0x4B80, symBinAddr: 0x6360, symSize: 0x30 }
  - { offset: 0x598C6, size: 0x8, addend: 0x0, symName: __ZNSt3__117__compressed_pairINS_15__tree_end_nodeIPNS_16__tree_node_baseIPvEEEENS_9allocatorINS_11__tree_nodeINS_12__value_typeINS_12basic_stringIcNS_11char_traitsIcEENS7_IcEEEEN8nlohmann16json_abi_v3_11_210basic_jsonINS_3mapENS_6vectorESE_bxydS7_NSG_14adl_serializerENSJ_IhNS7_IhEEEEEEEES3_EEEEE6secondB8de180100Ev, symObjAddr: 0x4BB0, symBinAddr: 0x6390, symSize: 0x20 }
  - { offset: 0x598EC, size: 0x8, addend: 0x0, symName: __ZNSt3__122__compressed_pair_elemINS_9allocatorINS_11__tree_nodeINS_12__value_typeINS_12basic_stringIcNS_11char_traitsIcEENS1_IcEEEEN8nlohmann16json_abi_v3_11_210basic_jsonINS_3mapENS_6vectorES8_bxydS1_NSA_14adl_serializerENSD_IhNS1_IhEEEEEEEEPvEEEELi1ELb1EE5__getB8de180100Ev, symObjAddr: 0x4BD0, symBinAddr: 0x63B0, symSize: 0x10 }
  - { offset: 0x59912, size: 0x8, addend: 0x0, symName: __ZNSt3__14pairIKNS_12basic_stringIcNS_11char_traitsIcEENS_9allocatorIcEEEEN8nlohmann16json_abi_v3_11_210basic_jsonINS_3mapENS_6vectorES6_bxydS4_NS9_14adl_serializerENSC_IhNS4_IhEEEEEEED1Ev, symObjAddr: 0x4C10, symBinAddr: 0x63F0, symSize: 0x20 }
  - { offset: 0x5993E, size: 0x8, addend: 0x0, symName: __ZNSt3__14pairIKNS_12basic_stringIcNS_11char_traitsIcEENS_9allocatorIcEEEEN8nlohmann16json_abi_v3_11_210basic_jsonINS_3mapENS_6vectorES6_bxydS4_NS9_14adl_serializerENSC_IhNS4_IhEEEEEEED2Ev, symObjAddr: 0x4C30, symBinAddr: 0x6410, symSize: 0x30 }
  - { offset: 0x5996A, size: 0x8, addend: 0x0, symName: __ZNSt3__19allocatorINS_11__tree_nodeINS_12__value_typeINS_12basic_stringIcNS_11char_traitsIcEENS0_IcEEEEN8nlohmann16json_abi_v3_11_210basic_jsonINS_3mapENS_6vectorES7_bxydS0_NS9_14adl_serializerENSC_IhNS0_IhEEEEEEEEPvEEE10deallocateB8de180100EPSJ_m, symObjAddr: 0x4C60, symBinAddr: 0x6440, symSize: 0x50 }
  - { offset: 0x599AE, size: 0x8, addend: 0x0, symName: __ZNKSt3__16__treeINS_12__value_typeINS_12basic_stringIcNS_11char_traitsIcEENS_9allocatorIcEEEEN8nlohmann16json_abi_v3_11_210basic_jsonINS_3mapENS_6vectorES7_bxydS5_NS9_14adl_serializerENSC_IhNS5_IhEEEEEEEENS_19__map_value_compareIS7_SH_NS_4lessIvEELb1EEENS5_ISH_EEE10__end_nodeB8de180100Ev, symObjAddr: 0x4CB0, symBinAddr: 0x6490, symSize: 0x30 }
  - { offset: 0x599D4, size: 0x8, addend: 0x0, symName: __ZNKSt3__117__compressed_pairINS_15__tree_end_nodeIPNS_16__tree_node_baseIPvEEEENS_9allocatorINS_11__tree_nodeINS_12__value_typeINS_12basic_stringIcNS_11char_traitsIcEENS7_IcEEEEN8nlohmann16json_abi_v3_11_210basic_jsonINS_3mapENS_6vectorESE_bxydS7_NSG_14adl_serializerENSJ_IhNS7_IhEEEEEEEES3_EEEEE5firstB8de180100Ev, symObjAddr: 0x4CE0, symBinAddr: 0x64C0, symSize: 0x20 }
  - { offset: 0x599FA, size: 0x8, addend: 0x0, symName: __ZNKSt3__122__compressed_pair_elemINS_15__tree_end_nodeIPNS_16__tree_node_baseIPvEEEELi0ELb0EE5__getB8de180100Ev, symObjAddr: 0x4D00, symBinAddr: 0x64E0, symSize: 0x10 }
  - { offset: 0x59A20, size: 0x8, addend: 0x0, symName: __ZNSt3__117__compressed_pairImNS_19__map_value_compareINS_12basic_stringIcNS_11char_traitsIcEENS_9allocatorIcEEEENS_12__value_typeIS7_N8nlohmann16json_abi_v3_11_210basic_jsonINS_3mapENS_6vectorES7_bxydS5_NSA_14adl_serializerENSD_IhNS5_IhEEEEEEEENS_4lessIvEELb1EEEE5firstB8de180100Ev, symObjAddr: 0x4D10, symBinAddr: 0x64F0, symSize: 0x20 }
  - { offset: 0x59A46, size: 0x8, addend: 0x0, symName: __ZNSt3__122__compressed_pair_elemImLi0ELb0EE5__getB8de180100Ev, symObjAddr: 0x4D30, symBinAddr: 0x6510, symSize: 0x10 }
  - { offset: 0x59A6C, size: 0x8, addend: 0x0, symName: __ZNSt3__16vectorIN8nlohmann16json_abi_v3_11_210basic_jsonINS_3mapES0_NS_12basic_stringIcNS_11char_traitsIcEENS_9allocatorIcEEEEbxydS8_NS2_14adl_serializerENS0_IhNS8_IhEEEEEENS8_ISE_EEED2B8de180100Ev, symObjAddr: 0x4D40, symBinAddr: 0x6520, symSize: 0x40 }
  - { offset: 0x59A96, size: 0x8, addend: 0x0, symName: __ZNSt3__16vectorIN8nlohmann16json_abi_v3_11_210basic_jsonINS_3mapES0_NS_12basic_stringIcNS_11char_traitsIcEENS_9allocatorIcEEEEbxydS8_NS2_14adl_serializerENS0_IhNS8_IhEEEEEENS8_ISE_EEE16__destroy_vectorC1B8de180100ERSG_, symObjAddr: 0x4D80, symBinAddr: 0x6560, symSize: 0x30 }
  - { offset: 0x59AD0, size: 0x8, addend: 0x0, symName: __ZNSt3__16vectorIN8nlohmann16json_abi_v3_11_210basic_jsonINS_3mapES0_NS_12basic_stringIcNS_11char_traitsIcEENS_9allocatorIcEEEEbxydS8_NS2_14adl_serializerENS0_IhNS8_IhEEEEEENS8_ISE_EEE16__destroy_vectorclB8de180100Ev, symObjAddr: 0x4DB0, symBinAddr: 0x6590, symSize: 0x80 }
  - { offset: 0x59AF6, size: 0x8, addend: 0x0, symName: __ZNSt3__16vectorIN8nlohmann16json_abi_v3_11_210basic_jsonINS_3mapES0_NS_12basic_stringIcNS_11char_traitsIcEENS_9allocatorIcEEEEbxydS8_NS2_14adl_serializerENS0_IhNS8_IhEEEEEENS8_ISE_EEE16__destroy_vectorC2B8de180100ERSG_, symObjAddr: 0x4E30, symBinAddr: 0x6610, symSize: 0x20 }
  - { offset: 0x59B30, size: 0x8, addend: 0x0, symName: __ZNSt3__19allocatorINS_3mapINS_12basic_stringIcNS_11char_traitsIcEENS0_IcEEEEN8nlohmann16json_abi_v3_11_210basic_jsonIS1_NS_6vectorES6_bxydS0_NS8_14adl_serializerENSA_IhNS0_IhEEEEEENS_4lessIvEENS0_INS_4pairIKS6_SE_EEEEEEEC2B8de180100Ev, symObjAddr: 0x4E50, symBinAddr: 0x6630, symSize: 0x20 }
  - { offset: 0x59B5A, size: 0x8, addend: 0x0, symName: __ZNSt3__116__non_trivial_ifILb1ENS_9allocatorINS_3mapINS_12basic_stringIcNS_11char_traitsIcEENS1_IcEEEEN8nlohmann16json_abi_v3_11_210basic_jsonIS2_NS_6vectorES7_bxydS1_NS9_14adl_serializerENSB_IhNS1_IhEEEEEENS_4lessIvEENS1_INS_4pairIKS7_SF_EEEEEEEEEC2B8de180100Ev, symObjAddr: 0x4E70, symBinAddr: 0x6650, symSize: 0x10 }
  - { offset: 0x59B84, size: 0x8, addend: 0x0, symName: __ZNSt3__19allocatorINS_3mapINS_12basic_stringIcNS_11char_traitsIcEENS0_IcEEEEN8nlohmann16json_abi_v3_11_210basic_jsonIS1_NS_6vectorES6_bxydS0_NS8_14adl_serializerENSA_IhNS0_IhEEEEEENS_4lessIvEENS0_INS_4pairIKS6_SE_EEEEEEE7destroyB8de180100EPSL_, symObjAddr: 0x4E80, symBinAddr: 0x6660, symSize: 0x20 }
  - { offset: 0x59BB9, size: 0x8, addend: 0x0, symName: __ZNSt3__13mapINS_12basic_stringIcNS_11char_traitsIcEENS_9allocatorIcEEEEN8nlohmann16json_abi_v3_11_210basic_jsonIS0_NS_6vectorES6_bxydS4_NS8_14adl_serializerENSA_IhNS4_IhEEEEEENS_4lessIvEENS4_INS_4pairIKS6_SE_EEEEED1B8de180100Ev, symObjAddr: 0x4EA0, symBinAddr: 0x6680, symSize: 0x20 }
  - { offset: 0x59BE3, size: 0x8, addend: 0x0, symName: __ZNSt3__13mapINS_12basic_stringIcNS_11char_traitsIcEENS_9allocatorIcEEEEN8nlohmann16json_abi_v3_11_210basic_jsonIS0_NS_6vectorES6_bxydS4_NS8_14adl_serializerENSA_IhNS4_IhEEEEEENS_4lessIvEENS4_INS_4pairIKS6_SE_EEEEED2B8de180100Ev, symObjAddr: 0x4EC0, symBinAddr: 0x66A0, symSize: 0x20 }
  - { offset: 0x59C0D, size: 0x8, addend: 0x0, symName: __ZNSt3__16__treeINS_12__value_typeINS_12basic_stringIcNS_11char_traitsIcEENS_9allocatorIcEEEEN8nlohmann16json_abi_v3_11_210basic_jsonINS_3mapENS_6vectorES7_bxydS5_NS9_14adl_serializerENSC_IhNS5_IhEEEEEEEENS_19__map_value_compareIS7_SH_NS_4lessIvEELb1EEENS5_ISH_EEED1Ev, symObjAddr: 0x4EE0, symBinAddr: 0x66C0, symSize: 0x20 }
  - { offset: 0x59C39, size: 0x8, addend: 0x0, symName: __ZNSt3__16__treeINS_12__value_typeINS_12basic_stringIcNS_11char_traitsIcEENS_9allocatorIcEEEEN8nlohmann16json_abi_v3_11_210basic_jsonINS_3mapENS_6vectorES7_bxydS5_NS9_14adl_serializerENSC_IhNS5_IhEEEEEEEENS_19__map_value_compareIS7_SH_NS_4lessIvEELb1EEENS5_ISH_EEED2Ev, symObjAddr: 0x4F00, symBinAddr: 0x66E0, symSize: 0x30 }
  - { offset: 0x59C65, size: 0x8, addend: 0x0, symName: __ZNSt3__19allocatorINS_3mapINS_12basic_stringIcNS_11char_traitsIcEENS0_IcEEEEN8nlohmann16json_abi_v3_11_210basic_jsonIS1_NS_6vectorES6_bxydS0_NS8_14adl_serializerENSA_IhNS0_IhEEEEEENS_4lessIvEENS0_INS_4pairIKS6_SE_EEEEEEE10deallocateB8de180100EPSL_m, symObjAddr: 0x4F30, symBinAddr: 0x6710, symSize: 0x50 }
  - { offset: 0x59CA9, size: 0x8, addend: 0x0, symName: __ZNSt3__19allocatorINS_6vectorIN8nlohmann16json_abi_v3_11_210basic_jsonINS_3mapES1_NS_12basic_stringIcNS_11char_traitsIcEENS0_IcEEEEbxydS0_NS3_14adl_serializerENS1_IhNS0_IhEEEEEENS0_ISE_EEEEEC2B8de180100Ev, symObjAddr: 0x4F80, symBinAddr: 0x6760, symSize: 0x20 }
  - { offset: 0x59CD3, size: 0x8, addend: 0x0, symName: __ZNSt3__116__non_trivial_ifILb1ENS_9allocatorINS_6vectorIN8nlohmann16json_abi_v3_11_210basic_jsonINS_3mapES2_NS_12basic_stringIcNS_11char_traitsIcEENS1_IcEEEEbxydS1_NS4_14adl_serializerENS2_IhNS1_IhEEEEEENS1_ISF_EEEEEEEC2B8de180100Ev, symObjAddr: 0x4FA0, symBinAddr: 0x6780, symSize: 0x10 }
  - { offset: 0x59CFD, size: 0x8, addend: 0x0, symName: __ZNSt3__19allocatorINS_6vectorIN8nlohmann16json_abi_v3_11_210basic_jsonINS_3mapES1_NS_12basic_stringIcNS_11char_traitsIcEENS0_IcEEEEbxydS0_NS3_14adl_serializerENS1_IhNS0_IhEEEEEENS0_ISE_EEEEE7destroyB8de180100EPSG_, symObjAddr: 0x4FB0, symBinAddr: 0x6790, symSize: 0x20 }
  - { offset: 0x59D32, size: 0x8, addend: 0x0, symName: __ZNSt3__19allocatorINS_6vectorIN8nlohmann16json_abi_v3_11_210basic_jsonINS_3mapES1_NS_12basic_stringIcNS_11char_traitsIcEENS0_IcEEEEbxydS0_NS3_14adl_serializerENS1_IhNS0_IhEEEEEENS0_ISE_EEEEE10deallocateB8de180100EPSG_m, symObjAddr: 0x4FD0, symBinAddr: 0x67B0, symSize: 0x50 }
  - { offset: 0x59D76, size: 0x8, addend: 0x0, symName: __ZNSt3__19allocatorINS_12basic_stringIcNS_11char_traitsIcEENS0_IcEEEEEC2B8de180100Ev, symObjAddr: 0x5020, symBinAddr: 0x6800, symSize: 0x20 }
  - { offset: 0x59DA0, size: 0x8, addend: 0x0, symName: __ZNSt3__116__non_trivial_ifILb1ENS_9allocatorINS_12basic_stringIcNS_11char_traitsIcEENS1_IcEEEEEEEC2B8de180100Ev, symObjAddr: 0x5040, symBinAddr: 0x6820, symSize: 0x10 }
  - { offset: 0x59DCA, size: 0x8, addend: 0x0, symName: __ZNSt3__19allocatorINS_12basic_stringIcNS_11char_traitsIcEENS0_IcEEEEE7destroyB8de180100EPS5_, symObjAddr: 0x5050, symBinAddr: 0x6830, symSize: 0x20 }
  - { offset: 0x59DFF, size: 0x8, addend: 0x0, symName: __ZNSt3__19allocatorINS_12basic_stringIcNS_11char_traitsIcEENS0_IcEEEEE10deallocateB8de180100EPS5_m, symObjAddr: 0x5070, symBinAddr: 0x6850, symSize: 0x50 }
  - { offset: 0x59E43, size: 0x8, addend: 0x0, symName: __ZNSt3__19allocatorIN8nlohmann16json_abi_v3_11_227byte_container_with_subtypeINS_6vectorIhNS0_IhEEEEEEEC2B8de180100Ev, symObjAddr: 0x50C0, symBinAddr: 0x68A0, symSize: 0x20 }
  - { offset: 0x59E6D, size: 0x8, addend: 0x0, symName: __ZNSt3__116__non_trivial_ifILb1ENS_9allocatorIN8nlohmann16json_abi_v3_11_227byte_container_with_subtypeINS_6vectorIhNS1_IhEEEEEEEEEC2B8de180100Ev, symObjAddr: 0x50E0, symBinAddr: 0x68C0, symSize: 0x10 }
  - { offset: 0x59E97, size: 0x8, addend: 0x0, symName: __ZNSt3__19allocatorIN8nlohmann16json_abi_v3_11_227byte_container_with_subtypeINS_6vectorIhNS0_IhEEEEEEE7destroyB8de180100EPS7_, symObjAddr: 0x50F0, symBinAddr: 0x68D0, symSize: 0x20 }
  - { offset: 0x59ECC, size: 0x8, addend: 0x0, symName: __ZN8nlohmann16json_abi_v3_11_227byte_container_with_subtypeINSt3__16vectorIhNS2_9allocatorIhEEEEED1Ev, symObjAddr: 0x5110, symBinAddr: 0x68F0, symSize: 0x20 }
  - { offset: 0x59EF9, size: 0x8, addend: 0x0, symName: __ZN8nlohmann16json_abi_v3_11_227byte_container_with_subtypeINSt3__16vectorIhNS2_9allocatorIhEEEEED2Ev, symObjAddr: 0x5130, symBinAddr: 0x6910, symSize: 0x20 }
  - { offset: 0x59F26, size: 0x8, addend: 0x0, symName: __ZNSt3__16vectorIhNS_9allocatorIhEEED2B8de180100Ev, symObjAddr: 0x5150, symBinAddr: 0x6930, symSize: 0x40 }
  - { offset: 0x59F50, size: 0x8, addend: 0x0, symName: __ZNSt3__16vectorIhNS_9allocatorIhEEE16__destroy_vectorC1B8de180100ERS3_, symObjAddr: 0x5190, symBinAddr: 0x6970, symSize: 0x30 }
  - { offset: 0x59F8A, size: 0x8, addend: 0x0, symName: __ZNSt3__16vectorIhNS_9allocatorIhEEE16__destroy_vectorclB8de180100Ev, symObjAddr: 0x51C0, symBinAddr: 0x69A0, symSize: 0x80 }
  - { offset: 0x59FB0, size: 0x8, addend: 0x0, symName: __ZNSt3__16vectorIhNS_9allocatorIhEEE16__destroy_vectorC2B8de180100ERS3_, symObjAddr: 0x5240, symBinAddr: 0x6A20, symSize: 0x20 }
  - { offset: 0x59FEA, size: 0x8, addend: 0x0, symName: __ZNSt3__16vectorIhNS_9allocatorIhEEE7__clearB8de180100Ev, symObjAddr: 0x5260, symBinAddr: 0x6A40, symSize: 0x20 }
  - { offset: 0x5A010, size: 0x8, addend: 0x0, symName: __ZNKSt3__16vectorIhNS_9allocatorIhEEE17__annotate_deleteB8de180100Ev, symObjAddr: 0x5280, symBinAddr: 0x6A60, symSize: 0x10 }
  - { offset: 0x5A036, size: 0x8, addend: 0x0, symName: __ZNSt3__116allocator_traitsINS_9allocatorIhEEE10deallocateB8de180100ERS2_Phm, symObjAddr: 0x5290, symBinAddr: 0x6A70, symSize: 0x30 }
  - { offset: 0x5A07B, size: 0x8, addend: 0x0, symName: __ZNSt3__16vectorIhNS_9allocatorIhEEE7__allocB8de180100Ev, symObjAddr: 0x52C0, symBinAddr: 0x6AA0, symSize: 0x20 }
  - { offset: 0x5A0A1, size: 0x8, addend: 0x0, symName: __ZNKSt3__16vectorIhNS_9allocatorIhEEE8capacityB8de180100Ev, symObjAddr: 0x52E0, symBinAddr: 0x6AC0, symSize: 0x30 }
  - { offset: 0x5A0C7, size: 0x8, addend: 0x0, symName: __ZNSt3__16vectorIhNS_9allocatorIhEEE22__base_destruct_at_endB8de180100EPh, symObjAddr: 0x5310, symBinAddr: 0x6AF0, symSize: 0x80 }
  - { offset: 0x5A10D, size: 0x8, addend: 0x0, symName: __ZNSt3__116allocator_traitsINS_9allocatorIhEEE7destroyB8de180100IhvEEvRS2_PT_, symObjAddr: 0x5390, symBinAddr: 0x6B70, symSize: 0x30 }
  - { offset: 0x5A14D, size: 0x8, addend: 0x0, symName: __ZNSt3__19allocatorIhE7destroyB8de180100EPh, symObjAddr: 0x53D0, symBinAddr: 0x6BB0, symSize: 0x10 }
  - { offset: 0x5A182, size: 0x8, addend: 0x0, symName: __ZNSt3__19allocatorIhE10deallocateB8de180100EPhm, symObjAddr: 0x53E0, symBinAddr: 0x6BC0, symSize: 0x40 }
  - { offset: 0x5A1C6, size: 0x8, addend: 0x0, symName: __ZNSt3__117__compressed_pairIPhNS_9allocatorIhEEE6secondB8de180100Ev, symObjAddr: 0x5420, symBinAddr: 0x6C00, symSize: 0x20 }
  - { offset: 0x5A1EC, size: 0x8, addend: 0x0, symName: __ZNSt3__122__compressed_pair_elemINS_9allocatorIhEELi1ELb1EE5__getB8de180100Ev, symObjAddr: 0x5440, symBinAddr: 0x6C20, symSize: 0x10 }
  - { offset: 0x5A212, size: 0x8, addend: 0x0, symName: __ZNKSt3__16vectorIhNS_9allocatorIhEEE9__end_capB8de180100Ev, symObjAddr: 0x5450, symBinAddr: 0x6C30, symSize: 0x20 }
  - { offset: 0x5A238, size: 0x8, addend: 0x0, symName: __ZNKSt3__117__compressed_pairIPhNS_9allocatorIhEEE5firstB8de180100Ev, symObjAddr: 0x5470, symBinAddr: 0x6C50, symSize: 0x20 }
  - { offset: 0x5A25E, size: 0x8, addend: 0x0, symName: __ZNKSt3__122__compressed_pair_elemIPhLi0ELb0EE5__getB8de180100Ev, symObjAddr: 0x5490, symBinAddr: 0x6C70, symSize: 0x10 }
  - { offset: 0x5A284, size: 0x8, addend: 0x0, symName: __ZNSt3__19allocatorIN8nlohmann16json_abi_v3_11_227byte_container_with_subtypeINS_6vectorIhNS0_IhEEEEEEE10deallocateB8de180100EPS7_m, symObjAddr: 0x54A0, symBinAddr: 0x6C80, symSize: 0x50 }
  - { offset: 0x5A2C8, size: 0x8, addend: 0x0, symName: __ZNSt3__112basic_stringIcNS_11char_traitsIcEENS_9allocatorIcEEEC1B8de180100Ev, symObjAddr: 0x54F0, symBinAddr: 0x6CD0, symSize: 0x20 }
  - { offset: 0x5A2F2, size: 0x8, addend: 0x0, symName: __ZN8nlohmann16json_abi_v3_11_26detail14output_adapterIcNSt3__112basic_stringIcNS3_11char_traitsIcEENS3_9allocatorIcEEEEEC1ERS9_, symObjAddr: 0x5510, symBinAddr: 0x6CF0, symSize: 0x30 }
  - { offset: 0x5A32C, size: 0x8, addend: 0x0, symName: __ZN8nlohmann16json_abi_v3_11_26detail14output_adapterIcNSt3__112basic_stringIcNS3_11char_traitsIcEENS3_9allocatorIcEEEEEcvNS3_10shared_ptrINS1_23output_adapter_protocolIcEEEEEv, symObjAddr: 0x5540, symBinAddr: 0x6D20, symSize: 0x30 }
  - { offset: 0x5A352, size: 0x8, addend: 0x0, symName: __ZN8nlohmann16json_abi_v3_11_26detail10serializerINS0_10basic_jsonINSt3__13mapENS4_6vectorENS4_12basic_stringIcNS4_11char_traitsIcEENS4_9allocatorIcEEEEbxydSA_NS0_14adl_serializerENS6_IhNSA_IhEEEEEEEC1ENS4_10shared_ptrINS1_23output_adapter_protocolIcEEEEcNS1_15error_handler_tE, symObjAddr: 0x5570, symBinAddr: 0x6D50, symSize: 0x30 }
  - { offset: 0x5A3AD, size: 0x8, addend: 0x0, symName: __ZNSt3__110shared_ptrIN8nlohmann16json_abi_v3_11_26detail23output_adapter_protocolIcEEED1B8de180100Ev, symObjAddr: 0x55A0, symBinAddr: 0x6D80, symSize: 0x20 }
  - { offset: 0x5A3D7, size: 0x8, addend: 0x0, symName: __ZN8nlohmann16json_abi_v3_11_26detail14output_adapterIcNSt3__112basic_stringIcNS3_11char_traitsIcEENS3_9allocatorIcEEEEED1Ev, symObjAddr: 0x55C0, symBinAddr: 0x6DA0, symSize: 0x20 }
  - { offset: 0x5A404, size: 0x8, addend: 0x0, symName: __ZN8nlohmann16json_abi_v3_11_26detail10serializerINS0_10basic_jsonINSt3__13mapENS4_6vectorENS4_12basic_stringIcNS4_11char_traitsIcEENS4_9allocatorIcEEEEbxydSA_NS0_14adl_serializerENS6_IhNSA_IhEEEEEEE4dumpERKSG_bbjj, symObjAddr: 0x55E0, symBinAddr: 0x6DC0, symSize: 0x11C0 }
  - { offset: 0x5A5C8, size: 0x8, addend: 0x0, symName: __ZN8nlohmann16json_abi_v3_11_26detail10serializerINS0_10basic_jsonINSt3__13mapENS4_6vectorENS4_12basic_stringIcNS4_11char_traitsIcEENS4_9allocatorIcEEEEbxydSA_NS0_14adl_serializerENS6_IhNSA_IhEEEEEEED1Ev, symObjAddr: 0x67A0, symBinAddr: 0x7F80, symSize: 0x20 }
  - { offset: 0x5A5F2, size: 0x8, addend: 0x0, symName: __ZNSt3__112basic_stringIcNS_11char_traitsIcEENS_9allocatorIcEEEC2B8de180100Ev, symObjAddr: 0x67C0, symBinAddr: 0x7FA0, symSize: 0x50 }
  - { offset: 0x5A622, size: 0x8, addend: 0x0, symName: __ZNSt3__117__compressed_pairINS_12basic_stringIcNS_11char_traitsIcEENS_9allocatorIcEEE5__repES5_EC1B8de180100INS_16__value_init_tagENS_18__default_init_tagEEEOT_OT0_, symObjAddr: 0x6810, symBinAddr: 0x7FF0, symSize: 0x30 }
  - { offset: 0x5A67C, size: 0x8, addend: 0x0, symName: __ZNKSt3__112basic_stringIcNS_11char_traitsIcEENS_9allocatorIcEEE14__annotate_newB8de180100Em, symObjAddr: 0x6840, symBinAddr: 0x8020, symSize: 0x10 }
  - { offset: 0x5A6B2, size: 0x8, addend: 0x0, symName: __ZNSt3__117__compressed_pairINS_12basic_stringIcNS_11char_traitsIcEENS_9allocatorIcEEE5__repES5_EC2B8de180100INS_16__value_init_tagENS_18__default_init_tagEEEOT_OT0_, symObjAddr: 0x6850, symBinAddr: 0x8030, symSize: 0x30 }
  - { offset: 0x5A70C, size: 0x8, addend: 0x0, symName: __ZNSt3__122__compressed_pair_elemINS_12basic_stringIcNS_11char_traitsIcEENS_9allocatorIcEEE5__repELi0ELb0EEC2B8de180100ENS_16__value_init_tagE, symObjAddr: 0x6880, symBinAddr: 0x8060, symSize: 0x30 }
  - { offset: 0x5A741, size: 0x8, addend: 0x0, symName: __ZNSt3__122__compressed_pair_elemINS_9allocatorIcEELi1ELb1EEC2B8de180100ENS_18__default_init_tagE, symObjAddr: 0x68B0, symBinAddr: 0x8090, symSize: 0x20 }
  - { offset: 0x5A776, size: 0x8, addend: 0x0, symName: __ZNSt3__19allocatorIcEC2B8de180100Ev, symObjAddr: 0x68D0, symBinAddr: 0x80B0, symSize: 0x20 }
  - { offset: 0x5A7A0, size: 0x8, addend: 0x0, symName: __ZNSt3__116__non_trivial_ifILb1ENS_9allocatorIcEEEC2B8de180100Ev, symObjAddr: 0x68F0, symBinAddr: 0x80D0, symSize: 0x10 }
  - { offset: 0x5A7CA, size: 0x8, addend: 0x0, symName: __ZN8nlohmann16json_abi_v3_11_26detail14output_adapterIcNSt3__112basic_stringIcNS3_11char_traitsIcEENS3_9allocatorIcEEEEEC2ERS9_, symObjAddr: 0x6900, symBinAddr: 0x80E0, symSize: 0x50 }
  - { offset: 0x5A82A, size: 0x8, addend: 0x0, symName: __ZNSt3__110shared_ptrIN8nlohmann16json_abi_v3_11_26detail23output_adapter_protocolIcEEEC1B8de180100INS3_21output_string_adapterIcNS_12basic_stringIcNS_11char_traitsIcEENS_9allocatorIcEEEEEEvEEONS0_IT_EE, symObjAddr: 0x6990, symBinAddr: 0x8170, symSize: 0x30 }
  - { offset: 0x5A86F, size: 0x8, addend: 0x0, symName: __ZNSt3__110shared_ptrIN8nlohmann16json_abi_v3_11_26detail21output_string_adapterIcNS_12basic_stringIcNS_11char_traitsIcEENS_9allocatorIcEEEEEEED1B8de180100Ev, symObjAddr: 0x69C0, symBinAddr: 0x81A0, symSize: 0x20 }
  - { offset: 0x5A899, size: 0x8, addend: 0x0, symName: __ZNSt3__19allocatorIN8nlohmann16json_abi_v3_11_26detail21output_string_adapterIcNS_12basic_stringIcNS_11char_traitsIcEENS0_IcEEEEEEEC1B8de180100Ev, symObjAddr: 0x6A90, symBinAddr: 0x8270, symSize: 0x20 }
  - { offset: 0x5A914, size: 0x8, addend: 0x0, symName: __ZNSt3__118__allocation_guardINS_9allocatorINS_20__shared_ptr_emplaceIN8nlohmann16json_abi_v3_11_26detail21output_string_adapterIcNS_12basic_stringIcNS_11char_traitsIcEENS1_IcEEEEEENS1_ISC_EEEEEEEC1B8de180100ISD_EET_m, symObjAddr: 0x6AB0, symBinAddr: 0x8290, symSize: 0x30 }
  - { offset: 0x5A965, size: 0x8, addend: 0x0, symName: __ZNKSt3__118__allocation_guardINS_9allocatorINS_20__shared_ptr_emplaceIN8nlohmann16json_abi_v3_11_26detail21output_string_adapterIcNS_12basic_stringIcNS_11char_traitsIcEENS1_IcEEEEEENS1_ISC_EEEEEEE5__getB8de180100Ev, symObjAddr: 0x6AE0, symBinAddr: 0x82C0, symSize: 0x20 }
  - { offset: 0x5A98B, size: 0x8, addend: 0x0, symName: __ZNSt3__120__shared_ptr_emplaceIN8nlohmann16json_abi_v3_11_26detail21output_string_adapterIcNS_12basic_stringIcNS_11char_traitsIcEENS_9allocatorIcEEEEEENS8_ISB_EEEC1B8de180100IJRSA_ESC_Li0EEESC_DpOT_, symObjAddr: 0x6B00, symBinAddr: 0x82E0, symSize: 0x30 }
  - { offset: 0x5A9F2, size: 0x8, addend: 0x0, symName: __ZNSt3__118__allocation_guardINS_9allocatorINS_20__shared_ptr_emplaceIN8nlohmann16json_abi_v3_11_26detail21output_string_adapterIcNS_12basic_stringIcNS_11char_traitsIcEENS1_IcEEEEEENS1_ISC_EEEEEEE13__release_ptrB8de180100Ev, symObjAddr: 0x6B30, symBinAddr: 0x8310, symSize: 0x30 }
  - { offset: 0x5AA27, size: 0x8, addend: 0x0, symName: __ZNSt3__110shared_ptrIN8nlohmann16json_abi_v3_11_26detail21output_string_adapterIcNS_12basic_stringIcNS_11char_traitsIcEENS_9allocatorIcEEEEEEE27__create_with_control_blockB8de180100ISB_NS_20__shared_ptr_emplaceISB_NS8_ISB_EEEEEESC_PT_PT0_, symObjAddr: 0x6B60, symBinAddr: 0x8340, symSize: 0x70 }
  - { offset: 0x5AA7F, size: 0x8, addend: 0x0, symName: __ZNSt3__120__shared_ptr_emplaceIN8nlohmann16json_abi_v3_11_26detail21output_string_adapterIcNS_12basic_stringIcNS_11char_traitsIcEENS_9allocatorIcEEEEEENS8_ISB_EEE10__get_elemB8de180100Ev, symObjAddr: 0x6BD0, symBinAddr: 0x83B0, symSize: 0x20 }
  - { offset: 0x5AAA5, size: 0x8, addend: 0x0, symName: __ZNSt3__118__allocation_guardINS_9allocatorINS_20__shared_ptr_emplaceIN8nlohmann16json_abi_v3_11_26detail21output_string_adapterIcNS_12basic_stringIcNS_11char_traitsIcEENS1_IcEEEEEENS1_ISC_EEEEEEED1B8de180100Ev, symObjAddr: 0x6BF0, symBinAddr: 0x83D0, symSize: 0x20 }
  - { offset: 0x5AACF, size: 0x8, addend: 0x0, symName: __ZNSt3__118__allocation_guardINS_9allocatorINS_20__shared_ptr_emplaceIN8nlohmann16json_abi_v3_11_26detail21output_string_adapterIcNS_12basic_stringIcNS_11char_traitsIcEENS1_IcEEEEEENS1_ISC_EEEEEEEC2B8de180100ISD_EET_m, symObjAddr: 0x6C10, symBinAddr: 0x83F0, symSize: 0x50 }
  - { offset: 0x5AB20, size: 0x8, addend: 0x0, symName: __ZNSt3__19allocatorINS_20__shared_ptr_emplaceIN8nlohmann16json_abi_v3_11_26detail21output_string_adapterIcNS_12basic_stringIcNS_11char_traitsIcEENS0_IcEEEEEENS0_ISB_EEEEEC1B8de180100ISB_EERKNS0_IT_EE, symObjAddr: 0x6C60, symBinAddr: 0x8440, symSize: 0x30 }
  - { offset: 0x5AB5E, size: 0x8, addend: 0x0, symName: __ZNSt3__116allocator_traitsINS_9allocatorINS_20__shared_ptr_emplaceIN8nlohmann16json_abi_v3_11_26detail21output_string_adapterIcNS_12basic_stringIcNS_11char_traitsIcEENS1_IcEEEEEENS1_ISC_EEEEEEE8allocateB8de180100ERSF_m, symObjAddr: 0x6C90, symBinAddr: 0x8470, symSize: 0x30 }
  - { offset: 0x5AB93, size: 0x8, addend: 0x0, symName: __ZNSt3__19allocatorINS_20__shared_ptr_emplaceIN8nlohmann16json_abi_v3_11_26detail21output_string_adapterIcNS_12basic_stringIcNS_11char_traitsIcEENS0_IcEEEEEENS0_ISB_EEEEEC2B8de180100ISB_EERKNS0_IT_EE, symObjAddr: 0x6CC0, symBinAddr: 0x84A0, symSize: 0x20 }
  - { offset: 0x5ABD1, size: 0x8, addend: 0x0, symName: __ZNSt3__116__non_trivial_ifILb1ENS_9allocatorINS_20__shared_ptr_emplaceIN8nlohmann16json_abi_v3_11_26detail21output_string_adapterIcNS_12basic_stringIcNS_11char_traitsIcEENS1_IcEEEEEENS1_ISC_EEEEEEEC2B8de180100Ev, symObjAddr: 0x6CE0, symBinAddr: 0x84C0, symSize: 0x10 }
  - { offset: 0x5ABFB, size: 0x8, addend: 0x0, symName: __ZNSt3__19allocatorINS_20__shared_ptr_emplaceIN8nlohmann16json_abi_v3_11_26detail21output_string_adapterIcNS_12basic_stringIcNS_11char_traitsIcEENS0_IcEEEEEENS0_ISB_EEEEE8allocateB8de180100Em, symObjAddr: 0x6CF0, symBinAddr: 0x84D0, symSize: 0x50 }
  - { offset: 0x5AC3B, size: 0x8, addend: 0x0, symName: __ZNSt3__116allocator_traitsINS_9allocatorINS_20__shared_ptr_emplaceIN8nlohmann16json_abi_v3_11_26detail21output_string_adapterIcNS_12basic_stringIcNS_11char_traitsIcEENS1_IcEEEEEENS1_ISC_EEEEEEE8max_sizeB8de180100ISF_vEEmRKSF_, symObjAddr: 0x6D40, symBinAddr: 0x8520, symSize: 0x20 }
  - { offset: 0x5AC6B, size: 0x8, addend: 0x0, symName: __ZNKSt3__19allocatorINS_20__shared_ptr_emplaceIN8nlohmann16json_abi_v3_11_26detail21output_string_adapterIcNS_12basic_stringIcNS_11char_traitsIcEENS0_IcEEEEEENS0_ISB_EEEEE8max_sizeB8de180100Ev, symObjAddr: 0x6D60, symBinAddr: 0x8540, symSize: 0x20 }
  - { offset: 0x5AC91, size: 0x8, addend: 0x0, symName: __ZNSt3__120__shared_ptr_emplaceIN8nlohmann16json_abi_v3_11_26detail21output_string_adapterIcNS_12basic_stringIcNS_11char_traitsIcEENS_9allocatorIcEEEEEENS8_ISB_EEEC2B8de180100IJRSA_ESC_Li0EEESC_DpOT_, symObjAddr: 0x6D80, symBinAddr: 0x8560, symSize: 0xB0 }
  - { offset: 0x5AD1B, size: 0x8, addend: 0x0, symName: __ZNSt3__119__shared_weak_countC2B8de180100El, symObjAddr: 0x6E30, symBinAddr: 0x8610, symSize: 0x50 }
  - { offset: 0x5AD54, size: 0x8, addend: 0x0, symName: __ZNSt3__120__shared_ptr_emplaceIN8nlohmann16json_abi_v3_11_26detail21output_string_adapterIcNS_12basic_stringIcNS_11char_traitsIcEENS_9allocatorIcEEEEEENS8_ISB_EEE8_StorageC1B8de180100EOSC_, symObjAddr: 0x6E80, symBinAddr: 0x8660, symSize: 0x30 }
  - { offset: 0x5AD8E, size: 0x8, addend: 0x0, symName: __ZNSt3__120__shared_ptr_emplaceIN8nlohmann16json_abi_v3_11_26detail21output_string_adapterIcNS_12basic_stringIcNS_11char_traitsIcEENS_9allocatorIcEEEEEENS8_ISB_EEE11__get_allocB8de180100Ev, symObjAddr: 0x6EB0, symBinAddr: 0x8690, symSize: 0x20 }
  - { offset: 0x5ADBA, size: 0x8, addend: 0x0, symName: __ZNSt3__116allocator_traitsINS_9allocatorIN8nlohmann16json_abi_v3_11_26detail21output_string_adapterIcNS_12basic_stringIcNS_11char_traitsIcEENS1_IcEEEEEEEEE9constructB8de180100ISB_JRSA_EvEEvRSC_PT_DpOT0_, symObjAddr: 0x6ED0, symBinAddr: 0x86B0, symSize: 0x30 }
  - { offset: 0x5AE17, size: 0x8, addend: 0x0, symName: __ZNSt3__120__shared_ptr_emplaceIN8nlohmann16json_abi_v3_11_26detail21output_string_adapterIcNS_12basic_stringIcNS_11char_traitsIcEENS_9allocatorIcEEEEEENS8_ISB_EEE8_StorageD1B8de180100Ev, symObjAddr: 0x6F00, symBinAddr: 0x86E0, symSize: 0x20 }
  - { offset: 0x5AE41, size: 0x8, addend: 0x0, symName: __ZNSt3__120__shared_ptr_emplaceIN8nlohmann16json_abi_v3_11_26detail21output_string_adapterIcNS_12basic_stringIcNS_11char_traitsIcEENS_9allocatorIcEEEEEENS8_ISB_EEED1Ev, symObjAddr: 0x6F20, symBinAddr: 0x8700, symSize: 0x20 }
  - { offset: 0x5AE6D, size: 0x8, addend: 0x0, symName: __ZNSt3__120__shared_ptr_emplaceIN8nlohmann16json_abi_v3_11_26detail21output_string_adapterIcNS_12basic_stringIcNS_11char_traitsIcEENS_9allocatorIcEEEEEENS8_ISB_EEED0Ev, symObjAddr: 0x6F40, symBinAddr: 0x8720, symSize: 0x30 }
  - { offset: 0x5AE99, size: 0x8, addend: 0x0, symName: __ZNSt3__120__shared_ptr_emplaceIN8nlohmann16json_abi_v3_11_26detail21output_string_adapterIcNS_12basic_stringIcNS_11char_traitsIcEENS_9allocatorIcEEEEEENS8_ISB_EEE16__on_zero_sharedEv, symObjAddr: 0x6F70, symBinAddr: 0x8750, symSize: 0x20 }
  - { offset: 0x5AEBF, size: 0x8, addend: 0x0, symName: __ZNSt3__120__shared_ptr_emplaceIN8nlohmann16json_abi_v3_11_26detail21output_string_adapterIcNS_12basic_stringIcNS_11char_traitsIcEENS_9allocatorIcEEEEEENS8_ISB_EEE21__on_zero_shared_weakEv, symObjAddr: 0x6F90, symBinAddr: 0x8770, symSize: 0x60 }
  - { offset: 0x5AF01, size: 0x8, addend: 0x0, symName: __ZNSt3__114__shared_countC2B8de180100El, symObjAddr: 0x6FF0, symBinAddr: 0x87D0, symSize: 0x30 }
  - { offset: 0x5AF3A, size: 0x8, addend: 0x0, symName: __ZNSt3__120__shared_ptr_emplaceIN8nlohmann16json_abi_v3_11_26detail21output_string_adapterIcNS_12basic_stringIcNS_11char_traitsIcEENS_9allocatorIcEEEEEENS8_ISB_EEE8_StorageC2B8de180100EOSC_, symObjAddr: 0x7020, symBinAddr: 0x8800, symSize: 0x20 }
  - { offset: 0x5AF74, size: 0x8, addend: 0x0, symName: __ZNSt3__120__shared_ptr_emplaceIN8nlohmann16json_abi_v3_11_26detail21output_string_adapterIcNS_12basic_stringIcNS_11char_traitsIcEENS_9allocatorIcEEEEEENS8_ISB_EEE8_Storage11__get_allocB8de180100Ev, symObjAddr: 0x7040, symBinAddr: 0x8820, symSize: 0x40 }
  - { offset: 0x5AFCA, size: 0x8, addend: 0x0, symName: __ZNSt3__117__compressed_pairINS_9allocatorIN8nlohmann16json_abi_v3_11_26detail21output_string_adapterIcNS_12basic_stringIcNS_11char_traitsIcEENS1_IcEEEEEEEESB_E16__get_first_baseB8de180100EPSD_, symObjAddr: 0x7080, symBinAddr: 0x8860, symSize: 0x10 }
  - { offset: 0x5AFEE, size: 0x8, addend: 0x0, symName: __ZNSt3__19allocatorIN8nlohmann16json_abi_v3_11_26detail21output_string_adapterIcNS_12basic_stringIcNS_11char_traitsIcEENS0_IcEEEEEEE9constructB8de180100ISA_JRS9_EEEvPT_DpOT0_, symObjAddr: 0x7090, symBinAddr: 0x8870, symSize: 0x30 }
  - { offset: 0x5B048, size: 0x8, addend: 0x0, symName: __ZN8nlohmann16json_abi_v3_11_26detail21output_string_adapterIcNSt3__112basic_stringIcNS3_11char_traitsIcEENS3_9allocatorIcEEEEEC1ERS9_, symObjAddr: 0x70C0, symBinAddr: 0x88A0, symSize: 0x30 }
  - { offset: 0x5B082, size: 0x8, addend: 0x0, symName: __ZN8nlohmann16json_abi_v3_11_26detail21output_string_adapterIcNSt3__112basic_stringIcNS3_11char_traitsIcEENS3_9allocatorIcEEEEEC2ERS9_, symObjAddr: 0x70F0, symBinAddr: 0x88D0, symSize: 0x40 }
  - { offset: 0x5B0BC, size: 0x8, addend: 0x0, symName: __ZN8nlohmann16json_abi_v3_11_26detail23output_adapter_protocolIcEC2Ev, symObjAddr: 0x7130, symBinAddr: 0x8910, symSize: 0x20 }
  - { offset: 0x5B0E6, size: 0x8, addend: 0x0, symName: __ZN8nlohmann16json_abi_v3_11_26detail21output_string_adapterIcNSt3__112basic_stringIcNS3_11char_traitsIcEENS3_9allocatorIcEEEEE15write_characterEc, symObjAddr: 0x7150, symBinAddr: 0x8930, symSize: 0x30 }
  - { offset: 0x5B11C, size: 0x8, addend: 0x0, symName: __ZN8nlohmann16json_abi_v3_11_26detail21output_string_adapterIcNSt3__112basic_stringIcNS3_11char_traitsIcEENS3_9allocatorIcEEEEE16write_charactersEPKcm, symObjAddr: 0x7180, symBinAddr: 0x8960, symSize: 0x30 }
  - { offset: 0x5B162, size: 0x8, addend: 0x0, symName: __ZN8nlohmann16json_abi_v3_11_26detail21output_string_adapterIcNSt3__112basic_stringIcNS3_11char_traitsIcEENS3_9allocatorIcEEEEED1Ev, symObjAddr: 0x71B0, symBinAddr: 0x8990, symSize: 0x20 }
  - { offset: 0x5B18F, size: 0x8, addend: 0x0, symName: __ZN8nlohmann16json_abi_v3_11_26detail21output_string_adapterIcNSt3__112basic_stringIcNS3_11char_traitsIcEENS3_9allocatorIcEEEEED0Ev, symObjAddr: 0x71D0, symBinAddr: 0x89B0, symSize: 0x30 }
  - { offset: 0x5B1BC, size: 0x8, addend: 0x0, symName: __ZN8nlohmann16json_abi_v3_11_26detail23output_adapter_protocolIcED1Ev, symObjAddr: 0x7200, symBinAddr: 0x89E0, symSize: 0x10 }
  - { offset: 0x5B1E6, size: 0x8, addend: 0x0, symName: __ZN8nlohmann16json_abi_v3_11_26detail23output_adapter_protocolIcED0Ev, symObjAddr: 0x7210, symBinAddr: 0x89F0, symSize: 0x10 }
  - { offset: 0x5B210, size: 0x8, addend: 0x0, symName: __ZN8nlohmann16json_abi_v3_11_26detail21output_string_adapterIcNSt3__112basic_stringIcNS3_11char_traitsIcEENS3_9allocatorIcEEEEED2Ev, symObjAddr: 0x7220, symBinAddr: 0x8A00, symSize: 0x20 }
  - { offset: 0x5B23D, size: 0x8, addend: 0x0, symName: __ZN8nlohmann16json_abi_v3_11_26detail23output_adapter_protocolIcED2Ev, symObjAddr: 0x7240, symBinAddr: 0x8A20, symSize: 0x10 }
  - { offset: 0x5B267, size: 0x8, addend: 0x0, symName: __ZNSt3__120__shared_ptr_emplaceIN8nlohmann16json_abi_v3_11_26detail21output_string_adapterIcNS_12basic_stringIcNS_11char_traitsIcEENS_9allocatorIcEEEEEENS8_ISB_EEE8_StorageD2B8de180100Ev, symObjAddr: 0x7250, symBinAddr: 0x8A30, symSize: 0x20 }
  - { offset: 0x5B291, size: 0x8, addend: 0x0, symName: __ZNSt3__120__shared_ptr_emplaceIN8nlohmann16json_abi_v3_11_26detail21output_string_adapterIcNS_12basic_stringIcNS_11char_traitsIcEENS_9allocatorIcEEEEEENS8_ISB_EEED2Ev, symObjAddr: 0x7270, symBinAddr: 0x8A50, symSize: 0x40 }
  - { offset: 0x5B2BD, size: 0x8, addend: 0x0, symName: __ZNSt3__120__shared_ptr_emplaceIN8nlohmann16json_abi_v3_11_26detail21output_string_adapterIcNS_12basic_stringIcNS_11char_traitsIcEENS_9allocatorIcEEEEEENS8_ISB_EEE21__on_zero_shared_implB8de180100ISC_Li0EEEvv, symObjAddr: 0x72B0, symBinAddr: 0x8A90, symSize: 0x50 }
  - { offset: 0x5B30F, size: 0x8, addend: 0x0, symName: __ZNSt3__116allocator_traitsINS_9allocatorIN8nlohmann16json_abi_v3_11_26detail21output_string_adapterIcNS_12basic_stringIcNS_11char_traitsIcEENS1_IcEEEEEEEEE7destroyB8de180100ISB_vEEvRSC_PT_, symObjAddr: 0x7300, symBinAddr: 0x8AE0, symSize: 0x30 }
  - { offset: 0x5B34F, size: 0x8, addend: 0x0, symName: __ZNSt3__19allocatorIN8nlohmann16json_abi_v3_11_26detail21output_string_adapterIcNS_12basic_stringIcNS_11char_traitsIcEENS0_IcEEEEEEE7destroyB8de180100EPSA_, symObjAddr: 0x7330, symBinAddr: 0x8B10, symSize: 0x20 }
  - { offset: 0x5B384, size: 0x8, addend: 0x0, symName: __ZNSt3__116allocator_traitsINS_9allocatorINS_20__shared_ptr_emplaceIN8nlohmann16json_abi_v3_11_26detail21output_string_adapterIcNS_12basic_stringIcNS_11char_traitsIcEENS1_IcEEEEEENS1_ISC_EEEEEEE10deallocateB8de180100ERSF_PSE_m, symObjAddr: 0x7350, symBinAddr: 0x8B30, symSize: 0x30 }
  - { offset: 0x5B3C9, size: 0x8, addend: 0x0, symName: __ZNSt3__114pointer_traitsIPNS_20__shared_ptr_emplaceIN8nlohmann16json_abi_v3_11_26detail21output_string_adapterIcNS_12basic_stringIcNS_11char_traitsIcEENS_9allocatorIcEEEEEENS9_ISC_EEEEE10pointer_toB8de180100ERSE_, symObjAddr: 0x7380, symBinAddr: 0x8B60, symSize: 0x10 }
  - { offset: 0x5B3ED, size: 0x8, addend: 0x0, symName: __ZNSt3__19allocatorINS_20__shared_ptr_emplaceIN8nlohmann16json_abi_v3_11_26detail21output_string_adapterIcNS_12basic_stringIcNS_11char_traitsIcEENS0_IcEEEEEENS0_ISB_EEEEE10deallocateB8de180100EPSD_m, symObjAddr: 0x7390, symBinAddr: 0x8B70, symSize: 0x50 }
  - { offset: 0x5B431, size: 0x8, addend: 0x0, symName: __ZNSt3__110shared_ptrIN8nlohmann16json_abi_v3_11_26detail21output_string_adapterIcNS_12basic_stringIcNS_11char_traitsIcEENS_9allocatorIcEEEEEEEC1B8de180100Ev, symObjAddr: 0x73E0, symBinAddr: 0x8BC0, symSize: 0x20 }
  - { offset: 0x5B45B, size: 0x8, addend: 0x0, symName: __ZNSt3__110shared_ptrIN8nlohmann16json_abi_v3_11_26detail21output_string_adapterIcNS_12basic_stringIcNS_11char_traitsIcEENS_9allocatorIcEEEEEEE18__enable_weak_thisB8de180100Ez, symObjAddr: 0x7400, symBinAddr: 0x8BE0, symSize: 0x10 }
  - { offset: 0x5B482, size: 0x8, addend: 0x0, symName: __ZNSt3__110shared_ptrIN8nlohmann16json_abi_v3_11_26detail21output_string_adapterIcNS_12basic_stringIcNS_11char_traitsIcEENS_9allocatorIcEEEEEEEC2B8de180100Ev, symObjAddr: 0x7410, symBinAddr: 0x8BF0, symSize: 0x20 }
  - { offset: 0x5B4AC, size: 0x8, addend: 0x0, symName: __ZNSt3__120__shared_ptr_emplaceIN8nlohmann16json_abi_v3_11_26detail21output_string_adapterIcNS_12basic_stringIcNS_11char_traitsIcEENS_9allocatorIcEEEEEENS8_ISB_EEE8_Storage10__get_elemB8de180100Ev, symObjAddr: 0x7430, symBinAddr: 0x8C10, symSize: 0x40 }
  - { offset: 0x5B502, size: 0x8, addend: 0x0, symName: __ZNSt3__117__compressed_pairINS_9allocatorIN8nlohmann16json_abi_v3_11_26detail21output_string_adapterIcNS_12basic_stringIcNS_11char_traitsIcEENS1_IcEEEEEEEESB_E17__get_second_baseB8de180100EPSD_, symObjAddr: 0x7470, symBinAddr: 0x8C50, symSize: 0x10 }
  - { offset: 0x5B526, size: 0x8, addend: 0x0, symName: __ZNSt3__118__allocation_guardINS_9allocatorINS_20__shared_ptr_emplaceIN8nlohmann16json_abi_v3_11_26detail21output_string_adapterIcNS_12basic_stringIcNS_11char_traitsIcEENS1_IcEEEEEENS1_ISC_EEEEEEED2B8de180100Ev, symObjAddr: 0x7480, symBinAddr: 0x8C60, symSize: 0x20 }
  - { offset: 0x5B550, size: 0x8, addend: 0x0, symName: __ZNSt3__118__allocation_guardINS_9allocatorINS_20__shared_ptr_emplaceIN8nlohmann16json_abi_v3_11_26detail21output_string_adapterIcNS_12basic_stringIcNS_11char_traitsIcEENS1_IcEEEEEENS1_ISC_EEEEEEE9__destroyB8de180100Ev, symObjAddr: 0x74A0, symBinAddr: 0x8C80, symSize: 0x40 }
  - { offset: 0x5B576, size: 0x8, addend: 0x0, symName: __ZNSt3__19allocatorIN8nlohmann16json_abi_v3_11_26detail21output_string_adapterIcNS_12basic_stringIcNS_11char_traitsIcEENS0_IcEEEEEEEC2B8de180100Ev, symObjAddr: 0x74E0, symBinAddr: 0x8CC0, symSize: 0x20 }
  - { offset: 0x5B5A0, size: 0x8, addend: 0x0, symName: __ZNSt3__116__non_trivial_ifILb1ENS_9allocatorIN8nlohmann16json_abi_v3_11_26detail21output_string_adapterIcNS_12basic_stringIcNS_11char_traitsIcEENS1_IcEEEEEEEEEC2B8de180100Ev, symObjAddr: 0x7500, symBinAddr: 0x8CE0, symSize: 0x10 }
  - { offset: 0x5B5CA, size: 0x8, addend: 0x0, symName: __ZNSt3__110shared_ptrIN8nlohmann16json_abi_v3_11_26detail23output_adapter_protocolIcEEEC2B8de180100INS3_21output_string_adapterIcNS_12basic_stringIcNS_11char_traitsIcEENS_9allocatorIcEEEEEEvEEONS0_IT_EE, symObjAddr: 0x7510, symBinAddr: 0x8CF0, symSize: 0x40 }
  - { offset: 0x5B60F, size: 0x8, addend: 0x0, symName: __ZNSt3__110shared_ptrIN8nlohmann16json_abi_v3_11_26detail21output_string_adapterIcNS_12basic_stringIcNS_11char_traitsIcEENS_9allocatorIcEEEEEEED2B8de180100Ev, symObjAddr: 0x7550, symBinAddr: 0x8D30, symSize: 0x40 }
  - { offset: 0x5B639, size: 0x8, addend: 0x0, symName: __ZNSt3__119__shared_weak_count16__release_sharedB8de180100Ev, symObjAddr: 0x7590, symBinAddr: 0x8D70, symSize: 0x40 }
  - { offset: 0x5B65F, size: 0x8, addend: 0x0, symName: __ZNSt3__114__shared_count16__release_sharedB8de180100Ev, symObjAddr: 0x75D0, symBinAddr: 0x8DB0, symSize: 0x50 }
  - { offset: 0x5B685, size: 0x8, addend: 0x0, symName: __ZNSt3__110shared_ptrIN8nlohmann16json_abi_v3_11_26detail23output_adapter_protocolIcEEEC1B8de180100ERKS6_, symObjAddr: 0x7650, symBinAddr: 0x8E30, symSize: 0x30 }
  - { offset: 0x5B6BF, size: 0x8, addend: 0x0, symName: __ZNSt3__110shared_ptrIN8nlohmann16json_abi_v3_11_26detail23output_adapter_protocolIcEEEC2B8de180100ERKS6_, symObjAddr: 0x7680, symBinAddr: 0x8E60, symSize: 0x50 }
  - { offset: 0x5B6F9, size: 0x8, addend: 0x0, symName: __ZNSt3__119__shared_weak_count12__add_sharedB8de180100Ev, symObjAddr: 0x76D0, symBinAddr: 0x8EB0, symSize: 0x20 }
  - { offset: 0x5B71F, size: 0x8, addend: 0x0, symName: __ZNSt3__114__shared_count12__add_sharedB8de180100Ev, symObjAddr: 0x76F0, symBinAddr: 0x8ED0, symSize: 0x20 }
  - { offset: 0x5B745, size: 0x8, addend: 0x0, symName: __ZN8nlohmann16json_abi_v3_11_26detail10serializerINS0_10basic_jsonINSt3__13mapENS4_6vectorENS4_12basic_stringIcNS4_11char_traitsIcEENS4_9allocatorIcEEEEbxydSA_NS0_14adl_serializerENS6_IhNSA_IhEEEEEEEC2ENS4_10shared_ptrINS1_23output_adapter_protocolIcEEEEcNS1_15error_handler_tE, symObjAddr: 0x7740, symBinAddr: 0x8F20, symSize: 0x170 }
  - { offset: 0x5B7A0, size: 0x8, addend: 0x0, symName: __ZNSt3__110shared_ptrIN8nlohmann16json_abi_v3_11_26detail23output_adapter_protocolIcEEEC1B8de180100EOS6_, symObjAddr: 0x78B0, symBinAddr: 0x9090, symSize: 0x30 }
  - { offset: 0x5B7DA, size: 0x8, addend: 0x0, symName: __ZNSt3__111char_traitsIcE12to_char_typeB8de180100Ei, symObjAddr: 0x78E0, symBinAddr: 0x90C0, symSize: 0x10 }
  - { offset: 0x5B7FF, size: 0x8, addend: 0x0, symName: __ZNSt3__112basic_stringIcNS_11char_traitsIcEENS_9allocatorIcEEEC1B8de180100Emc, symObjAddr: 0x78F0, symBinAddr: 0x90D0, symSize: 0x30 }
  - { offset: 0x5B849, size: 0x8, addend: 0x0, symName: __ZNSt3__110shared_ptrIN8nlohmann16json_abi_v3_11_26detail23output_adapter_protocolIcEEEC2B8de180100EOS6_, symObjAddr: 0x7920, symBinAddr: 0x9100, symSize: 0x40 }
  - { offset: 0x5B883, size: 0x8, addend: 0x0, symName: __ZNSt3__112basic_stringIcNS_11char_traitsIcEENS_9allocatorIcEEEC2B8de180100Emc, symObjAddr: 0x7960, symBinAddr: 0x9140, symSize: 0x50 }
  - { offset: 0x5B8CD, size: 0x8, addend: 0x0, symName: __ZNSt3__117__compressed_pairINS_12basic_stringIcNS_11char_traitsIcEENS_9allocatorIcEEE5__repES5_EC1B8de180100INS_18__default_init_tagESA_EEOT_OT0_, symObjAddr: 0x79B0, symBinAddr: 0x9190, symSize: 0x30 }
  - { offset: 0x5B927, size: 0x8, addend: 0x0, symName: __ZNSt3__117__compressed_pairINS_12basic_stringIcNS_11char_traitsIcEENS_9allocatorIcEEE5__repES5_EC2B8de180100INS_18__default_init_tagESA_EEOT_OT0_, symObjAddr: 0x79E0, symBinAddr: 0x91C0, symSize: 0x30 }
  - { offset: 0x5B981, size: 0x8, addend: 0x0, symName: __ZNSt3__122__compressed_pair_elemINS_12basic_stringIcNS_11char_traitsIcEENS_9allocatorIcEEE5__repELi0ELb0EEC2B8de180100ENS_18__default_init_tagE, symObjAddr: 0x7A10, symBinAddr: 0x91F0, symSize: 0x10 }
  - { offset: 0x5B9B6, size: 0x8, addend: 0x0, symName: __ZNSt3__110shared_ptrIN8nlohmann16json_abi_v3_11_26detail23output_adapter_protocolIcEEED2B8de180100Ev, symObjAddr: 0x7A20, symBinAddr: 0x9200, symSize: 0x40 }
  - { offset: 0x5B9E0, size: 0x8, addend: 0x0, symName: __ZN8nlohmann16json_abi_v3_11_26detail14output_adapterIcNSt3__112basic_stringIcNS3_11char_traitsIcEENS3_9allocatorIcEEEEED2Ev, symObjAddr: 0x7A60, symBinAddr: 0x9240, symSize: 0x20 }
  - { offset: 0x5BA0D, size: 0x8, addend: 0x0, symName: __ZNKSt3__13mapINS_12basic_stringIcNS_11char_traitsIcEENS_9allocatorIcEEEEN8nlohmann16json_abi_v3_11_210basic_jsonIS0_NS_6vectorES6_bxydS4_NS8_14adl_serializerENSA_IhNS4_IhEEEEEENS_4lessIvEENS4_INS_4pairIKS6_SE_EEEEE5emptyB8de180100Ev, symObjAddr: 0x7A80, symBinAddr: 0x9260, symSize: 0x30 }
  - { offset: 0x5BA33, size: 0x8, addend: 0x0, symName: __ZNKSt3__110shared_ptrIN8nlohmann16json_abi_v3_11_26detail23output_adapter_protocolIcEEEptB8de180100Ev, symObjAddr: 0x7AB0, symBinAddr: 0x9290, symSize: 0x20 }
  - { offset: 0x5BA59, size: 0x8, addend: 0x0, symName: __ZNKSt3__112basic_stringIcNS_11char_traitsIcEENS_9allocatorIcEEE4sizeB8de180100Ev, symObjAddr: 0x7AD0, symBinAddr: 0x92B0, symSize: 0x50 }
  - { offset: 0x5BA7F, size: 0x8, addend: 0x0, symName: __ZNKSt3__13mapINS_12basic_stringIcNS_11char_traitsIcEENS_9allocatorIcEEEEN8nlohmann16json_abi_v3_11_210basic_jsonIS0_NS_6vectorES6_bxydS4_NS8_14adl_serializerENSA_IhNS4_IhEEEEEENS_4lessIvEENS4_INS_4pairIKS6_SE_EEEEE6cbeginB8de180100Ev, symObjAddr: 0x7B20, symBinAddr: 0x9300, symSize: 0x30 }
  - { offset: 0x5BAA5, size: 0x8, addend: 0x0, symName: __ZN8nlohmann16json_abi_v3_11_26detail10serializerINS0_10basic_jsonINSt3__13mapENS4_6vectorENS4_12basic_stringIcNS4_11char_traitsIcEENS4_9allocatorIcEEEEbxydSA_NS0_14adl_serializerENS6_IhNSA_IhEEEEEEE12dump_escapedERKSC_b, symObjAddr: 0x7B50, symBinAddr: 0x9330, symSize: 0xBB0 }
  - { offset: 0x5BB6A, size: 0x8, addend: 0x0, symName: __ZNKSt3__120__map_const_iteratorINS_21__tree_const_iteratorINS_12__value_typeINS_12basic_stringIcNS_11char_traitsIcEENS_9allocatorIcEEEEN8nlohmann16json_abi_v3_11_210basic_jsonINS_3mapENS_6vectorES8_bxydS6_NSA_14adl_serializerENSD_IhNS6_IhEEEEEEEEPNS_11__tree_nodeISI_PvEElEEEptB8de180100Ev, symObjAddr: 0x8700, symBinAddr: 0x9EE0, symSize: 0x30 }
  - { offset: 0x5BB90, size: 0x8, addend: 0x0, symName: __ZNSt3__120__map_const_iteratorINS_21__tree_const_iteratorINS_12__value_typeINS_12basic_stringIcNS_11char_traitsIcEENS_9allocatorIcEEEEN8nlohmann16json_abi_v3_11_210basic_jsonINS_3mapENS_6vectorES8_bxydS6_NSA_14adl_serializerENSD_IhNS6_IhEEEEEEEEPNS_11__tree_nodeISI_PvEElEEEppB8de180100Ev, symObjAddr: 0x8730, symBinAddr: 0x9F10, symSize: 0x30 }
  - { offset: 0x5BBB6, size: 0x8, addend: 0x0, symName: __ZNKSt3__13mapINS_12basic_stringIcNS_11char_traitsIcEENS_9allocatorIcEEEEN8nlohmann16json_abi_v3_11_210basic_jsonIS0_NS_6vectorES6_bxydS4_NS8_14adl_serializerENSA_IhNS4_IhEEEEEENS_4lessIvEENS4_INS_4pairIKS6_SE_EEEEE4cendB8de180100Ev, symObjAddr: 0x8790, symBinAddr: 0x9F70, symSize: 0x30 }
  - { offset: 0x5BBDC, size: 0x8, addend: 0x0, symName: __ZNKSt3__16vectorIN8nlohmann16json_abi_v3_11_210basic_jsonINS_3mapES0_NS_12basic_stringIcNS_11char_traitsIcEENS_9allocatorIcEEEEbxydS8_NS2_14adl_serializerENS0_IhNS8_IhEEEEEENS8_ISE_EEE6cbeginB8de180100Ev, symObjAddr: 0x8860, symBinAddr: 0xA040, symSize: 0x30 }
  - { offset: 0x5BC02, size: 0x8, addend: 0x0, symName: __ZNKSt3__16vectorIN8nlohmann16json_abi_v3_11_210basic_jsonINS_3mapES0_NS_12basic_stringIcNS_11char_traitsIcEENS_9allocatorIcEEEEbxydS8_NS2_14adl_serializerENS0_IhNS8_IhEEEEEENS8_ISE_EEE4cendB8de180100Ev, symObjAddr: 0x88C0, symBinAddr: 0xA0A0, symSize: 0x30 }
  - { offset: 0x5BC28, size: 0x8, addend: 0x0, symName: __ZNKSt3__111__wrap_iterIPKN8nlohmann16json_abi_v3_11_210basic_jsonINS_3mapENS_6vectorENS_12basic_stringIcNS_11char_traitsIcEENS_9allocatorIcEEEEbxydS9_NS2_14adl_serializerENS5_IhNS9_IhEEEEEEEmiB8de180100El, symObjAddr: 0x88F0, symBinAddr: 0xA0D0, symSize: 0x30 }
  - { offset: 0x5BC5D, size: 0x8, addend: 0x0, symName: __ZNKSt3__111__wrap_iterIPKN8nlohmann16json_abi_v3_11_210basic_jsonINS_3mapENS_6vectorENS_12basic_stringIcNS_11char_traitsIcEENS_9allocatorIcEEEEbxydS9_NS2_14adl_serializerENS5_IhNS9_IhEEEEEEEdeB8de180100Ev, symObjAddr: 0x8920, symBinAddr: 0xA100, symSize: 0x20 }
  - { offset: 0x5BC83, size: 0x8, addend: 0x0, symName: __ZNSt3__111__wrap_iterIPKN8nlohmann16json_abi_v3_11_210basic_jsonINS_3mapENS_6vectorENS_12basic_stringIcNS_11char_traitsIcEENS_9allocatorIcEEEEbxydS9_NS2_14adl_serializerENS5_IhNS9_IhEEEEEEEppB8de180100Ev, symObjAddr: 0x8940, symBinAddr: 0xA120, symSize: 0x20 }
  - { offset: 0x5BCA9, size: 0x8, addend: 0x0, symName: __ZNKSt3__16vectorIhNS_9allocatorIhEEE5emptyB8de180100Ev, symObjAddr: 0x8960, symBinAddr: 0xA140, symSize: 0x20 }
  - { offset: 0x5BCCF, size: 0x8, addend: 0x0, symName: __ZNKSt3__16vectorIhNS_9allocatorIhEEE6cbeginB8de180100Ev, symObjAddr: 0x8980, symBinAddr: 0xA160, symSize: 0x30 }
  - { offset: 0x5BCF5, size: 0x8, addend: 0x0, symName: __ZNKSt3__16vectorIhNS_9allocatorIhEEE4cendB8de180100Ev, symObjAddr: 0x89E0, symBinAddr: 0xA1C0, symSize: 0x30 }
  - { offset: 0x5BD1B, size: 0x8, addend: 0x0, symName: __ZNKSt3__111__wrap_iterIPKhEmiB8de180100El, symObjAddr: 0x8A10, symBinAddr: 0xA1F0, symSize: 0x30 }
  - { offset: 0x5BD50, size: 0x8, addend: 0x0, symName: __ZNKSt3__111__wrap_iterIPKhEdeB8de180100Ev, symObjAddr: 0x8CD0, symBinAddr: 0xA4B0, symSize: 0x20 }
  - { offset: 0x5BD76, size: 0x8, addend: 0x0, symName: __ZNSt3__111__wrap_iterIPKhEppB8de180100Ev, symObjAddr: 0x8CF0, symBinAddr: 0xA4D0, symSize: 0x20 }
  - { offset: 0x5BD9C, size: 0x8, addend: 0x0, symName: __ZNSt3__16vectorIhNS_9allocatorIhEEE4backB8de180100Ev, symObjAddr: 0x8D10, symBinAddr: 0xA4F0, symSize: 0x50 }
  - { offset: 0x5BDC2, size: 0x8, addend: 0x0, symName: __ZNK8nlohmann16json_abi_v3_11_227byte_container_with_subtypeINSt3__16vectorIhNS2_9allocatorIhEEEEE11has_subtypeEv, symObjAddr: 0x8D60, symBinAddr: 0xA540, symSize: 0x20 }
  - { offset: 0x5BDE8, size: 0x8, addend: 0x0, symName: __ZNK8nlohmann16json_abi_v3_11_227byte_container_with_subtypeINSt3__16vectorIhNS2_9allocatorIhEEEEE7subtypeEv, symObjAddr: 0x9000, symBinAddr: 0xA7E0, symSize: 0x50 }
  - { offset: 0x5BE0E, size: 0x8, addend: 0x0, symName: __ZNKSt3__112basic_stringIcNS_11char_traitsIcEENS_9allocatorIcEEE15__get_long_sizeB8de180100Ev, symObjAddr: 0x9340, symBinAddr: 0xAB20, symSize: 0x20 }
  - { offset: 0x5BE34, size: 0x8, addend: 0x0, symName: __ZNKSt3__112basic_stringIcNS_11char_traitsIcEENS_9allocatorIcEEE16__get_short_sizeB8de180100Ev, symObjAddr: 0x9360, symBinAddr: 0xAB40, symSize: 0x60 }
  - { offset: 0x5BE5A, size: 0x8, addend: 0x0, symName: __ZNKSt3__13mapINS_12basic_stringIcNS_11char_traitsIcEENS_9allocatorIcEEEEN8nlohmann16json_abi_v3_11_210basic_jsonIS0_NS_6vectorES6_bxydS4_NS8_14adl_serializerENSA_IhNS4_IhEEEEEENS_4lessIvEENS4_INS_4pairIKS6_SE_EEEEE5beginB8de180100Ev, symObjAddr: 0x93C0, symBinAddr: 0xABA0, symSize: 0x30 }
  - { offset: 0x5BE80, size: 0x8, addend: 0x0, symName: __ZNKSt3__16__treeINS_12__value_typeINS_12basic_stringIcNS_11char_traitsIcEENS_9allocatorIcEEEEN8nlohmann16json_abi_v3_11_210basic_jsonINS_3mapENS_6vectorES7_bxydS5_NS9_14adl_serializerENSC_IhNS5_IhEEEEEEEENS_19__map_value_compareIS7_SH_NS_4lessIvEELb1EEENS5_ISH_EEE5beginB8de180100Ev, symObjAddr: 0x93F0, symBinAddr: 0xABD0, symSize: 0x30 }
  - { offset: 0x5BEA6, size: 0x8, addend: 0x0, symName: __ZNSt3__120__map_const_iteratorINS_21__tree_const_iteratorINS_12__value_typeINS_12basic_stringIcNS_11char_traitsIcEENS_9allocatorIcEEEEN8nlohmann16json_abi_v3_11_210basic_jsonINS_3mapENS_6vectorES8_bxydS6_NSA_14adl_serializerENSD_IhNS6_IhEEEEEEEEPNS_11__tree_nodeISI_PvEElEEEC1B8de180100ESN_, symObjAddr: 0x9420, symBinAddr: 0xAC00, symSize: 0x30 }
  - { offset: 0x5BEE0, size: 0x8, addend: 0x0, symName: __ZNKSt3__16__treeINS_12__value_typeINS_12basic_stringIcNS_11char_traitsIcEENS_9allocatorIcEEEEN8nlohmann16json_abi_v3_11_210basic_jsonINS_3mapENS_6vectorES7_bxydS5_NS9_14adl_serializerENSC_IhNS5_IhEEEEEEEENS_19__map_value_compareIS7_SH_NS_4lessIvEELb1EEENS5_ISH_EEE12__begin_nodeB8de180100Ev, symObjAddr: 0x9450, symBinAddr: 0xAC30, symSize: 0x10 }
  - { offset: 0x5BF06, size: 0x8, addend: 0x0, symName: __ZNSt3__121__tree_const_iteratorINS_12__value_typeINS_12basic_stringIcNS_11char_traitsIcEENS_9allocatorIcEEEEN8nlohmann16json_abi_v3_11_210basic_jsonINS_3mapENS_6vectorES7_bxydS5_NS9_14adl_serializerENSC_IhNS5_IhEEEEEEEEPNS_11__tree_nodeISH_PvEElEC1B8de180100EPNS_15__tree_end_nodeIPNS_16__tree_node_baseISJ_EEEE, symObjAddr: 0x9460, symBinAddr: 0xAC40, symSize: 0x30 }
  - { offset: 0x5BF40, size: 0x8, addend: 0x0, symName: __ZNSt3__121__tree_const_iteratorINS_12__value_typeINS_12basic_stringIcNS_11char_traitsIcEENS_9allocatorIcEEEEN8nlohmann16json_abi_v3_11_210basic_jsonINS_3mapENS_6vectorES7_bxydS5_NS9_14adl_serializerENSC_IhNS5_IhEEEEEEEEPNS_11__tree_nodeISH_PvEElEC2B8de180100EPNS_15__tree_end_nodeIPNS_16__tree_node_baseISJ_EEEE, symObjAddr: 0x9490, symBinAddr: 0xAC70, symSize: 0x20 }
  - { offset: 0x5BF7A, size: 0x8, addend: 0x0, symName: __ZNSt3__120__map_const_iteratorINS_21__tree_const_iteratorINS_12__value_typeINS_12basic_stringIcNS_11char_traitsIcEENS_9allocatorIcEEEEN8nlohmann16json_abi_v3_11_210basic_jsonINS_3mapENS_6vectorES8_bxydS6_NSA_14adl_serializerENSD_IhNS6_IhEEEEEEEEPNS_11__tree_nodeISI_PvEElEEEC2B8de180100ESN_, symObjAddr: 0x94B0, symBinAddr: 0xAC90, symSize: 0x20 }
  - { offset: 0x5BFB4, size: 0x8, addend: 0x0, symName: __ZNKSt3__112basic_stringIcNS_11char_traitsIcEENS_9allocatorIcEEEixB8de180100Em, symObjAddr: 0x94D0, symBinAddr: 0xACB0, symSize: 0x60 }
  - { offset: 0x5BFEA, size: 0x8, addend: 0x0, symName: __ZNSt3__15arrayIcLm512EEixB8de180100Em, symObjAddr: 0x9690, symBinAddr: 0xAE70, symSize: 0x40 }
  - { offset: 0x5C01F, size: 0x8, addend: 0x0, symName: __ZNSt3__15arrayIcLm512EE4dataB8de180100Ev, symObjAddr: 0x96D0, symBinAddr: 0xAEB0, symSize: 0x10 }
  - { offset: 0x5C045, size: 0x8, addend: 0x0, symName: __ZNKSt3__15arrayIcLm512EE4sizeB8de180100Ev, symObjAddr: 0x96E0, symBinAddr: 0xAEC0, symSize: 0x10 }
  - { offset: 0x5C09A, size: 0x8, addend: 0x0, symName: __ZN8nlohmann16json_abi_v3_11_26detail10type_error6createIDnLi0EEES2_iRKNSt3__112basic_stringIcNS4_11char_traitsIcEENS4_9allocatorIcEEEET_, symObjAddr: 0x96F0, symBinAddr: 0xAED0, symSize: 0x160 }
  - { offset: 0x5C0FF, size: 0x8, addend: 0x0, symName: __ZN8nlohmann16json_abi_v3_11_26detail10serializerINS0_10basic_jsonINSt3__13mapENS4_6vectorENS4_12basic_stringIcNS4_11char_traitsIcEENS4_9allocatorIcEEEEbxydSA_NS0_14adl_serializerENS6_IhNSA_IhEEEEEEE9hex_bytesEh, symObjAddr: 0x9920, symBinAddr: 0xB100, symSize: 0xC0 }
  - { offset: 0x5C145, size: 0x8, addend: 0x0, symName: __ZN8nlohmann16json_abi_v3_11_26detail10type_errorD1Ev, symObjAddr: 0x99E0, symBinAddr: 0xB1C0, symSize: 0x20 }
  - { offset: 0x5C1B1, size: 0x8, addend: 0x0, symName: __ZN8nlohmann16json_abi_v3_11_26detail13binary_writerINS0_10basic_jsonINSt3__13mapENS4_6vectorENS4_12basic_stringIcNS4_11char_traitsIcEENS4_9allocatorIcEEEEbxydSA_NS0_14adl_serializerENS6_IhNSA_IhEEEEEEcE12to_char_typeIccLPv0EEEcT_, symObjAddr: 0x9A00, symBinAddr: 0xB1E0, symSize: 0x10 }
  - { offset: 0x5C1EF, size: 0x8, addend: 0x0, symName: __ZNKSt3__112basic_stringIcNS_11char_traitsIcEENS_9allocatorIcEEE4backB8de180100Ev, symObjAddr: 0x9AC0, symBinAddr: 0xB2A0, symSize: 0x60 }
  - { offset: 0x5C215, size: 0x8, addend: 0x0, symName: __ZNKSt3__15arrayIhLm400EE4sizeB8de180100Ev, symObjAddr: 0x9B40, symBinAddr: 0xB300, symSize: 0x10 }
  - { offset: 0x5C23B, size: 0x8, addend: 0x0, symName: __ZNKSt3__15arrayIhLm400EEixB8de180100Em, symObjAddr: 0x9B50, symBinAddr: 0xB310, symSize: 0x40 }
  - { offset: 0x5C270, size: 0x8, addend: 0x0, symName: __ZN8nlohmann16json_abi_v3_11_26detail9exception4nameERKNSt3__112basic_stringIcNS3_11char_traitsIcEENS3_9allocatorIcEEEEi, symObjAddr: 0x9C50, symBinAddr: 0xB410, symSize: 0xA0 }
  - { offset: 0x5C2AA, size: 0x8, addend: 0x0, symName: __ZNSt3__112basic_stringIcNS_11char_traitsIcEENS_9allocatorIcEEEC1B8de180100ILi0EEEPKc, symObjAddr: 0x9CF0, symBinAddr: 0xB4B0, symSize: 0x30 }
  - { offset: 0x5C2EB, size: 0x8, addend: 0x0, symName: __ZN8nlohmann16json_abi_v3_11_26detail9exception11diagnosticsEDn, symObjAddr: 0x9D20, symBinAddr: 0xB4E0, symSize: 0x30 }
  - { offset: 0x5C30C, size: 0x8, addend: 0x0, symName: __ZN8nlohmann16json_abi_v3_11_26detail10type_errorC1EiPKc, symObjAddr: 0x9D50, symBinAddr: 0xB510, symSize: 0x30 }
  - { offset: 0x5C356, size: 0x8, addend: 0x0, symName: __ZNSt3__112basic_stringIcNS_11char_traitsIcEENS_9allocatorIcEEE6appendB8de180100ERKS5_, symObjAddr: 0x9E80, symBinAddr: 0xB640, symSize: 0x50 }
  - { offset: 0x5C38C, size: 0x8, addend: 0x0, symName: __ZNSt3__112basic_stringIcNS_11char_traitsIcEENS_9allocatorIcEEEpLB8de180100Ec, symObjAddr: 0xA260, symBinAddr: 0xBA20, symSize: 0x30 }
  - { offset: 0x5C3C2, size: 0x8, addend: 0x0, symName: __ZNSt3__112basic_stringIcNS_11char_traitsIcEENS_9allocatorIcEEEC2B8de180100ILi0EEEPKc, symObjAddr: 0xA300, symBinAddr: 0xBAC0, symSize: 0x70 }
  - { offset: 0x5C403, size: 0x8, addend: 0x0, symName: __ZNSt3__111char_traitsIcE6lengthB8de180100EPKc, symObjAddr: 0xA370, symBinAddr: 0xBB30, symSize: 0x30 }
  - { offset: 0x5C427, size: 0x8, addend: 0x0, symName: __ZN8nlohmann16json_abi_v3_11_26detail10type_errorC2EiPKc, symObjAddr: 0xA3C0, symBinAddr: 0xBB80, symSize: 0x40 }
  - { offset: 0x5C471, size: 0x8, addend: 0x0, symName: __ZN8nlohmann16json_abi_v3_11_26detail9exceptionC2EiPKc, symObjAddr: 0xA400, symBinAddr: 0xBBC0, symSize: 0x70 }
  - { offset: 0x5C4BB, size: 0x8, addend: 0x0, symName: __ZN8nlohmann16json_abi_v3_11_26detail10type_errorD0Ev, symObjAddr: 0xA470, symBinAddr: 0xBC30, symSize: 0x30 }
  - { offset: 0x5C4E8, size: 0x8, addend: 0x0, symName: __ZNK8nlohmann16json_abi_v3_11_26detail9exception4whatEv, symObjAddr: 0xA4A0, symBinAddr: 0xBC60, symSize: 0x20 }
  - { offset: 0x5C50E, size: 0x8, addend: 0x0, symName: __ZNSt9exceptionC2B8de180100Ev, symObjAddr: 0xA4C0, symBinAddr: 0xBC80, symSize: 0x20 }
  - { offset: 0x5C538, size: 0x8, addend: 0x0, symName: __ZN8nlohmann16json_abi_v3_11_26detail9exceptionD1Ev, symObjAddr: 0xA4E0, symBinAddr: 0xBCA0, symSize: 0x20 }
  - { offset: 0x5C565, size: 0x8, addend: 0x0, symName: __ZN8nlohmann16json_abi_v3_11_26detail9exceptionD0Ev, symObjAddr: 0xA500, symBinAddr: 0xBCC0, symSize: 0x30 }
  - { offset: 0x5C592, size: 0x8, addend: 0x0, symName: __ZN8nlohmann16json_abi_v3_11_26detail9exceptionD2Ev, symObjAddr: 0xA530, symBinAddr: 0xBCF0, symSize: 0x40 }
  - { offset: 0x5C5BF, size: 0x8, addend: 0x0, symName: __ZNSt3__112basic_stringIcNS_11char_traitsIcEENS_9allocatorIcEEEixB8de180100Em, symObjAddr: 0xA740, symBinAddr: 0xBF00, symSize: 0x60 }
  - { offset: 0x5C5F5, size: 0x8, addend: 0x0, symName: __ZNSt3__112basic_stringIcNS_11char_traitsIcEENS_9allocatorIcEEE18__get_long_pointerB8de180100Ev, symObjAddr: 0xA7A0, symBinAddr: 0xBF60, symSize: 0x20 }
  - { offset: 0x5C61B, size: 0x8, addend: 0x0, symName: __ZNSt3__112basic_stringIcNS_11char_traitsIcEENS_9allocatorIcEEE13__get_pointerB8de180100Ev, symObjAddr: 0xA7C0, symBinAddr: 0xBF80, symSize: 0x50 }
  - { offset: 0x5C641, size: 0x8, addend: 0x0, symName: __ZNSt3__117__compressed_pairINS_12basic_stringIcNS_11char_traitsIcEENS_9allocatorIcEEE5__repES5_E5firstB8de180100Ev, symObjAddr: 0xA810, symBinAddr: 0xBFD0, symSize: 0x20 }
  - { offset: 0x5C667, size: 0x8, addend: 0x0, symName: __ZNSt3__122__compressed_pair_elemINS_12basic_stringIcNS_11char_traitsIcEENS_9allocatorIcEEE5__repELi0ELb0EE5__getB8de180100Ev, symObjAddr: 0xA830, symBinAddr: 0xBFF0, symSize: 0x10 }
  - { offset: 0x5C68D, size: 0x8, addend: 0x0, symName: __ZNSt3__112basic_stringIcNS_11char_traitsIcEENS_9allocatorIcEEE19__get_short_pointerB8de180100Ev, symObjAddr: 0xA840, symBinAddr: 0xC000, symSize: 0x30 }
  - { offset: 0x5C6B3, size: 0x8, addend: 0x0, symName: __ZNSt3__114pointer_traitsIPcE10pointer_toB8de180100ERc, symObjAddr: 0xA870, symBinAddr: 0xC030, symSize: 0x10 }
  - { offset: 0x5C6D7, size: 0x8, addend: 0x0, symName: __ZN8nlohmann16json_abi_v3_11_26detail10type_errorD2Ev, symObjAddr: 0xA880, symBinAddr: 0xC040, symSize: 0x20 }
  - { offset: 0x5C704, size: 0x8, addend: 0x0, symName: __ZNKSt3__112basic_stringIcNS_11char_traitsIcEENS_9allocatorIcEEE5emptyB8de180100Ev, symObjAddr: 0xA8E0, symBinAddr: 0xC0A0, symSize: 0x30 }
  - { offset: 0x5C72A, size: 0x8, addend: 0x0, symName: __ZNSt3__114pointer_traitsIPKNS_4pairIKNS_12basic_stringIcNS_11char_traitsIcEENS_9allocatorIcEEEEN8nlohmann16json_abi_v3_11_210basic_jsonINS_3mapENS_6vectorES7_bxydS5_NSA_14adl_serializerENSD_IhNS5_IhEEEEEEEEE10pointer_toB8de180100ERSJ_, symObjAddr: 0xA910, symBinAddr: 0xC0D0, symSize: 0x10 }
  - { offset: 0x5C74E, size: 0x8, addend: 0x0, symName: __ZNKSt3__121__tree_const_iteratorINS_12__value_typeINS_12basic_stringIcNS_11char_traitsIcEENS_9allocatorIcEEEEN8nlohmann16json_abi_v3_11_210basic_jsonINS_3mapENS_6vectorES7_bxydS5_NS9_14adl_serializerENSC_IhNS5_IhEEEEEEEEPNS_11__tree_nodeISH_PvEElEptB8de180100Ev, symObjAddr: 0xA920, symBinAddr: 0xC0E0, symSize: 0x30 }
  - { offset: 0x5C774, size: 0x8, addend: 0x0, symName: __ZNKSt3__112__value_typeINS_12basic_stringIcNS_11char_traitsIcEENS_9allocatorIcEEEEN8nlohmann16json_abi_v3_11_210basic_jsonINS_3mapENS_6vectorES6_bxydS4_NS8_14adl_serializerENSB_IhNS4_IhEEEEEEE11__get_valueB8de180100Ev, symObjAddr: 0xA950, symBinAddr: 0xC110, symSize: 0x20 }
  - { offset: 0x5C79A, size: 0x8, addend: 0x0, symName: __ZNSt3__114pointer_traitsIPKNS_12__value_typeINS_12basic_stringIcNS_11char_traitsIcEENS_9allocatorIcEEEEN8nlohmann16json_abi_v3_11_210basic_jsonINS_3mapENS_6vectorES7_bxydS5_NS9_14adl_serializerENSC_IhNS5_IhEEEEEEEEE10pointer_toB8de180100ERSI_, symObjAddr: 0xA970, symBinAddr: 0xC130, symSize: 0x10 }
  - { offset: 0x5C7BE, size: 0x8, addend: 0x0, symName: __ZNKSt3__121__tree_const_iteratorINS_12__value_typeINS_12basic_stringIcNS_11char_traitsIcEENS_9allocatorIcEEEEN8nlohmann16json_abi_v3_11_210basic_jsonINS_3mapENS_6vectorES7_bxydS5_NS9_14adl_serializerENSC_IhNS5_IhEEEEEEEEPNS_11__tree_nodeISH_PvEElE8__get_npB8de180100Ev, symObjAddr: 0xA980, symBinAddr: 0xC140, symSize: 0x20 }
  - { offset: 0x5C7E4, size: 0x8, addend: 0x0, symName: __ZNSt3__121__tree_const_iteratorINS_12__value_typeINS_12basic_stringIcNS_11char_traitsIcEENS_9allocatorIcEEEEN8nlohmann16json_abi_v3_11_210basic_jsonINS_3mapENS_6vectorES7_bxydS5_NS9_14adl_serializerENSC_IhNS5_IhEEEEEEEEPNS_11__tree_nodeISH_PvEElEppB8de180100Ev, symObjAddr: 0xA9D0, symBinAddr: 0xC190, symSize: 0x30 }
  - { offset: 0x5C80A, size: 0x8, addend: 0x0, symName: __ZNKSt3__13mapINS_12basic_stringIcNS_11char_traitsIcEENS_9allocatorIcEEEEN8nlohmann16json_abi_v3_11_210basic_jsonIS0_NS_6vectorES6_bxydS4_NS8_14adl_serializerENSA_IhNS4_IhEEEEEENS_4lessIvEENS4_INS_4pairIKS6_SE_EEEEE3endB8de180100Ev, symObjAddr: 0xAA60, symBinAddr: 0xC220, symSize: 0x30 }
  - { offset: 0x5C830, size: 0x8, addend: 0x0, symName: __ZNKSt3__16__treeINS_12__value_typeINS_12basic_stringIcNS_11char_traitsIcEENS_9allocatorIcEEEEN8nlohmann16json_abi_v3_11_210basic_jsonINS_3mapENS_6vectorES7_bxydS5_NS9_14adl_serializerENSC_IhNS5_IhEEEEEEEENS_19__map_value_compareIS7_SH_NS_4lessIvEELb1EEENS5_ISH_EEE3endB8de180100Ev, symObjAddr: 0xAA90, symBinAddr: 0xC250, symSize: 0x30 }
  - { offset: 0x5C856, size: 0x8, addend: 0x0, symName: __ZNSt3__120__map_const_iteratorINS_21__tree_const_iteratorINS_12__value_typeINS_12basic_stringIcNS_11char_traitsIcEENS_9allocatorIcEEEEN8nlohmann16json_abi_v3_11_210basic_jsonINS_3mapENS_6vectorES8_bxydS6_NSA_14adl_serializerENSD_IhNS6_IhEEEEEEEEPNS_11__tree_nodeISI_PvEElEEEmmB8de180100Ev, symObjAddr: 0xABC0, symBinAddr: 0xC380, symSize: 0x30 }
  - { offset: 0x5C87C, size: 0x8, addend: 0x0, symName: __ZNSt3__121__tree_const_iteratorINS_12__value_typeINS_12basic_stringIcNS_11char_traitsIcEENS_9allocatorIcEEEEN8nlohmann16json_abi_v3_11_210basic_jsonINS_3mapENS_6vectorES7_bxydS5_NS9_14adl_serializerENSC_IhNS5_IhEEEEEEEEPNS_11__tree_nodeISH_PvEElEmmB8de180100Ev, symObjAddr: 0xABF0, symBinAddr: 0xC3B0, symSize: 0x30 }
  - { offset: 0x5C8A2, size: 0x8, addend: 0x0, symName: __ZNKSt3__16vectorIN8nlohmann16json_abi_v3_11_210basic_jsonINS_3mapES0_NS_12basic_stringIcNS_11char_traitsIcEENS_9allocatorIcEEEEbxydS8_NS2_14adl_serializerENS0_IhNS8_IhEEEEEENS8_ISE_EEE5beginB8de180100Ev, symObjAddr: 0xAD00, symBinAddr: 0xC4C0, symSize: 0x30 }
  - { offset: 0x5C8CA, size: 0x8, addend: 0x0, symName: __ZNKSt3__16vectorIN8nlohmann16json_abi_v3_11_210basic_jsonINS_3mapES0_NS_12basic_stringIcNS_11char_traitsIcEENS_9allocatorIcEEEEbxydS8_NS2_14adl_serializerENS0_IhNS8_IhEEEEEENS8_ISE_EEE11__make_iterB8de180100EPKSE_, symObjAddr: 0xAD30, symBinAddr: 0xC4F0, symSize: 0x30 }
  - { offset: 0x5C900, size: 0x8, addend: 0x0, symName: __ZNSt3__111__wrap_iterIPKN8nlohmann16json_abi_v3_11_210basic_jsonINS_3mapENS_6vectorENS_12basic_stringIcNS_11char_traitsIcEENS_9allocatorIcEEEEbxydS9_NS2_14adl_serializerENS5_IhNS9_IhEEEEEEEC1B8de180100ESH_, symObjAddr: 0xAD60, symBinAddr: 0xC520, symSize: 0x30 }
  - { offset: 0x5C939, size: 0x8, addend: 0x0, symName: __ZNSt3__111__wrap_iterIPKN8nlohmann16json_abi_v3_11_210basic_jsonINS_3mapENS_6vectorENS_12basic_stringIcNS_11char_traitsIcEENS_9allocatorIcEEEEbxydS9_NS2_14adl_serializerENS5_IhNS9_IhEEEEEEEC2B8de180100ESH_, symObjAddr: 0xAD90, symBinAddr: 0xC550, symSize: 0x20 }
  - { offset: 0x5C972, size: 0x8, addend: 0x0, symName: __ZNKSt3__111__wrap_iterIPKN8nlohmann16json_abi_v3_11_210basic_jsonINS_3mapENS_6vectorENS_12basic_stringIcNS_11char_traitsIcEENS_9allocatorIcEEEEbxydS9_NS2_14adl_serializerENS5_IhNS9_IhEEEEEEE4baseB8de180100Ev, symObjAddr: 0xADF0, symBinAddr: 0xC5B0, symSize: 0x20 }
  - { offset: 0x5C998, size: 0x8, addend: 0x0, symName: __ZNKSt3__16vectorIN8nlohmann16json_abi_v3_11_210basic_jsonINS_3mapES0_NS_12basic_stringIcNS_11char_traitsIcEENS_9allocatorIcEEEEbxydS8_NS2_14adl_serializerENS0_IhNS8_IhEEEEEENS8_ISE_EEE3endB8de180100Ev, symObjAddr: 0xAE10, symBinAddr: 0xC5D0, symSize: 0x30 }
  - { offset: 0x5C9C0, size: 0x8, addend: 0x0, symName: __ZNKSt3__111__wrap_iterIPKN8nlohmann16json_abi_v3_11_210basic_jsonINS_3mapENS_6vectorENS_12basic_stringIcNS_11char_traitsIcEENS_9allocatorIcEEEEbxydS9_NS2_14adl_serializerENS5_IhNS9_IhEEEEEEEplB8de180100El, symObjAddr: 0xAE40, symBinAddr: 0xC600, symSize: 0x40 }
  - { offset: 0x5CA04, size: 0x8, addend: 0x0, symName: __ZNSt3__111__wrap_iterIPKN8nlohmann16json_abi_v3_11_210basic_jsonINS_3mapENS_6vectorENS_12basic_stringIcNS_11char_traitsIcEENS_9allocatorIcEEEEbxydS9_NS2_14adl_serializerENS5_IhNS9_IhEEEEEEEpLB8de180100El, symObjAddr: 0xAE80, symBinAddr: 0xC640, symSize: 0x20 }
  - { offset: 0x5CA39, size: 0x8, addend: 0x0, symName: __ZNKSt3__16vectorIhNS_9allocatorIhEEE5beginB8de180100Ev, symObjAddr: 0xAEA0, symBinAddr: 0xC660, symSize: 0x30 }
  - { offset: 0x5CA61, size: 0x8, addend: 0x0, symName: __ZNKSt3__16vectorIhNS_9allocatorIhEEE11__make_iterB8de180100EPKh, symObjAddr: 0xAED0, symBinAddr: 0xC690, symSize: 0x30 }
  - { offset: 0x5CA97, size: 0x8, addend: 0x0, symName: __ZNSt3__111__wrap_iterIPKhEC1B8de180100ES2_, symObjAddr: 0xAF00, symBinAddr: 0xC6C0, symSize: 0x30 }
  - { offset: 0x5CAD0, size: 0x8, addend: 0x0, symName: __ZNSt3__111__wrap_iterIPKhEC2B8de180100ES2_, symObjAddr: 0xAF30, symBinAddr: 0xC6F0, symSize: 0x20 }
  - { offset: 0x5CB09, size: 0x8, addend: 0x0, symName: __ZNKSt3__111__wrap_iterIPKhE4baseB8de180100Ev, symObjAddr: 0xAF90, symBinAddr: 0xC750, symSize: 0x20 }
  - { offset: 0x5CB2F, size: 0x8, addend: 0x0, symName: __ZNKSt3__16vectorIhNS_9allocatorIhEEE3endB8de180100Ev, symObjAddr: 0xAFB0, symBinAddr: 0xC770, symSize: 0x30 }
  - { offset: 0x5CB57, size: 0x8, addend: 0x0, symName: __ZNKSt3__111__wrap_iterIPKhEplB8de180100El, symObjAddr: 0xAFE0, symBinAddr: 0xC7A0, symSize: 0x40 }
  - { offset: 0x5CB9B, size: 0x8, addend: 0x0, symName: __ZNSt3__111__wrap_iterIPKhEpLB8de180100El, symObjAddr: 0xB020, symBinAddr: 0xC7E0, symSize: 0x20 }
  - { offset: 0x5CBD0, size: 0x8, addend: 0x0, symName: __ZNSt3__15arrayIcLm64EE5beginB8de180100Ev, symObjAddr: 0xB040, symBinAddr: 0xC800, symSize: 0x20 }
  - { offset: 0x5CBF6, size: 0x8, addend: 0x0, symName: __ZN8nlohmann16json_abi_v3_11_26detail10serializerINS0_10basic_jsonINSt3__13mapENS4_6vectorENS4_12basic_stringIcNS4_11char_traitsIcEENS4_9allocatorIcEEEEbxydSA_NS0_14adl_serializerENS6_IhNSA_IhEEEEEEE18is_negative_numberIhLi0EEEbT_, symObjAddr: 0xB060, symBinAddr: 0xC820, symSize: 0x20 }
  - { offset: 0x5CC38, size: 0x8, addend: 0x0, symName: __ZN8nlohmann16json_abi_v3_11_26detail10serializerINS0_10basic_jsonINSt3__13mapENS4_6vectorENS4_12basic_stringIcNS4_11char_traitsIcEENS4_9allocatorIcEEEEbxydSA_NS0_14adl_serializerENS6_IhNSA_IhEEEEEEE11remove_signEx, symObjAddr: 0xB080, symBinAddr: 0xC840, symSize: 0xA0 }
  - { offset: 0x5CC6E, size: 0x8, addend: 0x0, symName: __ZN8nlohmann16json_abi_v3_11_26detail10serializerINS0_10basic_jsonINSt3__13mapENS4_6vectorENS4_12basic_stringIcNS4_11char_traitsIcEENS4_9allocatorIcEEEEbxydSA_NS0_14adl_serializerENS6_IhNSA_IhEEEEEEE12count_digitsEy, symObjAddr: 0xB120, symBinAddr: 0xC8E0, symSize: 0xA0 }
  - { offset: 0x5CCB4, size: 0x8, addend: 0x0, symName: __ZNKSt3__15arrayIcLm64EE4sizeB8de180100Ev, symObjAddr: 0xB1C0, symBinAddr: 0xC980, symSize: 0x10 }
  - { offset: 0x5CCDA, size: 0x8, addend: 0x0, symName: __ZNKSt3__15arrayINS0_IcLm2EEELm100EEixB8de180100Em, symObjAddr: 0xB1D0, symBinAddr: 0xC990, symSize: 0x50 }
  - { offset: 0x5CD0F, size: 0x8, addend: 0x0, symName: __ZNKSt3__15arrayIcLm2EEixB8de180100Em, symObjAddr: 0xB220, symBinAddr: 0xC9E0, symSize: 0x40 }
  - { offset: 0x5CD44, size: 0x8, addend: 0x0, symName: __ZNSt3__15arrayIcLm64EE4dataB8de180100Ev, symObjAddr: 0xB260, symBinAddr: 0xCA20, symSize: 0x10 }
  - { offset: 0x5CD6A, size: 0x8, addend: 0x0, symName: __ZNSt3__114numeric_limitsIxE3maxB8de180100Ev, symObjAddr: 0xB270, symBinAddr: 0xCA30, symSize: 0x10 }
  - { offset: 0x5CD7E, size: 0x8, addend: 0x0, symName: __ZNSt3__123__libcpp_numeric_limitsIxLb1EE3maxB8de180100Ev, symObjAddr: 0xB280, symBinAddr: 0xCA40, symSize: 0x10 }
  - { offset: 0x5CD92, size: 0x8, addend: 0x0, symName: __ZN8nlohmann16json_abi_v3_11_26detail10serializerINS0_10basic_jsonINSt3__13mapENS4_6vectorENS4_12basic_stringIcNS4_11char_traitsIcEENS4_9allocatorIcEEEEbxydSA_NS0_14adl_serializerENS6_IhNSA_IhEEEEEEE18is_negative_numberIyLi0EEEbT_, symObjAddr: 0xB290, symBinAddr: 0xCA50, symSize: 0x20 }
  - { offset: 0x5CDD4, size: 0x8, addend: 0x0, symName: __ZN8nlohmann16json_abi_v3_11_26detail10serializerINS0_10basic_jsonINSt3__13mapENS4_6vectorENS4_12basic_stringIcNS4_11char_traitsIcEENS4_9allocatorIcEEEEbxydSA_NS0_14adl_serializerENS6_IhNSA_IhEEEEEEE18is_negative_numberIxLi0EEEbT_, symObjAddr: 0xB2B0, symBinAddr: 0xCA70, symSize: 0x20 }
  - { offset: 0x5CE1A, size: 0x8, addend: 0x0, symName: __ZN8nlohmann16json_abi_v3_11_26detail10serializerINS0_10basic_jsonINSt3__13mapENS4_6vectorENS4_12basic_stringIcNS4_11char_traitsIcEENS4_9allocatorIcEEEEbxydSA_NS0_14adl_serializerENS6_IhNSA_IhEEEEEEE10dump_floatEdNS4_17integral_constantIbLb1EEE, symObjAddr: 0xB310, symBinAddr: 0xCAD0, symSize: 0x90 }
  - { offset: 0x5CE8C, size: 0x8, addend: 0x0, symName: __ZN8nlohmann16json_abi_v3_11_26detail9dtoa_impl5diyfpC1Eyi, symObjAddr: 0xBEF0, symBinAddr: 0xD6B0, symSize: 0x30 }
  - { offset: 0x5CED6, size: 0x8, addend: 0x0, symName: __ZN8nlohmann16json_abi_v3_11_26detail9dtoa_impl5diyfp9normalizeES3_, symObjAddr: 0xBF20, symBinAddr: 0xD6E0, symSize: 0xA0 }
  - { offset: 0x5CEFB, size: 0x8, addend: 0x0, symName: __ZN8nlohmann16json_abi_v3_11_26detail9dtoa_impl5diyfp12normalize_toERKS3_i, symObjAddr: 0xBFC0, symBinAddr: 0xD780, symSize: 0xF0 }
  - { offset: 0x5CF40, size: 0x8, addend: 0x0, symName: __ZN8nlohmann16json_abi_v3_11_26detail9dtoa_impl5diyfpC2Eyi, symObjAddr: 0xC0B0, symBinAddr: 0xD870, symSize: 0x30 }
  - { offset: 0x5CF8A, size: 0x8, addend: 0x0, symName: __ZN8nlohmann16json_abi_v3_11_26detail9dtoa_impl5diyfp3mulERKS3_S5_, symObjAddr: 0xC300, symBinAddr: 0xDAC0, symSize: 0x130 }
  - { offset: 0x5D0BA, size: 0x8, addend: 0x0, symName: __ZNKSt3__15arrayIN8nlohmann16json_abi_v3_11_26detail9dtoa_impl12cached_powerELm79EE4sizeB8de180100Ev, symObjAddr: 0xC8C0, symBinAddr: 0xE080, symSize: 0x10 }
  - { offset: 0x5D0E0, size: 0x8, addend: 0x0, symName: __ZNKSt3__15arrayIN8nlohmann16json_abi_v3_11_26detail9dtoa_impl12cached_powerELm79EEixB8de180100Em, symObjAddr: 0xC8D0, symBinAddr: 0xE090, symSize: 0x50 }
  - { offset: 0x5D115, size: 0x8, addend: 0x0, symName: __ZN8nlohmann16json_abi_v3_11_26detail9dtoa_impl5diyfp3subERKS3_S5_, symObjAddr: 0xC920, symBinAddr: 0xE0E0, symSize: 0xE0 }
  - { offset: 0x5D14A, size: 0x8, addend: 0x0, symName: __ZNSt3__114numeric_limitsIyE3maxB8de180100Ev, symObjAddr: 0xCD60, symBinAddr: 0xE520, symSize: 0x10 }
  - { offset: 0x5D15E, size: 0x8, addend: 0x0, symName: __ZNSt3__123__libcpp_numeric_limitsIyLb1EE3maxB8de180100Ev, symObjAddr: 0xCD70, symBinAddr: 0xE530, symSize: 0x10 }
  - { offset: 0x5D172, size: 0x8, addend: 0x0, symName: __ZN8nlohmann16json_abi_v3_11_26detail10serializerINS0_10basic_jsonINSt3__13mapENS4_6vectorENS4_12basic_stringIcNS4_11char_traitsIcEENS4_9allocatorIcEEEEbxydSA_NS0_14adl_serializerENS6_IhNSA_IhEEEEEEED2Ev, symObjAddr: 0xCF70, symBinAddr: 0xE730, symSize: 0x2F }
  - { offset: 0x5F97E, size: 0x8, addend: 0x0, symName: __ZN27DataConsumerListenerAdapterC2Ev, symObjAddr: 0x0, symBinAddr: 0xE760, symSize: 0x40 }
  - { offset: 0x692E8, size: 0x8, addend: 0x0, symName: __ZN27DataConsumerListenerAdapterC2Ev, symObjAddr: 0x0, symBinAddr: 0xE760, symSize: 0x40 }
  - { offset: 0x69314, size: 0x8, addend: 0x0, symName: __ZN15mediasoupclient12DataConsumer8ListenerC2Ev, symObjAddr: 0x40, symBinAddr: 0xE7A0, symSize: 0x20 }
  - { offset: 0x69340, size: 0x8, addend: 0x0, symName: __ZN27DataConsumerListenerAdapterC1Ev, symObjAddr: 0x60, symBinAddr: 0xE7C0, symSize: 0x20 }
  - { offset: 0x6936C, size: 0x8, addend: 0x0, symName: __ZN27DataConsumerListenerAdapterD2Ev, symObjAddr: 0x80, symBinAddr: 0xE7E0, symSize: 0x40 }
  - { offset: 0x69398, size: 0x8, addend: 0x0, symName: __ZN27DataConsumerListenerAdapterD1Ev, symObjAddr: 0xC0, symBinAddr: 0xE820, symSize: 0x20 }
  - { offset: 0x693C4, size: 0x8, addend: 0x0, symName: __ZN27DataConsumerListenerAdapterD0Ev, symObjAddr: 0xE0, symBinAddr: 0xE840, symSize: 0x30 }
  - { offset: 0x693F0, size: 0x8, addend: 0x0, symName: __ZN27DataConsumerListenerAdapter9OnMessageEPN15mediasoupclient12DataConsumerERKN6webrtc10DataBufferE, symObjAddr: 0x110, symBinAddr: 0xE870, symSize: 0xF0 }
  - { offset: 0x69445, size: 0x8, addend: 0x0, symName: __ZNK3rtc17CopyOnWriteBuffer4dataIhLPv0EEEPKT_v, symObjAddr: 0x200, symBinAddr: 0xE960, symSize: 0x20 }
  - { offset: 0x6947B, size: 0x8, addend: 0x0, symName: __ZNK6webrtc10DataBuffer4sizeEv, symObjAddr: 0x220, symBinAddr: 0xE980, symSize: 0x20 }
  - { offset: 0x694A1, size: 0x8, addend: 0x0, symName: __ZN27DataConsumerListenerAdapter12OnConnectingEPN15mediasoupclient12DataConsumerE, symObjAddr: 0x240, symBinAddr: 0xE9A0, symSize: 0x80 }
  - { offset: 0x694D8, size: 0x8, addend: 0x0, symName: __ZN27DataConsumerListenerAdapter6OnOpenEPN15mediasoupclient12DataConsumerE, symObjAddr: 0x2C0, symBinAddr: 0xEA20, symSize: 0x80 }
  - { offset: 0x6950F, size: 0x8, addend: 0x0, symName: __ZN27DataConsumerListenerAdapter9OnClosingEPN15mediasoupclient12DataConsumerE, symObjAddr: 0x340, symBinAddr: 0xEAA0, symSize: 0x80 }
  - { offset: 0x69546, size: 0x8, addend: 0x0, symName: __ZN27DataConsumerListenerAdapter7OnCloseEPN15mediasoupclient12DataConsumerE, symObjAddr: 0x3C0, symBinAddr: 0xEB20, symSize: 0x80 }
  - { offset: 0x6957D, size: 0x8, addend: 0x0, symName: __ZN27DataConsumerListenerAdapter16OnTransportCloseEPN15mediasoupclient12DataConsumerE, symObjAddr: 0x440, symBinAddr: 0xEBA0, symSize: 0x80 }
  - { offset: 0x69624, size: 0x8, addend: 0x0, symName: __ZNK3rtc17CopyOnWriteBuffer4sizeEv, symObjAddr: 0x4C0, symBinAddr: 0xEC20, symSize: 0xA0 }
  - { offset: 0x696A4, size: 0x8, addend: 0x0, symName: __ZNK3rtc17CopyOnWriteBuffer12IsConsistentEv, symObjAddr: 0x560, symBinAddr: 0xECC0, symSize: 0xF0 }
  - { offset: 0x696CA, size: 0x8, addend: 0x0, symName: __ZN3rtc18webrtc_checks_impl12FatalLogCallILb0EEC1EPKciS4_, symObjAddr: 0x650, symBinAddr: 0xEDB0, symSize: 0x40 }
  - { offset: 0x69724, size: 0x8, addend: 0x0, symName: __ZNK3rtc13scoped_refptrINS_21FinalRefCountedObjectINS_7BufferTIhLb0EEEEEEcvbEv, symObjAddr: 0x690, symBinAddr: 0xEDF0, symSize: 0x20 }
  - { offset: 0x6974A, size: 0x8, addend: 0x0, symName: __ZNK3rtc13scoped_refptrINS_21FinalRefCountedObjectINS_7BufferTIhLb0EEEEEEptEv, symObjAddr: 0x6B0, symBinAddr: 0xEE10, symSize: 0x20 }
  - { offset: 0x69770, size: 0x8, addend: 0x0, symName: __ZNK3rtc7BufferTIhLb0EE8capacityEv, symObjAddr: 0x6D0, symBinAddr: 0xEE30, symSize: 0xA0 }
  - { offset: 0x697F0, size: 0x8, addend: 0x0, symName: __ZNK3rtc7BufferTIhLb0EE4sizeEv, symObjAddr: 0x770, symBinAddr: 0xEED0, symSize: 0xA0 }
  - { offset: 0x69870, size: 0x8, addend: 0x0, symName: __ZNK3rtc7BufferTIhLb0EE12IsConsistentEv, symObjAddr: 0x810, symBinAddr: 0xEF70, symSize: 0x60 }
  - { offset: 0x69896, size: 0x8, addend: 0x0, symName: __ZNKSt3__110unique_ptrIA_hNS_14default_deleteIS1_EEEcvbB8de180100Ev, symObjAddr: 0x870, symBinAddr: 0xEFD0, symSize: 0x30 }
  - { offset: 0x698BC, size: 0x8, addend: 0x0, symName: __ZNKSt3__117__compressed_pairIPhNS_14default_deleteIA_hEEE5firstB8de180100Ev, symObjAddr: 0x8A0, symBinAddr: 0xF000, symSize: 0x20 }
  - { offset: 0x698E2, size: 0x8, addend: 0x0, symName: __ZN3rtc18webrtc_checks_impl12FatalLogCallILb0EEC2EPKciS4_, symObjAddr: 0x8D0, symBinAddr: 0xF020, symSize: 0x30 }
  - { offset: 0x6993C, size: 0x8, addend: 0x0, symName: __ZNK3rtc17CopyOnWriteBuffer5cdataIhLPv0EEEPKT_v, symObjAddr: 0x900, symBinAddr: 0xF050, symSize: 0xE0 }
  - { offset: 0x699CC, size: 0x8, addend: 0x0, symName: __ZN3rtc7BufferTIhLb0EE4dataIhLPv0EEEPT_v, symObjAddr: 0x9E0, symBinAddr: 0xF130, symSize: 0xA0 }
  - { offset: 0x69A5C, size: 0x8, addend: 0x0, symName: __ZNKSt3__110unique_ptrIA_hNS_14default_deleteIS1_EEE3getB8de180100Ev, symObjAddr: 0xA80, symBinAddr: 0xF1D0, symSize: 0x1E }
  - { offset: 0xD41B1, size: 0x8, addend: 0x0, symName: __ZN31ReceiveTransportListenerAdapterC2Ev, symObjAddr: 0x0, symBinAddr: 0xF1F0, symSize: 0x40 }
  - { offset: 0xD41E2, size: 0x8, addend: 0x0, symName: __ZN15mediasoupclient13RecvTransport8ListenerC2Ev, symObjAddr: 0x40, symBinAddr: 0xF230, symSize: 0x40 }
  - { offset: 0xD420E, size: 0x8, addend: 0x0, symName: __ZN31ReceiveTransportListenerAdapterC1Ev, symObjAddr: 0x80, symBinAddr: 0xF270, symSize: 0x20 }
  - { offset: 0xD423A, size: 0x8, addend: 0x0, symName: __ZN31ReceiveTransportListenerAdapterD2Ev, symObjAddr: 0xA0, symBinAddr: 0xF290, symSize: 0x40 }
  - { offset: 0xD4266, size: 0x8, addend: 0x0, symName: __ZN15mediasoupclient13RecvTransport8ListenerD2Ev, symObjAddr: 0xE0, symBinAddr: 0xF2D0, symSize: 0x20 }
  - { offset: 0xD4292, size: 0x8, addend: 0x0, symName: __ZN31ReceiveTransportListenerAdapterD1Ev, symObjAddr: 0x100, symBinAddr: 0xF2F0, symSize: 0x20 }
  - { offset: 0xD42BE, size: 0x8, addend: 0x0, symName: __ZN31ReceiveTransportListenerAdapterD0Ev, symObjAddr: 0x120, symBinAddr: 0xF310, symSize: 0x30 }
  - { offset: 0xD42EA, size: 0x8, addend: 0x0, symName: __ZN31ReceiveTransportListenerAdapter9OnConnectEPN15mediasoupclient9TransportERKN8nlohmann16json_abi_v3_11_210basic_jsonINSt3__13mapENS6_6vectorENS6_12basic_stringIcNS6_11char_traitsIcEENS6_9allocatorIcEEEEbxydSC_NS4_14adl_serializerENS8_IhNSC_IhEEEEEE, symObjAddr: 0x150, symBinAddr: 0xF340, symSize: 0x1B0 }
  - { offset: 0xD434F, size: 0x8, addend: 0x0, symName: __ZN31ReceiveTransportListenerAdapter23OnConnectionStateChangeEPN15mediasoupclient9TransportERKNSt3__112basic_stringIcNS3_11char_traitsIcEENS3_9allocatorIcEEEE, symObjAddr: 0x590, symBinAddr: 0xF4F0, symSize: 0xE0 }
  - { offset: 0xD43A4, size: 0x8, addend: 0x0, symName: __ZN15mediasoupclient9Transport8ListenerC2Ev, symObjAddr: 0x670, symBinAddr: 0xF5D0, symSize: 0x20 }
  - { offset: 0xD43D0, size: 0x8, addend: 0x0, symName: __ZN15mediasoupclient13RecvTransport8ListenerD1Ev, symObjAddr: 0x690, symBinAddr: 0xF5F0, symSize: 0x10 }
  - { offset: 0xD43FC, size: 0x8, addend: 0x0, symName: __ZN15mediasoupclient13RecvTransport8ListenerD0Ev, symObjAddr: 0x6A0, symBinAddr: 0xF600, symSize: 0x10 }
  - { offset: 0xD4428, size: 0x8, addend: 0x0, symName: __ZN15mediasoupclient9Transport8ListenerD1Ev, symObjAddr: 0x6B0, symBinAddr: 0xF610, symSize: 0x10 }
  - { offset: 0xD4452, size: 0x8, addend: 0x0, symName: __ZN15mediasoupclient9Transport8ListenerD0Ev, symObjAddr: 0x6C0, symBinAddr: 0xF620, symSize: 0x10 }
  - { offset: 0xD447C, size: 0x8, addend: 0x0, symName: __ZN15mediasoupclient9Transport8ListenerD2Ev, symObjAddr: 0x6D0, symBinAddr: 0xF630, symSize: 0x10 }
  - { offset: 0xEB6BD, size: 0x8, addend: 0x0, symName: __ZNSt3__115make_error_codeB8de180100ENS_11future_errcE, symObjAddr: 0x9DA0, symBinAddr: 0x11050, symSize: 0x40 }
  - { offset: 0xEB6ED, size: 0x8, addend: 0x0, symName: __ZNSt3__121__libcpp_relaxed_loadB8de180100IlEET_PKS1_, symObjAddr: 0x9E90, symBinAddr: 0x11140, symSize: 0x20 }
  - { offset: 0xEB724, size: 0x8, addend: 0x0, symName: __ZNSt3__120__throw_future_errorB8de180100ENS_11future_errcE, symObjAddr: 0xA000, symBinAddr: 0x112B0, symSize: 0x80 }
  - { offset: 0xEC4D1, size: 0x8, addend: 0x0, symName: __ZSt18make_exception_ptrB8de180100I20MediaSoupClientErrorESt13exception_ptrT_, symObjAddr: 0xD10, symBinAddr: 0x100C0, symSize: 0xA0 }
  - { offset: 0xEC509, size: 0x8, addend: 0x0, symName: __ZSt18make_exception_ptrB8de180100INSt3__112future_errorEESt13exception_ptrT_, symObjAddr: 0x9D00, symBinAddr: 0x10FB0, symSize: 0xA0 }
  - { offset: 0xEC541, size: 0x8, addend: 0x0, symName: __ZStneB8de180100RKSt13exception_ptrS1_, symObjAddr: 0x9DE0, symBinAddr: 0x11090, symSize: 0x30 }
  - { offset: 0xEC57E, size: 0x8, addend: 0x0, symName: __ZSteqB8de180100RKSt13exception_ptrS1_, symObjAddr: 0x9E40, symBinAddr: 0x110F0, symSize: 0x30 }
  - { offset: 0xF2371, size: 0x8, addend: 0x0, symName: __ZN28SendTransportListenerAdapterC2Ev, symObjAddr: 0x0, symBinAddr: 0xF640, symSize: 0x40 }
  - { offset: 0xF239D, size: 0x8, addend: 0x0, symName: __ZN15mediasoupclient13SendTransport8ListenerC2Ev, symObjAddr: 0x40, symBinAddr: 0xF680, symSize: 0x40 }
  - { offset: 0xF23C9, size: 0x8, addend: 0x0, symName: __ZN28SendTransportListenerAdapterC1Ev, symObjAddr: 0x80, symBinAddr: 0xF6C0, symSize: 0x20 }
  - { offset: 0xF23F5, size: 0x8, addend: 0x0, symName: __ZN28SendTransportListenerAdapterD2Ev, symObjAddr: 0xA0, symBinAddr: 0xF6E0, symSize: 0x40 }
  - { offset: 0xF2421, size: 0x8, addend: 0x0, symName: __ZN15mediasoupclient13SendTransport8ListenerD2Ev, symObjAddr: 0xE0, symBinAddr: 0xF720, symSize: 0x20 }
  - { offset: 0xF244D, size: 0x8, addend: 0x0, symName: __ZN28SendTransportListenerAdapterD1Ev, symObjAddr: 0x100, symBinAddr: 0xF740, symSize: 0x20 }
  - { offset: 0xF2479, size: 0x8, addend: 0x0, symName: __ZN28SendTransportListenerAdapterD0Ev, symObjAddr: 0x120, symBinAddr: 0xF760, symSize: 0x30 }
  - { offset: 0xF24A5, size: 0x8, addend: 0x0, symName: __ZN28SendTransportListenerAdapter9OnConnectEPN15mediasoupclient9TransportERKN8nlohmann16json_abi_v3_11_210basic_jsonINSt3__13mapENS6_6vectorENS6_12basic_stringIcNS6_11char_traitsIcEENS6_9allocatorIcEEEEbxydSC_NS4_14adl_serializerENS8_IhNSC_IhEEEEEE, symObjAddr: 0x150, symBinAddr: 0xF790, symSize: 0x1B0 }
  - { offset: 0xF250A, size: 0x8, addend: 0x0, symName: __ZN28SendTransportListenerAdapter23OnConnectionStateChangeEPN15mediasoupclient9TransportERKNSt3__112basic_stringIcNS3_11char_traitsIcEENS3_9allocatorIcEEEE, symObjAddr: 0x590, symBinAddr: 0xF940, symSize: 0xE0 }
  - { offset: 0xF255F, size: 0x8, addend: 0x0, symName: __ZN28SendTransportListenerAdapter9OnProduceEPN15mediasoupclient13SendTransportERKNSt3__112basic_stringIcNS3_11char_traitsIcEENS3_9allocatorIcEEEEN8nlohmann16json_abi_v3_11_210basic_jsonINS3_3mapENS3_6vectorES9_bxydS7_NSD_14adl_serializerENSG_IhNS7_IhEEEEEERKSK_, symObjAddr: 0x670, symBinAddr: 0xFA20, symSize: 0x400 }
  - { offset: 0xF2607, size: 0x8, addend: 0x0, symName: ___Block_byref_object_copy_, symObjAddr: 0xA70, symBinAddr: 0xFE20, symSize: 0x30 }
  - { offset: 0xF264A, size: 0x8, addend: 0x0, symName: __ZNSt3__17promiseINS_12basic_stringIcNS_11char_traitsIcEENS_9allocatorIcEEEEEC1B8de180100EOS7_, symObjAddr: 0xAA0, symBinAddr: 0xFE50, symSize: 0x30 }
  - { offset: 0xF2684, size: 0x8, addend: 0x0, symName: ___Block_byref_object_dispose_, symObjAddr: 0xAD0, symBinAddr: 0xFE80, symSize: 0x20 }
  - { offset: 0xF26A2, size: 0x8, addend: 0x0, symName: __ZNSt3__17promiseINS_12basic_stringIcNS_11char_traitsIcEENS_9allocatorIcEEEEED1Ev, symObjAddr: 0xAF0, symBinAddr: 0xFEA0, symSize: 0x20 }
  - { offset: 0xF26CE, size: 0x8, addend: 0x0, symName: __ZNSt3__17promiseINS_12basic_stringIcNS_11char_traitsIcEENS_9allocatorIcEEEEEC1Ev, symObjAddr: 0xB10, symBinAddr: 0xFEC0, symSize: 0x20 }
  - { offset: 0xF26FA, size: 0x8, addend: 0x0, symName: ____ZN28SendTransportListenerAdapter9OnProduceEPN15mediasoupclient13SendTransportERKNSt3__112basic_stringIcNS3_11char_traitsIcEENS3_9allocatorIcEEEEN8nlohmann16json_abi_v3_11_210basic_jsonINS3_3mapENS3_6vectorES9_bxydS7_NSD_14adl_serializerENSG_IhNS7_IhEEEEEERKSK__block_invoke, symObjAddr: 0xB30, symBinAddr: 0xFEE0, symSize: 0x1E0 }
  - { offset: 0xF2761, size: 0x8, addend: 0x0, symName: __ZN20MediaSoupClientErrorC1EPKc, symObjAddr: 0xDB0, symBinAddr: 0x10160, symSize: 0x30 }
  - { offset: 0xF279B, size: 0x8, addend: 0x0, symName: __ZN20MediaSoupClientErrorD1Ev, symObjAddr: 0xDE0, symBinAddr: 0x10190, symSize: 0x20 }
  - { offset: 0xF27C7, size: 0x8, addend: 0x0, symName: __ZNSt3__17promiseINS_12basic_stringIcNS_11char_traitsIcEENS_9allocatorIcEEEEE13set_exceptionESt13exception_ptr, symObjAddr: 0xE00, symBinAddr: 0x101B0, symSize: 0xD0 }
  - { offset: 0xF2800, size: 0x8, addend: 0x0, symName: __ZNSt3__17promiseINS_12basic_stringIcNS_11char_traitsIcEENS_9allocatorIcEEEEE9set_valueEOS6_, symObjAddr: 0xED0, symBinAddr: 0x10280, symSize: 0x50 }
  - { offset: 0xF283D, size: 0x8, addend: 0x0, symName: ___copy_helper_block_ea8_32r, symObjAddr: 0xF50, symBinAddr: 0x102D0, symSize: 0x30 }
  - { offset: 0xF2864, size: 0x8, addend: 0x0, symName: ___destroy_helper_block_ea8_32r, symObjAddr: 0xF80, symBinAddr: 0x10300, symSize: 0x30 }
  - { offset: 0xF2882, size: 0x8, addend: 0x0, symName: __ZNSt3__17promiseINS_12basic_stringIcNS_11char_traitsIcEENS_9allocatorIcEEEEE10get_futureEv, symObjAddr: 0xFB0, symBinAddr: 0x10330, symSize: 0x60 }
  - { offset: 0xF28AA, size: 0x8, addend: 0x0, symName: __ZN28SendTransportListenerAdapter13OnProduceDataEPN15mediasoupclient13SendTransportERKN8nlohmann16json_abi_v3_11_210basic_jsonINSt3__13mapENS6_6vectorENS6_12basic_stringIcNS6_11char_traitsIcEENS6_9allocatorIcEEEEbxydSC_NS4_14adl_serializerENS8_IhNSC_IhEEEEEERKSE_SM_SK_, symObjAddr: 0x1010, symBinAddr: 0x10390, symSize: 0x490 }
  - { offset: 0xF2971, size: 0x8, addend: 0x0, symName: ____ZN28SendTransportListenerAdapter13OnProduceDataEPN15mediasoupclient13SendTransportERKN8nlohmann16json_abi_v3_11_210basic_jsonINSt3__13mapENS6_6vectorENS6_12basic_stringIcNS6_11char_traitsIcEENS6_9allocatorIcEEEEbxydSC_NS4_14adl_serializerENS8_IhNSC_IhEEEEEERKSE_SM_SK__block_invoke, symObjAddr: 0x14A0, symBinAddr: 0x10820, symSize: 0x1E0 }
  - { offset: 0xF29D8, size: 0x8, addend: 0x0, symName: __ZN15mediasoupclient13SendTransport8ListenerD1Ev, symObjAddr: 0x16A0, symBinAddr: 0x10A00, symSize: 0x10 }
  - { offset: 0xF2A04, size: 0x8, addend: 0x0, symName: __ZN15mediasoupclient13SendTransport8ListenerD0Ev, symObjAddr: 0x16B0, symBinAddr: 0x10A10, symSize: 0x10 }
  - { offset: 0xF2A30, size: 0x8, addend: 0x0, symName: __ZN20MediaSoupClientErrorC2EPKc, symObjAddr: 0x16F0, symBinAddr: 0x10A20, symSize: 0x40 }
  - { offset: 0xF2A6A, size: 0x8, addend: 0x0, symName: __ZN20MediaSoupClientErrorD0Ev, symObjAddr: 0x1730, symBinAddr: 0x10A60, symSize: 0x30 }
  - { offset: 0xF2A96, size: 0x8, addend: 0x0, symName: __ZN20MediaSoupClientErrorD2Ev, symObjAddr: 0x1760, symBinAddr: 0x10A90, symSize: 0x20 }
  - { offset: 0xF2AC2, size: 0x8, addend: 0x0, symName: __ZNSt3__17promiseINS_12basic_stringIcNS_11char_traitsIcEENS_9allocatorIcEEEEEC2Ev, symObjAddr: 0x9800, symBinAddr: 0x10AB0, symSize: 0x70 }
  - { offset: 0xF2AEE, size: 0x8, addend: 0x0, symName: __ZNSt3__113__assoc_stateINS_12basic_stringIcNS_11char_traitsIcEENS_9allocatorIcEEEEEC1Ev, symObjAddr: 0x9870, symBinAddr: 0x10B20, symSize: 0x20 }
  - { offset: 0xF2B1B, size: 0x8, addend: 0x0, symName: __ZNSt3__113__assoc_stateINS_12basic_stringIcNS_11char_traitsIcEENS_9allocatorIcEEEEEC2Ev, symObjAddr: 0x9890, symBinAddr: 0x10B40, symSize: 0x40 }
  - { offset: 0xF2B48, size: 0x8, addend: 0x0, symName: __ZNSt3__117__assoc_sub_stateC2B8de180100Ev, symObjAddr: 0x98D0, symBinAddr: 0x10B80, symSize: 0x70 }
  - { offset: 0xF2B72, size: 0x8, addend: 0x0, symName: __ZNSt3__113__assoc_stateINS_12basic_stringIcNS_11char_traitsIcEENS_9allocatorIcEEEEED1Ev, symObjAddr: 0x9940, symBinAddr: 0x10BF0, symSize: 0x20 }
  - { offset: 0xF2B9F, size: 0x8, addend: 0x0, symName: __ZNSt3__113__assoc_stateINS_12basic_stringIcNS_11char_traitsIcEENS_9allocatorIcEEEEED0Ev, symObjAddr: 0x9960, symBinAddr: 0x10C10, symSize: 0x30 }
  - { offset: 0xF2BCC, size: 0x8, addend: 0x0, symName: __ZNSt3__113__assoc_stateINS_12basic_stringIcNS_11char_traitsIcEENS_9allocatorIcEEEEE16__on_zero_sharedEv, symObjAddr: 0x9990, symBinAddr: 0x10C40, symSize: 0x60 }
  - { offset: 0xF2BF4, size: 0x8, addend: 0x0, symName: __ZNSt13exception_ptrC1B8de180100Ev, symObjAddr: 0x99F0, symBinAddr: 0x10CA0, symSize: 0x20 }
  - { offset: 0xF2C1E, size: 0x8, addend: 0x0, symName: __ZNSt3__15mutexC1B8de180100Ev, symObjAddr: 0x9A10, symBinAddr: 0x10CC0, symSize: 0x20 }
  - { offset: 0xF2C48, size: 0x8, addend: 0x0, symName: __ZNSt3__118condition_variableC1B8de180100Ev, symObjAddr: 0x9A30, symBinAddr: 0x10CE0, symSize: 0x20 }
  - { offset: 0xF2C72, size: 0x8, addend: 0x0, symName: __ZNSt13exception_ptrC2B8de180100Ev, symObjAddr: 0x9A50, symBinAddr: 0x10D00, symSize: 0x20 }
  - { offset: 0xF2C9C, size: 0x8, addend: 0x0, symName: __ZNSt3__15mutexC2B8de180100Ev, symObjAddr: 0x9A70, symBinAddr: 0x10D20, symSize: 0x30 }
  - { offset: 0xF2CC6, size: 0x8, addend: 0x0, symName: __ZNSt3__118condition_variableC2B8de180100Ev, symObjAddr: 0x9AA0, symBinAddr: 0x10D50, symSize: 0x30 }
  - { offset: 0xF2CF0, size: 0x8, addend: 0x0, symName: __ZNSt3__113__assoc_stateINS_12basic_stringIcNS_11char_traitsIcEENS_9allocatorIcEEEEED2Ev, symObjAddr: 0x9AD0, symBinAddr: 0x10D80, symSize: 0x20 }
  - { offset: 0xF2D1D, size: 0x8, addend: 0x0, symName: __ZNSt3__117__assoc_sub_stateD2Ev, symObjAddr: 0x9AF0, symBinAddr: 0x10DA0, symSize: 0x60 }
  - { offset: 0xF2D4A, size: 0x8, addend: 0x0, symName: __ZNSt3__17promiseINS_12basic_stringIcNS_11char_traitsIcEENS_9allocatorIcEEEEED2Ev, symObjAddr: 0x9B50, symBinAddr: 0x10E00, symSize: 0xE0 }
  - { offset: 0xF2D76, size: 0x8, addend: 0x0, symName: __ZNKSt3__117__assoc_sub_state11__has_valueB8de180100Ev, symObjAddr: 0x9C30, symBinAddr: 0x10EE0, symSize: 0x90 }
  - { offset: 0xF2D9C, size: 0x8, addend: 0x0, symName: __ZNKSt3__114__shared_count9use_countB8de180100Ev, symObjAddr: 0x9CC0, symBinAddr: 0x10F70, symSize: 0x40 }
  - { offset: 0xF2DC2, size: 0x8, addend: 0x0, symName: __ZNSt13exception_ptrC1B8de180100EDn, symObjAddr: 0x9E10, symBinAddr: 0x110C0, symSize: 0x30 }
  - { offset: 0xF2DF7, size: 0x8, addend: 0x0, symName: __ZNSt13exception_ptrC2B8de180100EDn, symObjAddr: 0x9E70, symBinAddr: 0x11120, symSize: 0x20 }
  - { offset: 0xF2E2C, size: 0x8, addend: 0x0, symName: __ZNSt3__112future_errorC1B8de180100ERKS0_, symObjAddr: 0x9EB0, symBinAddr: 0x11160, symSize: 0x30 }
  - { offset: 0xF2E62, size: 0x8, addend: 0x0, symName: __ZNSt3__112future_errorC2B8de180100ERKS0_, symObjAddr: 0x9EE0, symBinAddr: 0x11190, symSize: 0x50 }
  - { offset: 0xF2E98, size: 0x8, addend: 0x0, symName: __ZNSt3__110error_codeC1B8de180100EiRKNS_14error_categoryE, symObjAddr: 0x9F30, symBinAddr: 0x111E0, symSize: 0x30 }
  - { offset: 0xF2EE0, size: 0x8, addend: 0x0, symName: __ZNSt3__110error_codeC2B8de180100EiRKNS_14error_categoryE, symObjAddr: 0x9F60, symBinAddr: 0x11210, symSize: 0x30 }
  - { offset: 0xF2F33, size: 0x8, addend: 0x0, symName: __ZN20MediaSoupClientErrorC1ERKS_, symObjAddr: 0x9F90, symBinAddr: 0x11240, symSize: 0x30 }
  - { offset: 0xF2F68, size: 0x8, addend: 0x0, symName: __ZN20MediaSoupClientErrorC2ERKS_, symObjAddr: 0x9FC0, symBinAddr: 0x11270, symSize: 0x40 }
  - { offset: 0xF2F9D, size: 0x8, addend: 0x0, symName: __ZNSt3__113__assoc_stateINS_12basic_stringIcNS_11char_traitsIcEENS_9allocatorIcEEEEE9set_valueIS6_EEvOT_, symObjAddr: 0xA080, symBinAddr: 0x11330, symSize: 0xB0 }
  - { offset: 0xF2FEE, size: 0x8, addend: 0x0, symName: __ZNSt3__111unique_lockINS_5mutexEEC1B8de180100ERS1_, symObjAddr: 0xA130, symBinAddr: 0x113E0, symSize: 0x30 }
  - { offset: 0xF3027, size: 0x8, addend: 0x0, symName: __ZNSt3__112basic_stringIcNS_11char_traitsIcEENS_9allocatorIcEEEC1B8de180100EOS5_, symObjAddr: 0xA160, symBinAddr: 0x11410, symSize: 0x30 }
  - { offset: 0xF3061, size: 0x8, addend: 0x0, symName: __ZNSt3__111unique_lockINS_5mutexEED1B8de180100Ev, symObjAddr: 0xA190, symBinAddr: 0x11440, symSize: 0x20 }
  - { offset: 0xF308B, size: 0x8, addend: 0x0, symName: __ZNSt3__111unique_lockINS_5mutexEEC2B8de180100ERS1_, symObjAddr: 0xA1B0, symBinAddr: 0x11460, symSize: 0x30 }
  - { offset: 0xF30C4, size: 0x8, addend: 0x0, symName: __ZNSt3__112basic_stringIcNS_11char_traitsIcEENS_9allocatorIcEEEC2B8de180100EOS5_, symObjAddr: 0xA1E0, symBinAddr: 0x11490, symSize: 0xD0 }
  - { offset: 0xF312F, size: 0x8, addend: 0x0, symName: __ZZNSt3__112basic_stringIcNS_11char_traitsIcEENS_9allocatorIcEEEC1B8de180100EOS5_ENKUlRS5_E_clES7_, symObjAddr: 0xA2B0, symBinAddr: 0x11560, symSize: 0x40 }
  - { offset: 0xF3169, size: 0x8, addend: 0x0, symName: __ZNKSt3__112basic_stringIcNS_11char_traitsIcEENS_9allocatorIcEEE17__annotate_deleteB8de180100Ev, symObjAddr: 0xA2F0, symBinAddr: 0x115A0, symSize: 0x10 }
  - { offset: 0xF318F, size: 0x8, addend: 0x0, symName: __ZNSt3__111unique_lockINS_5mutexEED2B8de180100Ev, symObjAddr: 0xA300, symBinAddr: 0x115B0, symSize: 0x30 }
  - { offset: 0xF31B9, size: 0x8, addend: 0x0, symName: __ZNSt3__16futureINS_12basic_stringIcNS_11char_traitsIcEENS_9allocatorIcEEEEEC1EPNS_13__assoc_stateIS6_EE, symObjAddr: 0xA330, symBinAddr: 0x115E0, symSize: 0x30 }
  - { offset: 0xF31F5, size: 0x8, addend: 0x0, symName: __ZNSt3__16futureINS_12basic_stringIcNS_11char_traitsIcEENS_9allocatorIcEEEEEC2EPNS_13__assoc_stateIS6_EE, symObjAddr: 0xA360, symBinAddr: 0x11610, symSize: 0x30 }
  - { offset: 0xF3231, size: 0x8, addend: 0x0, symName: __ZNSt3__117__assoc_sub_state15__attach_futureB8de180100Ev, symObjAddr: 0xA390, symBinAddr: 0x11640, symSize: 0xB0 }
  - { offset: 0xF3293, size: 0x8, addend: 0x0, symName: __ZNSt3__110lock_guardINS_5mutexEEC1B8de180100ERS1_, symObjAddr: 0xA440, symBinAddr: 0x116F0, symSize: 0x30 }
  - { offset: 0xF32CC, size: 0x8, addend: 0x0, symName: __ZNSt3__110lock_guardINS_5mutexEED1B8de180100Ev, symObjAddr: 0xA470, symBinAddr: 0x11720, symSize: 0x20 }
  - { offset: 0xF32F6, size: 0x8, addend: 0x0, symName: __ZNSt3__110lock_guardINS_5mutexEEC2B8de180100ERS1_, symObjAddr: 0xA490, symBinAddr: 0x11740, symSize: 0x30 }
  - { offset: 0xF332F, size: 0x8, addend: 0x0, symName: __ZNSt3__110lock_guardINS_5mutexEED2B8de180100Ev, symObjAddr: 0xA4C0, symBinAddr: 0x11770, symSize: 0x20 }
  - { offset: 0xF3359, size: 0x8, addend: 0x0, symName: __ZNSt3__17promiseINS_12basic_stringIcNS_11char_traitsIcEENS_9allocatorIcEEEEEC2B8de180100EOS7_, symObjAddr: 0xA4E0, symBinAddr: 0x11790, symSize: 0x27 }
  - { offset: 0xF5391, size: 0x8, addend: 0x0, symName: _MediasoupClientMediaKindAudio, symObjAddr: 0x50, symBinAddr: 0xDC800, symSize: 0x0 }
  - { offset: 0xF53C3, size: 0x8, addend: 0x0, symName: _MediasoupClientMediaKindVideo, symObjAddr: 0x58, symBinAddr: 0xDC808, symSize: 0x0 }
  - { offset: 0xFD947, size: 0x8, addend: 0x0, symName: '-[ProducerWrapper initWithProducer:mediaStreamTrack:listenerAdapter:]', symObjAddr: 0x0, symBinAddr: 0x117C0, symSize: 0x140 }
  - { offset: 0xFD9AD, size: 0x8, addend: 0x0, symName: '-[ProducerWrapper dealloc]', symObjAddr: 0x140, symBinAddr: 0x11900, symSize: 0x1B0 }
  - { offset: 0xFDA0F, size: 0x8, addend: 0x0, symName: '___26-[ProducerWrapper dealloc]_block_invoke', symObjAddr: 0x2F0, symBinAddr: 0x11AB0, symSize: 0x70 }
  - { offset: 0xFDA6F, size: 0x8, addend: 0x0, symName: __ZN15mediasoupclient8ProducerD1Ev, symObjAddr: 0x360, symBinAddr: 0x11B20, symSize: 0x20 }
  - { offset: 0xFDA9B, size: 0x8, addend: 0x0, symName: '-[ProducerWrapper id]', symObjAddr: 0x400, symBinAddr: 0x11B40, symSize: 0x50 }
  - { offset: 0xFDAD4, size: 0x8, addend: 0x0, symName: '-[ProducerWrapper localId]', symObjAddr: 0x470, symBinAddr: 0x11B90, symSize: 0x50 }
  - { offset: 0xFDB0D, size: 0x8, addend: 0x0, symName: '-[ProducerWrapper closed]', symObjAddr: 0x4C0, symBinAddr: 0x11BE0, symSize: 0x40 }
  - { offset: 0xFDB46, size: 0x8, addend: 0x0, symName: '-[ProducerWrapper paused]', symObjAddr: 0x500, symBinAddr: 0x11C20, symSize: 0x40 }
  - { offset: 0xFDB7F, size: 0x8, addend: 0x0, symName: '-[ProducerWrapper kind]', symObjAddr: 0x540, symBinAddr: 0x11C60, symSize: 0xA0 }
  - { offset: 0xFDBB8, size: 0x8, addend: 0x0, symName: '-[ProducerWrapper maxSpatialLayer]', symObjAddr: 0x5E0, symBinAddr: 0x11D00, symSize: 0x30 }
  - { offset: 0xFDBF1, size: 0x8, addend: 0x0, symName: '-[ProducerWrapper appData]', symObjAddr: 0x610, symBinAddr: 0x11D30, symSize: 0xC0 }
  - { offset: 0xFDC2A, size: 0x8, addend: 0x0, symName: '-[ProducerWrapper rtpParameters]', symObjAddr: 0x940, symBinAddr: 0x11DF0, symSize: 0xC0 }
  - { offset: 0xFDC63, size: 0x8, addend: 0x0, symName: '-[ProducerWrapper stats]', symObjAddr: 0xA00, symBinAddr: 0x11EB0, symSize: 0x130 }
  - { offset: 0xFDCBA, size: 0x8, addend: 0x0, symName: '-[ProducerWrapper pause]', symObjAddr: 0xB30, symBinAddr: 0x11FE0, symSize: 0x30 }
  - { offset: 0xFDCEF, size: 0x8, addend: 0x0, symName: '-[ProducerWrapper resume]', symObjAddr: 0xB60, symBinAddr: 0x12010, symSize: 0x30 }
  - { offset: 0xFDD24, size: 0x8, addend: 0x0, symName: '-[ProducerWrapper close]', symObjAddr: 0xB90, symBinAddr: 0x12040, symSize: 0x30 }
  - { offset: 0xFDD59, size: 0x8, addend: 0x0, symName: '-[ProducerWrapper setMaxSpatialLayer:error:]', symObjAddr: 0xBC0, symBinAddr: 0x12070, symSize: 0xB0 }
  - { offset: 0xFDDAC, size: 0x8, addend: 0x0, symName: '___44-[ProducerWrapper setMaxSpatialLayer:error:]_block_invoke', symObjAddr: 0xC70, symBinAddr: 0x12120, symSize: 0x30 }
  - { offset: 0xFDDFE, size: 0x8, addend: 0x0, symName: '-[ProducerWrapper replaceTrack:error:]', symObjAddr: 0xCA0, symBinAddr: 0x12150, symSize: 0x130 }
  - { offset: 0xFDE51, size: 0x8, addend: 0x0, symName: '___38-[ProducerWrapper replaceTrack:error:]_block_invoke', symObjAddr: 0xDD0, symBinAddr: 0x12280, symSize: 0x60 }
  - { offset: 0xFDEC1, size: 0x8, addend: 0x0, symName: ___copy_helper_block_ea8_32s40s, symObjAddr: 0xE30, symBinAddr: 0x122E0, symSize: 0x60 }
  - { offset: 0xFDEE8, size: 0x8, addend: 0x0, symName: ___destroy_helper_block_ea8_32s40s, symObjAddr: 0xE90, symBinAddr: 0x12340, symSize: 0x40 }
  - { offset: 0xFDF06, size: 0x8, addend: 0x0, symName: '-[ProducerWrapper getStatsWithError:]', symObjAddr: 0xED0, symBinAddr: 0x12380, symSize: 0x170 }
  - { offset: 0xFDF63, size: 0x8, addend: 0x0, symName: ___Block_byref_object_copy_, symObjAddr: 0x1040, symBinAddr: 0x124F0, symSize: 0x50 }
  - { offset: 0xFDF8A, size: 0x8, addend: 0x0, symName: ___Block_byref_object_dispose_, symObjAddr: 0x1090, symBinAddr: 0x12540, symSize: 0x30 }
  - { offset: 0xFDFA8, size: 0x8, addend: 0x0, symName: '___37-[ProducerWrapper getStatsWithError:]_block_invoke', symObjAddr: 0x10C0, symBinAddr: 0x12570, symSize: 0x100 }
  - { offset: 0xFE000, size: 0x8, addend: 0x0, symName: '-[ProducerWrapper onTransportClose:]', symObjAddr: 0x1280, symBinAddr: 0x12670, symSize: 0xA0 }
  - { offset: 0xFE044, size: 0x8, addend: 0x0, symName: '-[ProducerWrapper delegate]', symObjAddr: 0x1320, symBinAddr: 0x12710, symSize: 0x30 }
  - { offset: 0xFE07D, size: 0x8, addend: 0x0, symName: '-[ProducerWrapper setDelegate:]', symObjAddr: 0x1350, symBinAddr: 0x12740, symSize: 0x30 }
  - { offset: 0xFE0BF, size: 0x8, addend: 0x0, symName: '-[ProducerWrapper track]', symObjAddr: 0x1380, symBinAddr: 0x12770, symSize: 0x20 }
  - { offset: 0xFE0F8, size: 0x8, addend: 0x0, symName: '-[ProducerWrapper setTrack:]', symObjAddr: 0x13A0, symBinAddr: 0x12790, symSize: 0x30 }
  - { offset: 0xFE13A, size: 0x8, addend: 0x0, symName: '-[ProducerWrapper .cxx_destruct]', symObjAddr: 0x13D0, symBinAddr: 0x127C0, symSize: 0x40 }
  - { offset: 0xFE16F, size: 0x8, addend: 0x0, symName: __ZN15mediasoupclient8ProducerD2Ev, symObjAddr: 0x1410, symBinAddr: 0x12800, symSize: 0x50 }
  - { offset: 0x101566, size: 0x8, addend: 0x0, symName: __ZN8nlohmann16json_abi_v3_11_26detail13input_adapterINSt3__112basic_stringIcNS3_11char_traitsIcEENS3_9allocatorIcEEEEEENS1_36container_input_adapter_factory_impl31container_input_adapter_factoryIT_vE12adapter_typeERKSC_, symObjAddr: 0xF9B0, symBinAddr: 0x16080, symSize: 0x30 }
  - { offset: 0x10169D, size: 0x8, addend: 0x0, symName: __ZN8nlohmann16json_abi_v3_11_26detail13input_adapterINSt3__111__wrap_iterIPKcEEEENS1_30iterator_input_adapter_factoryIT_vE12adapter_typeES9_S9_, symObjAddr: 0x16A80, symBinAddr: 0x1D150, symSize: 0x50 }
  - { offset: 0x102087, size: 0x8, addend: 0x0, symName: __ZN8nlohmann16json_abi_v3_11_26detail6concatINSt3__112basic_stringIcNS3_11char_traitsIcEENS3_9allocatorIcEEEEJRA26_KcS9_cEEET_DpOT0_, symObjAddr: 0x1D1F0, symBinAddr: 0x238C0, symSize: 0xC0 }
  - { offset: 0x10210A, size: 0x8, addend: 0x0, symName: __ZN8nlohmann16json_abi_v3_11_26detail6concatINSt3__112basic_stringIcNS3_11char_traitsIcEENS3_9allocatorIcEEEEJRA24_KcS9_EEET_DpOT0_, symObjAddr: 0x1DD80, symBinAddr: 0x24450, symSize: 0xB0 }
  - { offset: 0x102177, size: 0x8, addend: 0x0, symName: __ZN8nlohmann16json_abi_v3_11_26detail11concat_intoINSt3__112basic_stringIcNS3_11char_traitsIcEENS3_9allocatorIcEEEERA24_KcJS9_ELi0EEEvRT_OT0_DpOT1_, symObjAddr: 0x1F7F0, symBinAddr: 0x25EC0, symSize: 0x40 }
  - { offset: 0x102260, size: 0x8, addend: 0x0, symName: __ZN8nlohmann16json_abi_v3_11_26detaileqENS1_20primitive_iterator_tES2_, symObjAddr: 0x253E0, symBinAddr: 0x2BAB0, symSize: 0x20 }
  - { offset: 0x1022A0, size: 0x8, addend: 0x0, symName: __ZN8nlohmann16json_abi_v3_11_26detail6concatINSt3__112basic_stringIcNS3_11char_traitsIcEENS3_9allocatorIcEEEEJRA25_KcPSA_EEET_DpOT0_, symObjAddr: 0x25980, symBinAddr: 0x2C050, symSize: 0xB0 }
  - { offset: 0x10230D, size: 0x8, addend: 0x0, symName: __ZN8nlohmann16json_abi_v3_11_26detail13concat_lengthIJPKcEEEmS4_DpOT_, symObjAddr: 0x26840, symBinAddr: 0x2CF10, symSize: 0x40 }
  - { offset: 0x10235A, size: 0x8, addend: 0x0, symName: __ZN8nlohmann16json_abi_v3_11_26detail11concat_intoINSt3__112basic_stringIcNS3_11char_traitsIcEENS3_9allocatorIcEEEERA25_KcJPSA_ELi0EEEvRT_OT0_DpOT1_, symObjAddr: 0x26880, symBinAddr: 0x2CF50, symSize: 0x40 }
  - { offset: 0x1023CC, size: 0x8, addend: 0x0, symName: __ZN8nlohmann16json_abi_v3_11_26detail11concat_intoINSt3__112basic_stringIcNS3_11char_traitsIcEENS3_9allocatorIcEEEEPKcJELi0EEEvRT_OT0_DpOT1_, symObjAddr: 0x268C0, symBinAddr: 0x2CF90, symSize: 0x30 }
  - { offset: 0x102427, size: 0x8, addend: 0x0, symName: __ZN8nlohmann16json_abi_v3_11_26detail7to_jsonINS0_10basic_jsonINSt3__13mapENS4_6vectorENS4_12basic_stringIcNS4_11char_traitsIcEENS4_9allocatorIcEEEEbxydSA_NS0_14adl_serializerENS6_IhNSA_IhEEEEEESC_Li0EEEvRT_RKT0_, symObjAddr: 0x26CA0, symBinAddr: 0x2D370, symSize: 0x30 }
  - { offset: 0x1024B0, size: 0x8, addend: 0x0, symName: __ZN8nlohmann16json_abi_v3_11_26detail6concatINSt3__112basic_stringIcNS3_11char_traitsIcEENS3_9allocatorIcEEEEJRA23_KcS9_EEET_DpOT0_, symObjAddr: 0x271D0, symBinAddr: 0x2D8A0, symSize: 0xB0 }
  - { offset: 0x10251D, size: 0x8, addend: 0x0, symName: __ZN8nlohmann16json_abi_v3_11_26detail11concat_intoINSt3__112basic_stringIcNS3_11char_traitsIcEENS3_9allocatorIcEEEERA23_KcJS9_ELi0EEEvRT_OT0_DpOT1_, symObjAddr: 0x27280, symBinAddr: 0x2D950, symSize: 0x40 }
  - { offset: 0x10258F, size: 0x8, addend: 0x0, symName: __ZN8nlohmann16json_abi_v3_11_26detail13concat_lengthIJNSt3__112basic_stringIcNS3_11char_traitsIcEENS3_9allocatorIcEEEEcEEEmPKcDpOT_, symObjAddr: 0x273B0, symBinAddr: 0x2DA80, symSize: 0x40 }
  - { offset: 0x1025F2, size: 0x8, addend: 0x0, symName: __ZN8nlohmann16json_abi_v3_11_26detail11concat_intoINSt3__112basic_stringIcNS3_11char_traitsIcEENS3_9allocatorIcEEEERA26_KcJS9_cELi0EEEvRT_OT0_DpOT1_, symObjAddr: 0x273F0, symBinAddr: 0x2DAC0, symSize: 0x40 }
  - { offset: 0x10267A, size: 0x8, addend: 0x0, symName: __ZN8nlohmann16json_abi_v3_11_26detail13concat_lengthINSt3__112basic_stringIcNS3_11char_traitsIcEENS3_9allocatorIcEEEEJcEEEmRKT_DpOT0_, symObjAddr: 0x27430, symBinAddr: 0x2DB00, symSize: 0x40 }
  - { offset: 0x1026D0, size: 0x8, addend: 0x0, symName: __ZN8nlohmann16json_abi_v3_11_26detail13concat_lengthIJEEEmcDpOT_, symObjAddr: 0x27470, symBinAddr: 0x2DB40, symSize: 0x20 }
  - { offset: 0x102702, size: 0x8, addend: 0x0, symName: __ZN8nlohmann16json_abi_v3_11_26detail11concat_intoINSt3__112basic_stringIcNS3_11char_traitsIcEENS3_9allocatorIcEEEES9_JcELi0EEEvRT_OT0_DpOT1_, symObjAddr: 0x27490, symBinAddr: 0x2DB60, symSize: 0x40 }
  - { offset: 0x102774, size: 0x8, addend: 0x0, symName: __ZN8nlohmann16json_abi_v3_11_26detail11concat_intoINSt3__112basic_stringIcNS3_11char_traitsIcEENS3_9allocatorIcEEEEcJELi0EEEvRT_OT0_DpOT1_, symObjAddr: 0x274D0, symBinAddr: 0x2DBA0, symSize: 0x40 }
  - { offset: 0x1027CF, size: 0x8, addend: 0x0, symName: __ZN8nlohmann16json_abi_v3_11_26detail7to_jsonINS0_10basic_jsonINSt3__13mapENS4_6vectorENS4_12basic_stringIcNS4_11char_traitsIcEENS4_9allocatorIcEEEEbxydSA_NS0_14adl_serializerENS6_IhNSA_IhEEEEEEdLi0EEEvRT_T0_, symObjAddr: 0x27B90, symBinAddr: 0x2E260, symSize: 0x30 }
  - { offset: 0x102858, size: 0x8, addend: 0x0, symName: __ZN8nlohmann16json_abi_v3_11_26detail7to_jsonINS0_10basic_jsonINSt3__13mapENS4_6vectorENS4_12basic_stringIcNS4_11char_traitsIcEENS4_9allocatorIcEEEEbxydSA_NS0_14adl_serializerENS6_IhNSA_IhEEEEEEbLi0EEEvRT_T0_, symObjAddr: 0x28290, symBinAddr: 0x2E960, symSize: 0x30 }
  - { offset: 0x1028E1, size: 0x8, addend: 0x0, symName: __ZN8nlohmann16json_abi_v3_11_26detail7to_jsonINS0_10basic_jsonINSt3__13mapENS4_6vectorENS4_12basic_stringIcNS4_11char_traitsIcEENS4_9allocatorIcEEEEbxydSA_NS0_14adl_serializerENS6_IhNSA_IhEEEEEExLi0EEEvRT_T0_, symObjAddr: 0x28F00, symBinAddr: 0x2F5D0, symSize: 0x30 }
  - { offset: 0x10296A, size: 0x8, addend: 0x0, symName: __ZN8nlohmann16json_abi_v3_11_26detail7to_jsonINS0_10basic_jsonINSt3__13mapENS4_6vectorENS4_12basic_stringIcNS4_11char_traitsIcEENS4_9allocatorIcEEEEbxydSA_NS0_14adl_serializerENS6_IhNSA_IhEEEEEEyLi0EEEvRT_T0_, symObjAddr: 0x29B70, symBinAddr: 0x30240, symSize: 0x30 }
  - { offset: 0x1029F3, size: 0x8, addend: 0x0, symName: __ZN8nlohmann16json_abi_v3_11_26detail6concatINSt3__112basic_stringIcNS3_11char_traitsIcEENS3_9allocatorIcEEEEJS9_RA12_KcS9_RA3_SA_S9_RKS9_EEET_DpOT0_, symObjAddr: 0x29DC0, symBinAddr: 0x30490, symSize: 0xF0 }
  - { offset: 0x102AB8, size: 0x8, addend: 0x0, symName: __ZN8nlohmann16json_abi_v3_11_26detail13concat_lengthINSt3__112basic_stringIcNS3_11char_traitsIcEENS3_9allocatorIcEEEEJRA12_KcS9_RA3_SA_S9_RKS9_EEEmRKT_DpOT0_, symObjAddr: 0x29FB0, symBinAddr: 0x30680, symSize: 0x60 }
  - { offset: 0x102B66, size: 0x8, addend: 0x0, symName: __ZN8nlohmann16json_abi_v3_11_26detail11concat_intoINSt3__112basic_stringIcNS3_11char_traitsIcEENS3_9allocatorIcEEEES9_JRA12_KcS9_RA3_SA_S9_RKS9_ELi0EEEvRT_OT0_DpOT1_, symObjAddr: 0x2A010, symBinAddr: 0x306E0, symSize: 0x60 }
  - { offset: 0x102C30, size: 0x8, addend: 0x0, symName: __ZN8nlohmann16json_abi_v3_11_26detail13concat_lengthIJNSt3__112basic_stringIcNS3_11char_traitsIcEENS3_9allocatorIcEEEERA3_KcS9_RKS9_EEEmPSA_DpOT_, symObjAddr: 0x2A070, symBinAddr: 0x30740, symSize: 0x50 }
  - { offset: 0x102CBF, size: 0x8, addend: 0x0, symName: __ZN8nlohmann16json_abi_v3_11_26detail13concat_lengthINSt3__112basic_stringIcNS3_11char_traitsIcEENS3_9allocatorIcEEEEJRA3_KcS9_RKS9_EEEmRKT_DpOT0_, symObjAddr: 0x2A0C0, symBinAddr: 0x30790, symSize: 0x50 }
  - { offset: 0x102D41, size: 0x8, addend: 0x0, symName: __ZN8nlohmann16json_abi_v3_11_26detail13concat_lengthIJNSt3__112basic_stringIcNS3_11char_traitsIcEENS3_9allocatorIcEEEERKS9_EEEmPKcDpOT_, symObjAddr: 0x2A110, symBinAddr: 0x307E0, symSize: 0x40 }
  - { offset: 0x102DA4, size: 0x8, addend: 0x0, symName: __ZN8nlohmann16json_abi_v3_11_26detail11concat_intoINSt3__112basic_stringIcNS3_11char_traitsIcEENS3_9allocatorIcEEEERA12_KcJS9_RA3_SA_S9_RKS9_ELi0EEEvRT_OT0_DpOT1_, symObjAddr: 0x2A150, symBinAddr: 0x30820, symSize: 0x50 }
  - { offset: 0x102E58, size: 0x8, addend: 0x0, symName: __ZN8nlohmann16json_abi_v3_11_26detail11concat_intoINSt3__112basic_stringIcNS3_11char_traitsIcEENS3_9allocatorIcEEEES9_JRA3_KcS9_RKS9_ELi0EEEvRT_OT0_DpOT1_, symObjAddr: 0x2A1A0, symBinAddr: 0x30870, symSize: 0x50 }
  - { offset: 0x102EF6, size: 0x8, addend: 0x0, symName: __ZN8nlohmann16json_abi_v3_11_26detail11concat_intoINSt3__112basic_stringIcNS3_11char_traitsIcEENS3_9allocatorIcEEEERA3_KcJS9_RKS9_ELi0EEEvRT_OT0_DpOT1_, symObjAddr: 0x2A1F0, symBinAddr: 0x308C0, symSize: 0x40 }
  - { offset: 0x102F7E, size: 0x8, addend: 0x0, symName: __ZN8nlohmann16json_abi_v3_11_26detail6concatINSt3__112basic_stringIcNS3_11char_traitsIcEENS3_9allocatorIcEEEEJRA10_KcS9_SC_S9_EEET_DpOT0_, symObjAddr: 0x2A230, symBinAddr: 0x30900, symSize: 0xD0 }
  - { offset: 0x103017, size: 0x8, addend: 0x0, symName: __ZN8nlohmann16json_abi_v3_11_26detail13concat_lengthIJNSt3__112basic_stringIcNS3_11char_traitsIcEENS3_9allocatorIcEEEERA10_KcS9_EEEmPSA_DpOT_, symObjAddr: 0x2A300, symBinAddr: 0x309D0, symSize: 0x50 }
  - { offset: 0x103090, size: 0x8, addend: 0x0, symName: __ZN8nlohmann16json_abi_v3_11_26detail11concat_intoINSt3__112basic_stringIcNS3_11char_traitsIcEENS3_9allocatorIcEEEERA10_KcJS9_SC_S9_ELi0EEEvRT_OT0_DpOT1_, symObjAddr: 0x2A350, symBinAddr: 0x30A20, symSize: 0x50 }
  - { offset: 0x10312E, size: 0x8, addend: 0x0, symName: __ZN8nlohmann16json_abi_v3_11_26detail13concat_lengthINSt3__112basic_stringIcNS3_11char_traitsIcEENS3_9allocatorIcEEEEJRA10_KcS9_EEEmRKT_DpOT0_, symObjAddr: 0x2A3A0, symBinAddr: 0x30A70, symSize: 0x40 }
  - { offset: 0x10319A, size: 0x8, addend: 0x0, symName: __ZN8nlohmann16json_abi_v3_11_26detail11concat_intoINSt3__112basic_stringIcNS3_11char_traitsIcEENS3_9allocatorIcEEEES9_JRA10_KcS9_ELi0EEEvRT_OT0_DpOT1_, symObjAddr: 0x2A3E0, symBinAddr: 0x30AB0, symSize: 0x40 }
  - { offset: 0x103222, size: 0x8, addend: 0x0, symName: __ZN8nlohmann16json_abi_v3_11_26detail11concat_intoINSt3__112basic_stringIcNS3_11char_traitsIcEENS3_9allocatorIcEEEERA10_KcJS9_ELi0EEEvRT_OT0_DpOT1_, symObjAddr: 0x2A420, symBinAddr: 0x30AF0, symSize: 0x40 }
  - { offset: 0x103294, size: 0x8, addend: 0x0, symName: __ZN8nlohmann16json_abi_v3_11_26detail6concatINSt3__112basic_stringIcNS3_11char_traitsIcEENS3_9allocatorIcEEEEJRA15_KcRKS9_cEEET_DpOT0_, symObjAddr: 0x2A4B0, symBinAddr: 0x30B80, symSize: 0xC0 }
  - { offset: 0x103317, size: 0x8, addend: 0x0, symName: __ZN8nlohmann16json_abi_v3_11_26detail6concatINSt3__112basic_stringIcNS3_11char_traitsIcEENS3_9allocatorIcEEEEJPKcRA15_SA_S9_cEEET_DpOT0_, symObjAddr: 0x2A5A0, symBinAddr: 0x30C70, symSize: 0xD0 }
  - { offset: 0x1033B0, size: 0x8, addend: 0x0, symName: __ZN8nlohmann16json_abi_v3_11_26detail6concatINSt3__112basic_stringIcNS3_11char_traitsIcEENS3_9allocatorIcEEEEJRA12_KcPSA_EEET_DpOT0_, symObjAddr: 0x2A690, symBinAddr: 0x30D60, symSize: 0xB0 }
  - { offset: 0x10341D, size: 0x8, addend: 0x0, symName: __ZN8nlohmann16json_abi_v3_11_26detail13concat_lengthIJRKNSt3__112basic_stringIcNS3_11char_traitsIcEENS3_9allocatorIcEEEEcEEEmPKcDpOT_, symObjAddr: 0x2A8C0, symBinAddr: 0x30F90, symSize: 0x40 }
  - { offset: 0x103480, size: 0x8, addend: 0x0, symName: __ZN8nlohmann16json_abi_v3_11_26detail11concat_intoINSt3__112basic_stringIcNS3_11char_traitsIcEENS3_9allocatorIcEEEERA15_KcJRKS9_cELi0EEEvRT_OT0_DpOT1_, symObjAddr: 0x2A900, symBinAddr: 0x30FD0, symSize: 0x40 }
  - { offset: 0x103508, size: 0x8, addend: 0x0, symName: __ZN8nlohmann16json_abi_v3_11_26detail11concat_intoINSt3__112basic_stringIcNS3_11char_traitsIcEENS3_9allocatorIcEEEERKS9_JcELi0EEEvRT_OT0_DpOT1_, symObjAddr: 0x2A940, symBinAddr: 0x31010, symSize: 0x40 }
  - { offset: 0x10357A, size: 0x8, addend: 0x0, symName: __ZN8nlohmann16json_abi_v3_11_26detail13concat_lengthIJRA15_KcNSt3__112basic_stringIcNS6_11char_traitsIcEENS6_9allocatorIcEEEEcEEEmPS3_DpOT_, symObjAddr: 0x2A980, symBinAddr: 0x31050, symSize: 0x50 }
  - { offset: 0x1035F3, size: 0x8, addend: 0x0, symName: __ZN8nlohmann16json_abi_v3_11_26detail11concat_intoINSt3__112basic_stringIcNS3_11char_traitsIcEENS3_9allocatorIcEEEEPKcJRA15_SA_S9_cELi0EEEvRT_OT0_DpOT1_, symObjAddr: 0x2A9D0, symBinAddr: 0x310A0, symSize: 0x50 }
  - { offset: 0x103691, size: 0x8, addend: 0x0, symName: __ZN8nlohmann16json_abi_v3_11_26detail11concat_intoINSt3__112basic_stringIcNS3_11char_traitsIcEENS3_9allocatorIcEEEERA15_KcJS9_cELi0EEEvRT_OT0_DpOT1_, symObjAddr: 0x2AA20, symBinAddr: 0x310F0, symSize: 0x40 }
  - { offset: 0x103719, size: 0x8, addend: 0x0, symName: __ZN8nlohmann16json_abi_v3_11_26detail11concat_intoINSt3__112basic_stringIcNS3_11char_traitsIcEENS3_9allocatorIcEEEERA12_KcJPSA_ELi0EEEvRT_OT0_DpOT1_, symObjAddr: 0x2AA60, symBinAddr: 0x31130, symSize: 0x40 }
  - { offset: 0x10378B, size: 0x8, addend: 0x0, symName: __ZN8nlohmann16json_abi_v3_11_26detail6concatINSt3__112basic_stringIcNS3_11char_traitsIcEENS3_9allocatorIcEEEEJRA52_KcPSA_EEET_DpOT0_, symObjAddr: 0x2F580, symBinAddr: 0x35C50, symSize: 0xB0 }
  - { offset: 0x1037F8, size: 0x8, addend: 0x0, symName: __ZN8nlohmann16json_abi_v3_11_26detail11concat_intoINSt3__112basic_stringIcNS3_11char_traitsIcEENS3_9allocatorIcEEEERA52_KcJPSA_ELi0EEEvRT_OT0_DpOT1_, symObjAddr: 0x2F630, symBinAddr: 0x35D00, symSize: 0x40 }
  - { offset: 0x11B522, size: 0x8, addend: 0x0, symName: __ZNSt3__17advanceB8de180100INS_11__wrap_iterIPKcEEiivEEvRT_T0_, symObjAddr: 0x14A40, symBinAddr: 0x1B110, symSize: 0x70 }
  - { offset: 0x11E509, size: 0x8, addend: 0x0, symName: __ZNSt3__17advanceB8de180100INS_21__tree_const_iteratorINS_12__value_typeINS_12basic_stringIcNS_11char_traitsIcEENS_9allocatorIcEEEEN8nlohmann16json_abi_v3_11_210basic_jsonINS_3mapENS_6vectorES8_bxydS6_NSA_14adl_serializerENSD_IhNS6_IhEEEEEEEEPNS_11__tree_nodeISI_PvEElEEllvEEvRT_T0_, symObjAddr: 0x21A00, symBinAddr: 0x280D0, symSize: 0x70 }
  - { offset: 0x11E89A, size: 0x8, addend: 0x0, symName: __ZNSt3__17advanceB8de180100INS_14__map_iteratorINS_15__tree_iteratorINS_12__value_typeINS_12basic_stringIcNS_11char_traitsIcEENS_9allocatorIcEEEEN8nlohmann16json_abi_v3_11_210basic_jsonINS_3mapENS_6vectorES9_bxydS7_NSB_14adl_serializerENSE_IhNS7_IhEEEEEEEEPNS_11__tree_nodeISJ_PvEElEEEEiivEEvRT_T0_, symObjAddr: 0x26930, symBinAddr: 0x2D000, symSize: 0x70 }
  - { offset: 0x11E932, size: 0x8, addend: 0x0, symName: __ZNSt3__17advanceB8de180100INS_11__wrap_iterIPN8nlohmann16json_abi_v3_11_210basic_jsonINS_3mapENS_6vectorENS_12basic_stringIcNS_11char_traitsIcEENS_9allocatorIcEEEEbxydSA_NS3_14adl_serializerENS6_IhNSA_IhEEEEEEEEiivEEvRT_T0_, symObjAddr: 0x269A0, symBinAddr: 0x2D070, symSize: 0x70 }
  - { offset: 0x1203FC, size: 0x8, addend: 0x0, symName: __ZNSt3__1neB8de180100INS_3mapINS_12basic_stringIcNS_11char_traitsIcEENS_9allocatorIcEEEEN8nlohmann16json_abi_v3_11_210basic_jsonIS1_NS_6vectorES7_bxydS5_NS9_14adl_serializerENSB_IhNS5_IhEEEEEENS_4lessIvEENS5_INS_4pairIKS7_SF_EEEEEEZNSF_6createISM_JEEEPT_DpOT0_EUlPSM_E_EEbRKNS_10unique_ptrISO_T0_EEDn, symObjAddr: 0x109E0, symBinAddr: 0x170B0, symSize: 0x30 }
  - { offset: 0x12086E, size: 0x8, addend: 0x0, symName: __ZNSt3__1neB8de180100INS_6vectorIN8nlohmann16json_abi_v3_11_210basic_jsonINS_3mapES1_NS_12basic_stringIcNS_11char_traitsIcEENS_9allocatorIcEEEEbxydS9_NS3_14adl_serializerENS1_IhNS9_IhEEEEEENS9_ISF_EEEEZNSF_6createISH_JEEEPT_DpOT0_EUlPSH_E_EEbRKNS_10unique_ptrISJ_T0_EEDn, symObjAddr: 0x11120, symBinAddr: 0x177F0, symSize: 0x30 }
  - { offset: 0x120C23, size: 0x8, addend: 0x0, symName: __ZNSt3__1neB8de180100INS_12basic_stringIcNS_11char_traitsIcEENS_9allocatorIcEEEEZN8nlohmann16json_abi_v3_11_210basic_jsonINS_3mapENS_6vectorES6_bxydS4_NS8_14adl_serializerENSB_IhNS4_IhEEEEE6createIS6_JRA1_KcEEEPT_DpOT0_EUlPS6_E_EEbRKNS_10unique_ptrISK_T0_EEDn, symObjAddr: 0x11590, symBinAddr: 0x17C60, symSize: 0x30 }
  - { offset: 0x121095, size: 0x8, addend: 0x0, symName: __ZNSt3__1neB8de180100IN8nlohmann16json_abi_v3_11_227byte_container_with_subtypeINS_6vectorIhNS_9allocatorIhEEEEEEZNS2_10basic_jsonINS_3mapES4_NS_12basic_stringIcNS_11char_traitsIcEENS5_IcEEEEbxydS5_NS2_14adl_serializerES7_E6createIS8_JEEEPT_DpOT0_EUlPS8_E_EEbRKNS_10unique_ptrISJ_T0_EEDn, symObjAddr: 0x11A10, symBinAddr: 0x180E0, symSize: 0x30 }
  - { offset: 0x1216AB, size: 0x8, addend: 0x0, symName: __ZNSt3__1neB8de180100IPKcEEbRKNS_11__wrap_iterIT_EES7_, symObjAddr: 0x149E0, symBinAddr: 0x1B0B0, symSize: 0x30 }
  - { offset: 0x1216F1, size: 0x8, addend: 0x0, symName: __ZNSt3__1eqB8de180100IPKcEEbRKNS_11__wrap_iterIT_EES7_, symObjAddr: 0x14AB0, symBinAddr: 0x1B180, symSize: 0x40 }
  - { offset: 0x121737, size: 0x8, addend: 0x0, symName: __ZNSt3__121__convert_to_integralB8de180100Ei, symObjAddr: 0x14B10, symBinAddr: 0x1B1E0, symSize: 0x10 }
  - { offset: 0x121767, size: 0x8, addend: 0x0, symName: __ZNSt3__19__advanceB8de180100INS_11__wrap_iterIPKcEEEEvRT_NS_15iterator_traitsIS5_E15difference_typeENS_26random_access_iterator_tagE, symObjAddr: 0x14B20, symBinAddr: 0x1B1F0, symSize: 0x30 }
  - { offset: 0x1217B4, size: 0x8, addend: 0x0, symName: __ZNSt3__112__to_addressB8de180100IcEEPT_S2_, symObjAddr: 0x14DB0, symBinAddr: 0x1B480, symSize: 0x10 }
  - { offset: 0x1217EB, size: 0x8, addend: 0x0, symName: __ZNSt3__119__allocate_at_leastB8de180100INS_9allocatorIcEEEENS_19__allocation_resultINS_16allocator_traitsIT_E7pointerEEERS5_m, symObjAddr: 0x15340, symBinAddr: 0x1BA10, symSize: 0x40 }
  - { offset: 0x121834, size: 0x8, addend: 0x0, symName: __ZNSt3__142__uninitialized_allocator_move_if_noexceptB8de180100INS_9allocatorIcEENS_16reverse_iteratorIPcEES5_cvEET1_RT_T0_S9_S6_, symObjAddr: 0x154E0, symBinAddr: 0x1BBB0, symSize: 0x70 }
  - { offset: 0x1218B6, size: 0x8, addend: 0x0, symName: __ZNSt3__14swapB8de180100IPcEENS_9enable_ifIXaasr21is_move_constructibleIT_EE5valuesr18is_move_assignableIS3_EE5valueEvE4typeERS3_S6_, symObjAddr: 0x155A0, symBinAddr: 0x1BC70, symSize: 0x40 }
  - { offset: 0x12190F, size: 0x8, addend: 0x0, symName: __ZNSt3__14moveB8de180100INS_16reverse_iteratorIPcEES3_EET0_T_S5_S4_, symObjAddr: 0x155F0, symBinAddr: 0x1BCC0, symSize: 0x80 }
  - { offset: 0x121971, size: 0x8, addend: 0x0, symName: __ZNSt3__16__moveB8de180100INS_17_ClassicAlgPolicyENS_16reverse_iteratorIPcEES4_S4_EENS_4pairIT0_T2_EES6_T1_S7_, symObjAddr: 0x15670, symBinAddr: 0x1BD40, symSize: 0x90 }
  - { offset: 0x1219E5, size: 0x8, addend: 0x0, symName: __ZNSt3__123__dispatch_copy_or_moveB8de180100INS_17_ClassicAlgPolicyENS_11__move_loopIS1_EENS_14__move_trivialENS_16reverse_iteratorIPcEES7_S7_EENS_4pairIT2_T4_EES9_T3_SA_, symObjAddr: 0x15700, symBinAddr: 0x1BDD0, symSize: 0x90 }
  - { offset: 0x121A6B, size: 0x8, addend: 0x0, symName: __ZNSt3__121__unwrap_and_dispatchB8de180100INS_10__overloadINS_11__move_loopINS_17_ClassicAlgPolicyEEENS_14__move_trivialEEENS_16reverse_iteratorIPcEES9_S9_Li0EEENS_4pairIT0_T2_EESB_T1_SC_, symObjAddr: 0x15790, symBinAddr: 0x1BE60, symSize: 0x210 }
  - { offset: 0x121B07, size: 0x8, addend: 0x0, symName: __ZNSt3__114__unwrap_rangeB8de180100INS_16reverse_iteratorIPcEES3_EENS_4pairIT0_S5_EET_S7_, symObjAddr: 0x159A0, symBinAddr: 0x1C070, symSize: 0x90 }
  - { offset: 0x121C35, size: 0x8, addend: 0x0, symName: __ZNSt3__113__unwrap_iterB8de180100INS_16reverse_iteratorIPcEENS_18__unwrap_iter_implIS3_Lb0EEELi0EEEDTclsrT0_8__unwrapclsr3stdE7declvalIT_EEEES7_, symObjAddr: 0x15AD0, symBinAddr: 0x1C1A0, symSize: 0x40 }
  - { offset: 0x121C7E, size: 0x8, addend: 0x0, symName: __ZNSt3__19make_pairB8de180100INS_16reverse_iteratorIPcEES3_EENS_4pairINS_18__unwrap_ref_decayIT_E4typeENS5_IT0_E4typeEEEOS6_OS9_, symObjAddr: 0x15B10, symBinAddr: 0x1C1E0, symSize: 0x30 }
  - { offset: 0x121CD0, size: 0x8, addend: 0x0, symName: __ZNSt3__114__rewrap_rangeB8de180100INS_16reverse_iteratorIPcEES3_EET_S4_T0_, symObjAddr: 0x15B40, symBinAddr: 0x1C210, symSize: 0x60 }
  - { offset: 0x121D22, size: 0x8, addend: 0x0, symName: __ZNSt3__113__rewrap_iterB8de180100INS_16reverse_iteratorIPcEES3_NS_18__unwrap_iter_implIS3_Lb0EEEEET_S6_T0_, symObjAddr: 0x15BA0, symBinAddr: 0x1C270, symSize: 0x70 }
  - { offset: 0x121D7D, size: 0x8, addend: 0x0, symName: __ZNSt3__1neB8de180100IPcS1_EEbRKNS_16reverse_iteratorIT_EERKNS2_IT0_EE, symObjAddr: 0x15C10, symBinAddr: 0x1C2E0, symSize: 0x40 }
  - { offset: 0x121E26, size: 0x8, addend: 0x0, symName: __ZNSt3__15beginB8de180100INS_12basic_stringIcNS_11char_traitsIcEENS_9allocatorIcEEEEEEDTcldtfp_5beginEERKT_, symObjAddr: 0x16AD0, symBinAddr: 0x1D1A0, symSize: 0x30 }
  - { offset: 0x121E5F, size: 0x8, addend: 0x0, symName: __ZNSt3__13endB8de180100INS_12basic_stringIcNS_11char_traitsIcEENS_9allocatorIcEEEEEEDTcldtfp_3endEERKT_, symObjAddr: 0x16B00, symBinAddr: 0x1D1D0, symSize: 0x30 }
  - { offset: 0x1220A5, size: 0x8, addend: 0x0, symName: __ZNSt3__119__allocate_at_leastB8de180100INS_9allocatorImEEEENS_19__allocation_resultINS_16allocator_traitsIT_E7pointerEEERS5_m, symObjAddr: 0x1B610, symBinAddr: 0x21CE0, symSize: 0x40 }
  - { offset: 0x1220EE, size: 0x8, addend: 0x0, symName: __ZNSt3__16__copyB8de180100INS_17_ClassicAlgPolicyENS_14__bit_iteratorINS_6vectorIbNS_9allocatorIbEEEELb0ELm0EEES7_S7_EENS_4pairIT0_T2_EES9_T1_SA_, symObjAddr: 0x1B750, symBinAddr: 0x21E20, symSize: 0x70 }
  - { offset: 0x122165, size: 0x8, addend: 0x0, symName: __ZNSt3__123__dispatch_copy_or_moveB8de180100INS_17_ClassicAlgPolicyENS_11__copy_loopIS1_EENS_14__copy_trivialENS_14__bit_iteratorINS_6vectorIbNS_9allocatorIbEEEELb0ELm0EEESA_SA_EENS_4pairIT2_T4_EESC_T3_SD_, symObjAddr: 0x1B840, symBinAddr: 0x21F10, symSize: 0x70 }
  - { offset: 0x1221EE, size: 0x8, addend: 0x0, symName: __ZNSt3__121__unwrap_and_dispatchB8de180100INS_10__overloadINS_11__copy_loopINS_17_ClassicAlgPolicyEEENS_14__copy_trivialEEENS_14__bit_iteratorINS_6vectorIbNS_9allocatorIbEEEELb0ELm0EEESC_SC_Li0EEENS_4pairIT0_T2_EESE_T1_SF_, symObjAddr: 0x1B8B0, symBinAddr: 0x21F80, symSize: 0x190 }
  - { offset: 0x12228D, size: 0x8, addend: 0x0, symName: __ZNSt3__114__unwrap_rangeB8de180100INS_14__bit_iteratorINS_6vectorIbNS_9allocatorIbEEEELb0ELm0EEES6_EENS_4pairIT0_S8_EET_SA_, symObjAddr: 0x1BA40, symBinAddr: 0x22110, symSize: 0x70 }
  - { offset: 0x122413, size: 0x8, addend: 0x0, symName: __ZNSt3__113__unwrap_iterB8de180100INS_14__bit_iteratorINS_6vectorIbNS_9allocatorIbEEEELb0ELm0EEENS_18__unwrap_iter_implIS6_Lb0EEELi0EEEDTclsrT0_8__unwrapclsr3stdE7declvalIT_EEEESA_, symObjAddr: 0x1BB60, symBinAddr: 0x22230, symSize: 0x40 }
  - { offset: 0x12245D, size: 0x8, addend: 0x0, symName: __ZNSt3__19make_pairB8de180100INS_14__bit_iteratorINS_6vectorIbNS_9allocatorIbEEEELb0ELm0EEES6_EENS_4pairINS_18__unwrap_ref_decayIT_E4typeENS8_IT0_E4typeEEEOS9_OSC_, symObjAddr: 0x1BBA0, symBinAddr: 0x22270, symSize: 0x40 }
  - { offset: 0x1224AF, size: 0x8, addend: 0x0, symName: __ZNSt3__114__rewrap_rangeB8de180100INS_14__bit_iteratorINS_6vectorIbNS_9allocatorIbEEEELb0ELm0EEES6_EET_S7_T0_, symObjAddr: 0x1BBE0, symBinAddr: 0x222B0, symSize: 0x60 }
  - { offset: 0x122503, size: 0x8, addend: 0x0, symName: __ZNSt3__113__rewrap_iterB8de180100INS_14__bit_iteratorINS_6vectorIbNS_9allocatorIbEEEELb0ELm0EEES6_NS_18__unwrap_iter_implIS6_Lb0EEEEET_S9_T0_, symObjAddr: 0x1BC40, symBinAddr: 0x22310, symSize: 0x70 }
  - { offset: 0x122560, size: 0x8, addend: 0x0, symName: __ZNSt3__1neB8de180100ERKNS_14__bit_iteratorINS_6vectorIbNS_9allocatorIbEEEELb0ELm0EEES7_, symObjAddr: 0x1BCB0, symBinAddr: 0x22380, symSize: 0x30 }
  - { offset: 0x1225A0, size: 0x8, addend: 0x0, symName: __ZNSt3__1eqB8de180100ERKNS_14__bit_iteratorINS_6vectorIbNS_9allocatorIbEEEELb0ELm0EEES7_, symObjAddr: 0x1BDB0, symBinAddr: 0x22480, symSize: 0x50 }
  - { offset: 0x12262F, size: 0x8, addend: 0x0, symName: __ZNSt3__14swapB8de180100IPmEENS_9enable_ifIXaasr21is_move_constructibleIT_EE5valuesr18is_move_assignableIS3_EE5valueEvE4typeERS3_S6_, symObjAddr: 0x1C000, symBinAddr: 0x226D0, symSize: 0x40 }
  - { offset: 0x122688, size: 0x8, addend: 0x0, symName: __ZNSt3__14swapB8de180100ImEENS_9enable_ifIXaasr21is_move_constructibleIT_EE5valuesr18is_move_assignableIS2_EE5valueEvE4typeERS2_S5_, symObjAddr: 0x1C040, symBinAddr: 0x22710, symSize: 0x40 }
  - { offset: 0x1226E1, size: 0x8, addend: 0x0, symName: __ZNSt3__116__swap_allocatorB8de180100INS_9allocatorImEEEEvRT_S4_NS_17integral_constantIbLb0EEE, symObjAddr: 0x1C080, symBinAddr: 0x22750, symSize: 0x10 }
  - { offset: 0x12272A, size: 0x8, addend: 0x0, symName: __ZNSt3__112__to_addressB8de180100IPN8nlohmann16json_abi_v3_11_210basic_jsonINS_3mapENS_6vectorENS_12basic_stringIcNS_11char_traitsIcEENS_9allocatorIcEEEEbxydS9_NS2_14adl_serializerENS5_IhNS9_IhEEEEEEEEPT_SI_, symObjAddr: 0x1C4D0, symBinAddr: 0x22BA0, symSize: 0x10 }
  - { offset: 0x12289F, size: 0x8, addend: 0x0, symName: __ZNSt3__125__throw_bad_function_callB8de180100Ev, symObjAddr: 0x1DE90, symBinAddr: 0x24560, symSize: 0x40 }
  - { offset: 0x122926, size: 0x8, addend: 0x0, symName: __ZNSt3__119__allocate_at_leastB8de180100INS_9allocatorIPN8nlohmann16json_abi_v3_11_210basic_jsonINS_3mapENS_6vectorENS_12basic_stringIcNS_11char_traitsIcEENS1_IcEEEEbxydS1_NS3_14adl_serializerENS6_IhNS1_IhEEEEEEEEEENS_19__allocation_resultINS_16allocator_traitsIT_E7pointerEEERSK_m, symObjAddr: 0x1E930, symBinAddr: 0x25000, symSize: 0x40 }
  - { offset: 0x12296F, size: 0x8, addend: 0x0, symName: __ZNSt3__142__uninitialized_allocator_move_if_noexceptB8de180100INS_9allocatorIPN8nlohmann16json_abi_v3_11_210basic_jsonINS_3mapENS_6vectorENS_12basic_stringIcNS_11char_traitsIcEENS1_IcEEEEbxydS1_NS3_14adl_serializerENS6_IhNS1_IhEEEEEEEENS_16reverse_iteratorIPSG_EESK_SG_vEET1_RT_T0_SO_SL_, symObjAddr: 0x1EAC0, symBinAddr: 0x25190, symSize: 0x70 }
  - { offset: 0x1229F1, size: 0x8, addend: 0x0, symName: __ZNSt3__14swapB8de180100IPPN8nlohmann16json_abi_v3_11_210basic_jsonINS_3mapENS_6vectorENS_12basic_stringIcNS_11char_traitsIcEENS_9allocatorIcEEEEbxydS9_NS2_14adl_serializerENS5_IhNS9_IhEEEEEEEENS_9enable_ifIXaasr21is_move_constructibleIT_EE5valuesr18is_move_assignableISJ_EE5valueEvE4typeERSJ_SM_, symObjAddr: 0x1EB80, symBinAddr: 0x25250, symSize: 0x40 }
  - { offset: 0x122A4A, size: 0x8, addend: 0x0, symName: __ZNSt3__14moveB8de180100INS_16reverse_iteratorIPPN8nlohmann16json_abi_v3_11_210basic_jsonINS_3mapENS_6vectorENS_12basic_stringIcNS_11char_traitsIcEENS_9allocatorIcEEEEbxydSA_NS3_14adl_serializerENS6_IhNSA_IhEEEEEEEESJ_EET0_T_SL_SK_, symObjAddr: 0x1EBD0, symBinAddr: 0x252A0, symSize: 0x80 }
  - { offset: 0x122AAC, size: 0x8, addend: 0x0, symName: __ZNSt3__16__moveB8de180100INS_17_ClassicAlgPolicyENS_16reverse_iteratorIPPN8nlohmann16json_abi_v3_11_210basic_jsonINS_3mapENS_6vectorENS_12basic_stringIcNS_11char_traitsIcEENS_9allocatorIcEEEEbxydSB_NS4_14adl_serializerENS7_IhNSB_IhEEEEEEEESK_SK_EENS_4pairIT0_T2_EESM_T1_SN_, symObjAddr: 0x1EC50, symBinAddr: 0x25320, symSize: 0x90 }
  - { offset: 0x122B20, size: 0x8, addend: 0x0, symName: __ZNSt3__123__dispatch_copy_or_moveB8de180100INS_17_ClassicAlgPolicyENS_11__move_loopIS1_EENS_14__move_trivialENS_16reverse_iteratorIPPN8nlohmann16json_abi_v3_11_210basic_jsonINS_3mapENS_6vectorENS_12basic_stringIcNS_11char_traitsIcEENS_9allocatorIcEEEEbxydSE_NS7_14adl_serializerENSA_IhNSE_IhEEEEEEEESN_SN_EENS_4pairIT2_T4_EESP_T3_SQ_, symObjAddr: 0x1ECE0, symBinAddr: 0x253B0, symSize: 0x90 }
  - { offset: 0x122BA6, size: 0x8, addend: 0x0, symName: __ZNSt3__121__unwrap_and_dispatchB8de180100INS_10__overloadINS_11__move_loopINS_17_ClassicAlgPolicyEEENS_14__move_trivialEEENS_16reverse_iteratorIPPN8nlohmann16json_abi_v3_11_210basic_jsonINS_3mapENS_6vectorENS_12basic_stringIcNS_11char_traitsIcEENS_9allocatorIcEEEEbxydSG_NS9_14adl_serializerENSC_IhNSG_IhEEEEEEEESP_SP_Li0EEENS_4pairIT0_T2_EESR_T1_SS_, symObjAddr: 0x1ED70, symBinAddr: 0x25440, symSize: 0x210 }
  - { offset: 0x122C42, size: 0x8, addend: 0x0, symName: __ZNSt3__114__unwrap_rangeB8de180100INS_16reverse_iteratorIPPN8nlohmann16json_abi_v3_11_210basic_jsonINS_3mapENS_6vectorENS_12basic_stringIcNS_11char_traitsIcEENS_9allocatorIcEEEEbxydSA_NS3_14adl_serializerENS6_IhNSA_IhEEEEEEEESJ_EENS_4pairIT0_SL_EET_SN_, symObjAddr: 0x1EF80, symBinAddr: 0x25650, symSize: 0x90 }
  - { offset: 0x122D70, size: 0x8, addend: 0x0, symName: __ZNSt3__113__unwrap_iterB8de180100INS_16reverse_iteratorIPPN8nlohmann16json_abi_v3_11_210basic_jsonINS_3mapENS_6vectorENS_12basic_stringIcNS_11char_traitsIcEENS_9allocatorIcEEEEbxydSA_NS3_14adl_serializerENS6_IhNSA_IhEEEEEEEENS_18__unwrap_iter_implISJ_Lb0EEELi0EEEDTclsrT0_8__unwrapclsr3stdE7declvalIT_EEEESN_, symObjAddr: 0x1F0B0, symBinAddr: 0x25780, symSize: 0x40 }
  - { offset: 0x122DB9, size: 0x8, addend: 0x0, symName: __ZNSt3__19make_pairB8de180100INS_16reverse_iteratorIPPN8nlohmann16json_abi_v3_11_210basic_jsonINS_3mapENS_6vectorENS_12basic_stringIcNS_11char_traitsIcEENS_9allocatorIcEEEEbxydSA_NS3_14adl_serializerENS6_IhNSA_IhEEEEEEEESJ_EENS_4pairINS_18__unwrap_ref_decayIT_E4typeENSL_IT0_E4typeEEEOSM_OSP_, symObjAddr: 0x1F0F0, symBinAddr: 0x257C0, symSize: 0x30 }
  - { offset: 0x122E0B, size: 0x8, addend: 0x0, symName: __ZNSt3__114__rewrap_rangeB8de180100INS_16reverse_iteratorIPPN8nlohmann16json_abi_v3_11_210basic_jsonINS_3mapENS_6vectorENS_12basic_stringIcNS_11char_traitsIcEENS_9allocatorIcEEEEbxydSA_NS3_14adl_serializerENS6_IhNSA_IhEEEEEEEESJ_EET_SK_T0_, symObjAddr: 0x1F120, symBinAddr: 0x257F0, symSize: 0x60 }
  - { offset: 0x122E5D, size: 0x8, addend: 0x0, symName: __ZNSt3__113__rewrap_iterB8de180100INS_16reverse_iteratorIPPN8nlohmann16json_abi_v3_11_210basic_jsonINS_3mapENS_6vectorENS_12basic_stringIcNS_11char_traitsIcEENS_9allocatorIcEEEEbxydSA_NS3_14adl_serializerENS6_IhNSA_IhEEEEEEEESJ_NS_18__unwrap_iter_implISJ_Lb0EEEEET_SM_T0_, symObjAddr: 0x1F180, symBinAddr: 0x25850, symSize: 0x70 }
  - { offset: 0x122EB8, size: 0x8, addend: 0x0, symName: __ZNSt3__1neB8de180100IPPN8nlohmann16json_abi_v3_11_210basic_jsonINS_3mapENS_6vectorENS_12basic_stringIcNS_11char_traitsIcEENS_9allocatorIcEEEEbxydS9_NS2_14adl_serializerENS5_IhNS9_IhEEEEEESH_EEbRKNS_16reverse_iteratorIT_EERKNSI_IT0_EE, symObjAddr: 0x1F1F0, symBinAddr: 0x258C0, symSize: 0x40 }
  - { offset: 0x1232BD, size: 0x8, addend: 0x0, symName: __ZNSt3__1neB8de180100INS_3mapINS_12basic_stringIcNS_11char_traitsIcEENS_9allocatorIcEEEEN8nlohmann16json_abi_v3_11_210basic_jsonIS1_NS_6vectorES7_bxydS5_NS9_14adl_serializerENSB_IhNS5_IhEEEEEENS_4lessIvEENS5_INS_4pairIKS7_SF_EEEEEEZNSF_6createISM_JRKSM_EEEPT_DpOT0_EUlPSM_E_EEbRKNS_10unique_ptrISQ_T0_EEDn, symObjAddr: 0x20730, symBinAddr: 0x26E00, symSize: 0x30 }
  - { offset: 0x12330B, size: 0x8, addend: 0x0, symName: __ZNSt3__14nextB8de180100INS_21__tree_const_iteratorINS_12__value_typeINS_12basic_stringIcNS_11char_traitsIcEENS_9allocatorIcEEEEN8nlohmann16json_abi_v3_11_210basic_jsonINS_3mapENS_6vectorES8_bxydS6_NSA_14adl_serializerENSD_IhNS6_IhEEEEEEEEPNS_11__tree_nodeISI_PvEElEELi0EEET_SO_NS_15iterator_traitsISO_E15difference_typeE, symObjAddr: 0x21610, symBinAddr: 0x27CE0, symSize: 0x70 }
  - { offset: 0x12335B, size: 0x8, addend: 0x0, symName: __ZNSt3__1ltB8de180100IcNS_11char_traitsIcEENS_9allocatorIcEEEEbRKNS_12basic_stringIT_T0_T1_EESB_, symObjAddr: 0x21700, symBinAddr: 0x27DD0, symSize: 0x30 }
  - { offset: 0x1233B6, size: 0x8, addend: 0x0, symName: __ZNSt3__19__advanceB8de180100INS_21__tree_const_iteratorINS_12__value_typeINS_12basic_stringIcNS_11char_traitsIcEENS_9allocatorIcEEEEN8nlohmann16json_abi_v3_11_210basic_jsonINS_3mapENS_6vectorES8_bxydS6_NSA_14adl_serializerENSD_IhNS6_IhEEEEEEEEPNS_11__tree_nodeISI_PvEElEEEEvRT_NS_15iterator_traitsISO_E15difference_typeENS_26bidirectional_iterator_tagE, symObjAddr: 0x21A70, symBinAddr: 0x28140, symSize: 0x80 }
  - { offset: 0x123422, size: 0x8, addend: 0x0, symName: __ZNSt3__127__tree_balance_after_insertB8de180100IPNS_16__tree_node_baseIPvEEEEvT_S5_, symObjAddr: 0x21EA0, symBinAddr: 0x28570, symSize: 0x260 }
  - { offset: 0x1234A5, size: 0x8, addend: 0x0, symName: __ZNSt3__118__tree_left_rotateB8de180100IPNS_16__tree_node_baseIPvEEEEvT_, symObjAddr: 0x22100, symBinAddr: 0x287D0, symSize: 0x100 }
  - { offset: 0x1234E7, size: 0x8, addend: 0x0, symName: __ZNSt3__119__tree_right_rotateB8de180100IPNS_16__tree_node_baseIPvEEEEvT_, symObjAddr: 0x22200, symBinAddr: 0x288D0, symSize: 0xF0 }
  - { offset: 0x123888, size: 0x8, addend: 0x0, symName: __ZNSt3__1neB8de180100INS_6vectorIN8nlohmann16json_abi_v3_11_210basic_jsonINS_3mapES1_NS_12basic_stringIcNS_11char_traitsIcEENS_9allocatorIcEEEEbxydS9_NS3_14adl_serializerENS1_IhNS9_IhEEEEEENS9_ISF_EEEEZNSF_6createISH_JRKSH_EEEPT_DpOT0_EUlPSH_E_EEbRKNS_10unique_ptrISL_T0_EEDn, symObjAddr: 0x227C0, symBinAddr: 0x28E90, symSize: 0x30 }
  - { offset: 0x1238D6, size: 0x8, addend: 0x0, symName: __ZNSt3__122__make_exception_guardB8de180100INS_6vectorIN8nlohmann16json_abi_v3_11_210basic_jsonINS_3mapES1_NS_12basic_stringIcNS_11char_traitsIcEENS_9allocatorIcEEEEbxydS9_NS3_14adl_serializerENS1_IhNS9_IhEEEEEENS9_ISF_EEE16__destroy_vectorEEENS_28__exception_guard_exceptionsIT_EESK_, symObjAddr: 0x22B60, symBinAddr: 0x29230, symSize: 0x40 }
  - { offset: 0x12390D, size: 0x8, addend: 0x0, symName: __ZNSt3__130__uninitialized_allocator_copyB8de180100INS_9allocatorIN8nlohmann16json_abi_v3_11_210basic_jsonINS_3mapENS_6vectorENS_12basic_stringIcNS_11char_traitsIcEENS1_IcEEEEbxydS1_NS3_14adl_serializerENS6_IhNS1_IhEEEEEEEEPSF_SH_SH_EET2_RT_T0_T1_SI_, symObjAddr: 0x22D60, symBinAddr: 0x29430, symSize: 0x80 }
  - { offset: 0x1239B1, size: 0x8, addend: 0x0, symName: __ZNSt3__114__unwrap_rangeB8de180100IPN8nlohmann16json_abi_v3_11_210basic_jsonINS_3mapENS_6vectorENS_12basic_stringIcNS_11char_traitsIcEENS_9allocatorIcEEEEbxydS9_NS2_14adl_serializerENS5_IhNS9_IhEEEEEESG_EENS_4pairIT0_SI_EET_SK_, symObjAddr: 0x22DE0, symBinAddr: 0x294B0, symSize: 0x50 }
  - { offset: 0x123A03, size: 0x8, addend: 0x0, symName: __ZNSt3__135__uninitialized_allocator_copy_implB8de180100INS_9allocatorIN8nlohmann16json_abi_v3_11_210basic_jsonINS_3mapENS_6vectorENS_12basic_stringIcNS_11char_traitsIcEENS1_IcEEEEbxydS1_NS3_14adl_serializerENS6_IhNS1_IhEEEEEEEEPSF_SH_SH_EET2_RT_T0_T1_SI_, symObjAddr: 0x22E30, symBinAddr: 0x29500, symSize: 0x100 }
  - { offset: 0x123AA8, size: 0x8, addend: 0x0, symName: __ZNSt3__113__unwrap_iterB8de180100IPN8nlohmann16json_abi_v3_11_210basic_jsonINS_3mapENS_6vectorENS_12basic_stringIcNS_11char_traitsIcEENS_9allocatorIcEEEEbxydS9_NS2_14adl_serializerENS5_IhNS9_IhEEEEEENS_18__unwrap_iter_implISG_Lb1EEELi0EEEDTclsrT0_8__unwrapclsr3stdE7declvalIT_EEEESK_, symObjAddr: 0x22F30, symBinAddr: 0x29600, symSize: 0x20 }
  - { offset: 0x123AF1, size: 0x8, addend: 0x0, symName: __ZNSt3__113__rewrap_iterB8de180100IPN8nlohmann16json_abi_v3_11_210basic_jsonINS_3mapENS_6vectorENS_12basic_stringIcNS_11char_traitsIcEENS_9allocatorIcEEEEbxydS9_NS2_14adl_serializerENS5_IhNS9_IhEEEEEESG_NS_18__unwrap_iter_implISG_Lb1EEEEET_SJ_T0_, symObjAddr: 0x22F50, symBinAddr: 0x29620, symSize: 0x40 }
  - { offset: 0x123B4C, size: 0x8, addend: 0x0, symName: __ZNSt3__122__make_exception_guardB8de180100INS_29_AllocatorDestroyRangeReverseINS_9allocatorIN8nlohmann16json_abi_v3_11_210basic_jsonINS_3mapENS_6vectorENS_12basic_stringIcNS_11char_traitsIcEENS2_IcEEEEbxydS2_NS4_14adl_serializerENS7_IhNS2_IhEEEEEEEEPSG_EEEENS_28__exception_guard_exceptionsIT_EESL_, symObjAddr: 0x22F90, symBinAddr: 0x29660, symSize: 0x60 }
  - { offset: 0x123B83, size: 0x8, addend: 0x0, symName: __ZNSt3__119__allocator_destroyB8de180100INS_9allocatorIN8nlohmann16json_abi_v3_11_210basic_jsonINS_3mapENS_6vectorENS_12basic_stringIcNS_11char_traitsIcEENS1_IcEEEEbxydS1_NS3_14adl_serializerENS6_IhNS1_IhEEEEEEEENS_16reverse_iteratorIPSF_EESJ_EEvRT_T0_T1_, symObjAddr: 0x23220, symBinAddr: 0x298F0, symSize: 0x70 }
  - { offset: 0x123FA2, size: 0x8, addend: 0x0, symName: __ZNSt3__1neB8de180100INS_12basic_stringIcNS_11char_traitsIcEENS_9allocatorIcEEEEZN8nlohmann16json_abi_v3_11_210basic_jsonINS_3mapENS_6vectorES6_bxydS4_NS8_14adl_serializerENSB_IhNS4_IhEEEEE6createIS6_JRKS6_EEEPT_DpOT0_EUlPS6_E_EEbRKNS_10unique_ptrISJ_T0_EEDn, symObjAddr: 0x23650, symBinAddr: 0x29D20, symSize: 0x30 }
  - { offset: 0x12434C, size: 0x8, addend: 0x0, symName: __ZNSt3__1neB8de180100IN8nlohmann16json_abi_v3_11_227byte_container_with_subtypeINS_6vectorIhNS_9allocatorIhEEEEEEZNS2_10basic_jsonINS_3mapES4_NS_12basic_stringIcNS_11char_traitsIcEENS5_IcEEEEbxydS5_NS2_14adl_serializerES7_E6createIS8_JRKS8_EEEPT_DpOT0_EUlPS8_E_EEbRKNS_10unique_ptrISL_T0_EEDn, symObjAddr: 0x23B80, symBinAddr: 0x2A250, symSize: 0x30 }
  - { offset: 0x12439A, size: 0x8, addend: 0x0, symName: __ZNSt3__122__make_exception_guardB8de180100INS_6vectorIhNS_9allocatorIhEEE16__destroy_vectorEEENS_28__exception_guard_exceptionsIT_EES7_, symObjAddr: 0x23FD0, symBinAddr: 0x2A6A0, symSize: 0x40 }
  - { offset: 0x1243D1, size: 0x8, addend: 0x0, symName: __ZNSt3__119__allocate_at_leastB8de180100INS_9allocatorIhEEEENS_19__allocation_resultINS_16allocator_traitsIT_E7pointerEEERS5_m, symObjAddr: 0x24250, symBinAddr: 0x2A920, symSize: 0x40 }
  - { offset: 0x12441A, size: 0x8, addend: 0x0, symName: __ZNSt3__130__uninitialized_allocator_copyB8de180100INS_9allocatorIhEEPhS3_S3_EET2_RT_T0_T1_S4_, symObjAddr: 0x243B0, symBinAddr: 0x2AA80, symSize: 0x80 }
  - { offset: 0x1244BE, size: 0x8, addend: 0x0, symName: __ZNSt3__114__unwrap_rangeB8de180100IPhS1_EENS_4pairIT0_S3_EET_S5_, symObjAddr: 0x24490, symBinAddr: 0x2AB60, symSize: 0x50 }
  - { offset: 0x124510, size: 0x8, addend: 0x0, symName: __ZNSt3__135__uninitialized_allocator_copy_implB8de180100INS_9allocatorIhEEhhhLPv0EEEPT2_RT_PT0_S9_S5_, symObjAddr: 0x244E0, symBinAddr: 0x2ABB0, symSize: 0x30 }
  - { offset: 0x124597, size: 0x8, addend: 0x0, symName: __ZNSt3__113__unwrap_iterB8de180100IPhNS_18__unwrap_iter_implIS1_Lb1EEELi0EEEDTclsrT0_8__unwrapclsr3stdE7declvalIT_EEEES5_, symObjAddr: 0x24510, symBinAddr: 0x2ABE0, symSize: 0x20 }
  - { offset: 0x1245E0, size: 0x8, addend: 0x0, symName: __ZNSt3__113__rewrap_iterB8de180100IPhS1_NS_18__unwrap_iter_implIS1_Lb1EEEEET_S4_T0_, symObjAddr: 0x24530, symBinAddr: 0x2AC00, symSize: 0x40 }
  - { offset: 0x12463B, size: 0x8, addend: 0x0, symName: __ZNSt3__19make_pairB8de180100IPhS1_EENS_4pairINS_18__unwrap_ref_decayIT_E4typeENS3_IT0_E4typeEEEOS4_OS7_, symObjAddr: 0x24570, symBinAddr: 0x2AC40, symSize: 0x30 }
  - { offset: 0x12479A, size: 0x8, addend: 0x0, symName: __ZNSt3__14copyB8de180100IPhS1_EET0_T_S3_S2_, symObjAddr: 0x24600, symBinAddr: 0x2ACD0, symSize: 0x40 }
  - { offset: 0x1247FC, size: 0x8, addend: 0x0, symName: __ZNSt3__16__copyB8de180100INS_17_ClassicAlgPolicyEPhS2_S2_EENS_4pairIT0_T2_EES4_T1_S5_, symObjAddr: 0x24640, symBinAddr: 0x2AD10, symSize: 0x40 }
  - { offset: 0x124870, size: 0x8, addend: 0x0, symName: __ZNSt3__123__dispatch_copy_or_moveB8de180100INS_17_ClassicAlgPolicyENS_11__copy_loopIS1_EENS_14__copy_trivialEPhS5_S5_EENS_4pairIT2_T4_EES7_T3_S8_, symObjAddr: 0x24680, symBinAddr: 0x2AD50, symSize: 0x40 }
  - { offset: 0x1248F6, size: 0x8, addend: 0x0, symName: __ZNSt3__121__unwrap_and_dispatchB8de180100INS_10__overloadINS_11__copy_loopINS_17_ClassicAlgPolicyEEENS_14__copy_trivialEEEPhS7_S7_Li0EEENS_4pairIT0_T2_EES9_T1_SA_, symObjAddr: 0x246C0, symBinAddr: 0x2AD90, symSize: 0xB0 }
  - { offset: 0x1249DD, size: 0x8, addend: 0x0, symName: __ZNSt3__114__rewrap_rangeB8de180100IPhS1_EET_S2_T0_, symObjAddr: 0x247B0, symBinAddr: 0x2AE80, symSize: 0x30 }
  - { offset: 0x124A2F, size: 0x8, addend: 0x0, symName: __ZNSt3__119__copy_trivial_implB8de180100IhhEENS_4pairIPT_PT0_EES3_S3_S5_, symObjAddr: 0x247E0, symBinAddr: 0x2AEB0, symSize: 0x70 }
  - { offset: 0x124AA1, size: 0x8, addend: 0x0, symName: __ZNSt3__119__constexpr_memmoveB8de180100IhhLi0EEEPT_S2_PT0_NS_15__element_countE, symObjAddr: 0x24850, symBinAddr: 0x2AF20, symSize: 0x50 }
  - { offset: 0x124B15, size: 0x8, addend: 0x0, symName: __ZNSt3__19make_pairB8de180100IRPhS1_EENS_4pairINS_18__unwrap_ref_decayIT_E4typeENS4_IT0_E4typeEEEOS5_OS8_, symObjAddr: 0x248A0, symBinAddr: 0x2AF70, symSize: 0x30 }
  - { offset: 0x124BC3, size: 0x8, addend: 0x0, symName: __ZNSt3__1eqB8de180100ERKNS_14__map_iteratorINS_15__tree_iteratorINS_12__value_typeINS_12basic_stringIcNS_11char_traitsIcEENS_9allocatorIcEEEEN8nlohmann16json_abi_v3_11_210basic_jsonINS_3mapENS_6vectorES8_bxydS6_NSA_14adl_serializerENSD_IhNS6_IhEEEEEEEEPNS_11__tree_nodeISI_PvEElEEEESQ_, symObjAddr: 0x25370, symBinAddr: 0x2BA40, symSize: 0x30 }
  - { offset: 0x124C03, size: 0x8, addend: 0x0, symName: __ZNSt3__1eqB8de180100IPN8nlohmann16json_abi_v3_11_210basic_jsonINS_3mapENS_6vectorENS_12basic_stringIcNS_11char_traitsIcEENS_9allocatorIcEEEEbxydS9_NS2_14adl_serializerENS5_IhNS9_IhEEEEEEEEbRKNS_11__wrap_iterIT_EESL_, symObjAddr: 0x253A0, symBinAddr: 0x2BA70, symSize: 0x40 }
  - { offset: 0x124C49, size: 0x8, addend: 0x0, symName: __ZNSt3__1neB8de180100IPN8nlohmann16json_abi_v3_11_210basic_jsonINS_3mapENS_6vectorENS_12basic_stringIcNS_11char_traitsIcEENS_9allocatorIcEEEEbxydS9_NS2_14adl_serializerENS5_IhNS9_IhEEEEEEEEbRKNS_11__wrap_iterIT_EESL_, symObjAddr: 0x25610, symBinAddr: 0x2BCE0, symSize: 0x30 }
  - { offset: 0x124CC4, size: 0x8, addend: 0x0, symName: __ZNSt3__113__tree_removeB8de180100IPNS_16__tree_node_baseIPvEEEEvT_S5_, symObjAddr: 0x25C30, symBinAddr: 0x2C300, symSize: 0x630 }
  - { offset: 0x124D49, size: 0x8, addend: 0x0, symName: __ZNSt3__116__tree_invariantB8de180100IPNS_16__tree_node_baseIPvEEEEbT_, symObjAddr: 0x26260, symBinAddr: 0x2C930, symSize: 0x90 }
  - { offset: 0x124D80, size: 0x8, addend: 0x0, symName: __ZNSt3__111__tree_nextB8de180100IPNS_16__tree_node_baseIPvEEEET_S5_, symObjAddr: 0x262F0, symBinAddr: 0x2C9C0, symSize: 0x90 }
  - { offset: 0x124DB7, size: 0x8, addend: 0x0, symName: __ZNSt3__120__tree_sub_invariantIPNS_16__tree_node_baseIPvEEEEjT_, symObjAddr: 0x26380, symBinAddr: 0x2CA50, symSize: 0x190 }
  - { offset: 0x124DFD, size: 0x8, addend: 0x0, symName: __ZNSt3__1neB8de180100IPKN8nlohmann16json_abi_v3_11_210basic_jsonINS_3mapENS_6vectorENS_12basic_stringIcNS_11char_traitsIcEENS_9allocatorIcEEEEbxydS9_NS2_14adl_serializerENS5_IhNS9_IhEEEEEEPSF_EEbRKNS_11__wrap_iterIT_EERKNSJ_IT0_EE, symObjAddr: 0x26510, symBinAddr: 0x2CBE0, symSize: 0x30 }
  - { offset: 0x124E4C, size: 0x8, addend: 0x0, symName: __ZNSt3__1miB8de180100IPKN8nlohmann16json_abi_v3_11_210basic_jsonINS_3mapENS_6vectorENS_12basic_stringIcNS_11char_traitsIcEENS_9allocatorIcEEEEbxydS9_NS2_14adl_serializerENS5_IhNS9_IhEEEEEESH_EEDTmicldtfp_4baseEcldtfp0_4baseEERKNS_11__wrap_iterIT_EERKNSJ_IT0_EE, symObjAddr: 0x26540, symBinAddr: 0x2CC10, symSize: 0x40 }
  - { offset: 0x124E9B, size: 0x8, addend: 0x0, symName: __ZNSt3__14moveB8de180100IPN8nlohmann16json_abi_v3_11_210basic_jsonINS_3mapENS_6vectorENS_12basic_stringIcNS_11char_traitsIcEENS_9allocatorIcEEEEbxydS9_NS2_14adl_serializerENS5_IhNS9_IhEEEEEESG_EET0_T_SI_SH_, symObjAddr: 0x26580, symBinAddr: 0x2CC50, symSize: 0x40 }
  - { offset: 0x124EFD, size: 0x8, addend: 0x0, symName: __ZNSt3__1eqB8de180100IPKN8nlohmann16json_abi_v3_11_210basic_jsonINS_3mapENS_6vectorENS_12basic_stringIcNS_11char_traitsIcEENS_9allocatorIcEEEEbxydS9_NS2_14adl_serializerENS5_IhNS9_IhEEEEEEPSF_EEbRKNS_11__wrap_iterIT_EERKNSJ_IT0_EE, symObjAddr: 0x265C0, symBinAddr: 0x2CC90, symSize: 0x40 }
  - { offset: 0x124F4C, size: 0x8, addend: 0x0, symName: __ZNSt3__16__moveB8de180100INS_17_ClassicAlgPolicyEPN8nlohmann16json_abi_v3_11_210basic_jsonINS_3mapENS_6vectorENS_12basic_stringIcNS_11char_traitsIcEENS_9allocatorIcEEEEbxydSA_NS3_14adl_serializerENS6_IhNSA_IhEEEEEESH_SH_EENS_4pairIT0_T2_EESJ_T1_SK_, symObjAddr: 0x26600, symBinAddr: 0x2CCD0, symSize: 0x40 }
  - { offset: 0x124FC0, size: 0x8, addend: 0x0, symName: __ZNSt3__123__dispatch_copy_or_moveB8de180100INS_17_ClassicAlgPolicyENS_11__move_loopIS1_EENS_14__move_trivialEPN8nlohmann16json_abi_v3_11_210basic_jsonINS_3mapENS_6vectorENS_12basic_stringIcNS_11char_traitsIcEENS_9allocatorIcEEEEbxydSD_NS6_14adl_serializerENS9_IhNSD_IhEEEEEESK_SK_EENS_4pairIT2_T4_EESM_T3_SN_, symObjAddr: 0x26640, symBinAddr: 0x2CD10, symSize: 0x40 }
  - { offset: 0x125046, size: 0x8, addend: 0x0, symName: __ZNSt3__121__unwrap_and_dispatchB8de180100INS_10__overloadINS_11__move_loopINS_17_ClassicAlgPolicyEEENS_14__move_trivialEEEPN8nlohmann16json_abi_v3_11_210basic_jsonINS_3mapENS_6vectorENS_12basic_stringIcNS_11char_traitsIcEENS_9allocatorIcEEEEbxydSF_NS8_14adl_serializerENSB_IhNSF_IhEEEEEESM_SM_Li0EEENS_4pairIT0_T2_EESO_T1_SP_, symObjAddr: 0x26680, symBinAddr: 0x2CD50, symSize: 0xB0 }
  - { offset: 0x1250E2, size: 0x8, addend: 0x0, symName: __ZNSt3__114__rewrap_rangeB8de180100IPN8nlohmann16json_abi_v3_11_210basic_jsonINS_3mapENS_6vectorENS_12basic_stringIcNS_11char_traitsIcEENS_9allocatorIcEEEEbxydS9_NS2_14adl_serializerENS5_IhNS9_IhEEEEEESG_EET_SH_T0_, symObjAddr: 0x267D0, symBinAddr: 0x2CEA0, symSize: 0x30 }
  - { offset: 0x125134, size: 0x8, addend: 0x0, symName: __ZNSt3__19__advanceB8de180100INS_14__map_iteratorINS_15__tree_iteratorINS_12__value_typeINS_12basic_stringIcNS_11char_traitsIcEENS_9allocatorIcEEEEN8nlohmann16json_abi_v3_11_210basic_jsonINS_3mapENS_6vectorES9_bxydS7_NSB_14adl_serializerENSE_IhNS7_IhEEEEEEEEPNS_11__tree_nodeISJ_PvEElEEEEEEvRT_NS_15iterator_traitsISQ_E15difference_typeENS_26bidirectional_iterator_tagE, symObjAddr: 0x26A30, symBinAddr: 0x2D100, symSize: 0x80 }
  - { offset: 0x125181, size: 0x8, addend: 0x0, symName: __ZNSt3__19__advanceB8de180100INS_11__wrap_iterIPN8nlohmann16json_abi_v3_11_210basic_jsonINS_3mapENS_6vectorENS_12basic_stringIcNS_11char_traitsIcEENS_9allocatorIcEEEEbxydSA_NS3_14adl_serializerENS6_IhNSA_IhEEEEEEEEEEvRT_NS_15iterator_traitsISJ_E15difference_typeENS_26random_access_iterator_tagE, symObjAddr: 0x26B10, symBinAddr: 0x2D1E0, symSize: 0x30 }
  - { offset: 0x12520C, size: 0x8, addend: 0x0, symName: __ZNSt3__116forward_as_tupleB8de180100IJRKNS_12basic_stringIcNS_11char_traitsIcEENS_9allocatorIcEEEEEEENS_5tupleIJDpOT_EEESC_, symObjAddr: 0x26E30, symBinAddr: 0x2D500, symSize: 0x30 }
  - { offset: 0x12524B, size: 0x8, addend: 0x0, symName: __ZNSt3__116forward_as_tupleB8de180100IJEEENS_5tupleIJDpOT_EEES4_, symObjAddr: 0x26E60, symBinAddr: 0x2D530, symSize: 0x10 }
  - { offset: 0x12527F, size: 0x8, addend: 0x0, symName: __ZNSt3__13getB8de180100ILm0EJRKNS_12basic_stringIcNS_11char_traitsIcEENS_9allocatorIcEEEEEEERNS_13tuple_elementIXT_ENS_5tupleIJDpT0_EEEE4typeERSD_, symObjAddr: 0x270B0, symBinAddr: 0x2D780, symSize: 0x20 }
  - { offset: 0x1255D8, size: 0x8, addend: 0x0, symName: __ZNSt3__112__to_addressB8de180100IN6webrtc21RtpEncodingParametersEEEPT_S4_, symObjAddr: 0x2D7B0, symBinAddr: 0x33E80, symSize: 0x10 }
  - { offset: 0x12560F, size: 0x8, addend: 0x0, symName: __ZNSt3__119__allocate_at_leastB8de180100INS_9allocatorIN6webrtc21RtpEncodingParametersEEEEENS_19__allocation_resultINS_16allocator_traitsIT_E7pointerEEERS7_m, symObjAddr: 0x2DC70, symBinAddr: 0x34340, symSize: 0x40 }
  - { offset: 0x125658, size: 0x8, addend: 0x0, symName: __ZNSt3__142__uninitialized_allocator_move_if_noexceptB8de180100INS_9allocatorIN6webrtc21RtpEncodingParametersEEENS_16reverse_iteratorIPS3_EES7_S7_EET2_RT_T0_T1_S8_, symObjAddr: 0x2DE10, symBinAddr: 0x344E0, symSize: 0x180 }
  - { offset: 0x1256FE, size: 0x8, addend: 0x0, symName: __ZNSt3__14swapB8de180100IPN6webrtc21RtpEncodingParametersEEENS_9enable_ifIXaasr21is_move_constructibleIT_EE5valuesr18is_move_assignableIS5_EE5valueEvE4typeERS5_S8_, symObjAddr: 0x2DFE0, symBinAddr: 0x346B0, symSize: 0x40 }
  - { offset: 0x125757, size: 0x8, addend: 0x0, symName: __ZNSt3__122__make_exception_guardB8de180100INS_29_AllocatorDestroyRangeReverseINS_9allocatorIN6webrtc21RtpEncodingParametersEEENS_16reverse_iteratorIPS4_EEEEEENS_28__exception_guard_exceptionsIT_EESB_, symObjAddr: 0x2E050, symBinAddr: 0x34720, symSize: 0x60 }
  - { offset: 0x12578E, size: 0x8, addend: 0x0, symName: __ZNSt3__1neB8de180100IPN6webrtc21RtpEncodingParametersES3_EEbRKNS_16reverse_iteratorIT_EERKNS4_IT0_EE, symObjAddr: 0x2E0F0, symBinAddr: 0x347C0, symSize: 0x40 }
  - { offset: 0x1257DD, size: 0x8, addend: 0x0, symName: __ZNSt3__112__to_addressB8de180100INS_16reverse_iteratorIPN6webrtc21RtpEncodingParametersEEEvEEu7__decayIDTclsr19__to_address_helperIT_EE6__callclsr3stdE7declvalIRKS6_EEEEES8_, symObjAddr: 0x2E160, symBinAddr: 0x34830, symSize: 0x20 }
  - { offset: 0x125842, size: 0x8, addend: 0x0, symName: __ZNSt3__119__allocator_destroyB8de180100INS_9allocatorIN6webrtc21RtpEncodingParametersEEENS_16reverse_iteratorINS5_IPS3_EEEES8_EEvRT_T0_T1_, symObjAddr: 0x2E480, symBinAddr: 0x34B50, symSize: 0x70 }
  - { offset: 0x1258A9, size: 0x8, addend: 0x0, symName: __ZNSt3__1neB8de180100INS_16reverse_iteratorIPN6webrtc21RtpEncodingParametersEEES5_EEbRKNS1_IT_EERKNS1_IT0_EE, symObjAddr: 0x2E520, symBinAddr: 0x34BF0, symSize: 0x50 }
  - { offset: 0x1258F8, size: 0x8, addend: 0x0, symName: __ZNSt3__112__to_addressB8de180100INS_16reverse_iteratorINS1_IPN6webrtc21RtpEncodingParametersEEEEEvEEu7__decayIDTclsr19__to_address_helperIT_EE6__callclsr3stdE7declvalIRKS7_EEEEES9_, symObjAddr: 0x2E570, symBinAddr: 0x34C40, symSize: 0x20 }
  - { offset: 0x12595D, size: 0x8, addend: 0x0, symName: __ZNSt3__16all_ofB8de180100IPKN8nlohmann16json_abi_v3_11_26detail8json_refINS2_10basic_jsonINS_3mapENS_6vectorENS_12basic_stringIcNS_11char_traitsIcEENS_9allocatorIcEEEEbxydSB_NS2_14adl_serializerENS7_IhNSB_IhEEEEEEEEZNSH_C1ESt16initializer_listISI_EbNS3_7value_tEEUlRSJ_E_EEbT_SQ_T0_, symObjAddr: 0x2EF70, symBinAddr: 0x35640, symSize: 0x70 }
  - { offset: 0x125D1B, size: 0x8, addend: 0x0, symName: __ZNSt3__1neB8de180100INS_6vectorIN8nlohmann16json_abi_v3_11_210basic_jsonINS_3mapES1_NS_12basic_stringIcNS_11char_traitsIcEENS_9allocatorIcEEEEbxydS9_NS3_14adl_serializerENS1_IhNS9_IhEEEEEENS9_ISF_EEEEZNSF_6createISH_JPKNS3_6detail8json_refISF_EESN_EEEPT_DpOT0_EUlPSH_E_EEbRKNS_10unique_ptrISO_T0_EEDn, symObjAddr: 0x2FBE0, symBinAddr: 0x36160, symSize: 0x30 }
  - { offset: 0x125D69, size: 0x8, addend: 0x0, symName: __ZNSt3__18distanceB8de180100IPKN8nlohmann16json_abi_v3_11_26detail8json_refINS2_10basic_jsonINS_3mapENS_6vectorENS_12basic_stringIcNS_11char_traitsIcEENS_9allocatorIcEEEEbxydSB_NS2_14adl_serializerENS7_IhNSB_IhEEEEEEEEEENS_15iterator_traitsIT_E15difference_typeESM_SM_, symObjAddr: 0x2FE20, symBinAddr: 0x363A0, symSize: 0x30 }
  - { offset: 0x125DB2, size: 0x8, addend: 0x0, symName: __ZNSt3__110__distanceB8de180100IPKN8nlohmann16json_abi_v3_11_26detail8json_refINS2_10basic_jsonINS_3mapENS_6vectorENS_12basic_stringIcNS_11char_traitsIcEENS_9allocatorIcEEEEbxydSB_NS2_14adl_serializerENS7_IhNSB_IhEEEEEEEEEENS_15iterator_traitsIT_E15difference_typeESM_SM_NS_26random_access_iterator_tagE, symObjAddr: 0x2FF00, symBinAddr: 0x36480, symSize: 0x30 }
  - { offset: 0x125E07, size: 0x8, addend: 0x0, symName: __ZNSt3__130__uninitialized_allocator_copyB8de180100INS_9allocatorIN8nlohmann16json_abi_v3_11_210basic_jsonINS_3mapENS_6vectorENS_12basic_stringIcNS_11char_traitsIcEENS1_IcEEEEbxydS1_NS3_14adl_serializerENS6_IhNS1_IhEEEEEEEEPKNS3_6detail8json_refISF_EESL_PSF_EET2_RT_T0_T1_SN_, symObjAddr: 0x2FFC0, symBinAddr: 0x36540, symSize: 0x80 }
  - { offset: 0x125EAB, size: 0x8, addend: 0x0, symName: __ZNSt3__114__unwrap_rangeB8de180100IPKN8nlohmann16json_abi_v3_11_26detail8json_refINS2_10basic_jsonINS_3mapENS_6vectorENS_12basic_stringIcNS_11char_traitsIcEENS_9allocatorIcEEEEbxydSB_NS2_14adl_serializerENS7_IhNSB_IhEEEEEEEESK_EENS_4pairIT0_SM_EET_SO_, symObjAddr: 0x30040, symBinAddr: 0x365C0, symSize: 0x50 }
  - { offset: 0x125EFD, size: 0x8, addend: 0x0, symName: __ZNSt3__135__uninitialized_allocator_copy_implB8de180100INS_9allocatorIN8nlohmann16json_abi_v3_11_210basic_jsonINS_3mapENS_6vectorENS_12basic_stringIcNS_11char_traitsIcEENS1_IcEEEEbxydS1_NS3_14adl_serializerENS6_IhNS1_IhEEEEEEEEPKNS3_6detail8json_refISF_EESL_PSF_EET2_RT_T0_T1_SN_, symObjAddr: 0x30090, symBinAddr: 0x36610, symSize: 0x100 }
  - { offset: 0x125FA2, size: 0x8, addend: 0x0, symName: __ZNSt3__19make_pairB8de180100IPKN8nlohmann16json_abi_v3_11_26detail8json_refINS2_10basic_jsonINS_3mapENS_6vectorENS_12basic_stringIcNS_11char_traitsIcEENS_9allocatorIcEEEEbxydSB_NS2_14adl_serializerENS7_IhNSB_IhEEEEEEEESK_EENS_4pairINS_18__unwrap_ref_decayIT_E4typeENSM_IT0_E4typeEEEOSN_OSQ_, symObjAddr: 0x30190, symBinAddr: 0x36710, symSize: 0x30 }
  - { offset: 0x125FF4, size: 0x8, addend: 0x0, symName: __ZNSt3__113__unwrap_iterB8de180100IPKN8nlohmann16json_abi_v3_11_26detail8json_refINS2_10basic_jsonINS_3mapENS_6vectorENS_12basic_stringIcNS_11char_traitsIcEENS_9allocatorIcEEEEbxydSB_NS2_14adl_serializerENS7_IhNSB_IhEEEEEEEENS_18__unwrap_iter_implISK_Lb1EEELi0EEEDTclsrT0_8__unwrapclsr3stdE7declvalIT_EEEESO_, symObjAddr: 0x301C0, symBinAddr: 0x36740, symSize: 0x20 }
  - { offset: 0x126175, size: 0x8, addend: 0x0, symName: __ZNSt3__112__to_addressB8de180100IKN8nlohmann16json_abi_v3_11_26detail8json_refINS2_10basic_jsonINS_3mapENS_6vectorENS_12basic_stringIcNS_11char_traitsIcEENS_9allocatorIcEEEEbxydSB_NS2_14adl_serializerENS7_IhNSB_IhEEEEEEEEEEPT_SL_, symObjAddr: 0x30260, symBinAddr: 0x367E0, symSize: 0x10 }
  - { offset: 0x1261AC, size: 0x8, addend: 0x0, symName: __ZNSt3__14swapB8de180100IN8nlohmann16json_abi_v3_11_26detail7value_tEEENS_9enable_ifIXaasr21is_move_constructibleIT_EE5valuesr18is_move_assignableIS6_EE5valueEvE4typeERS6_S9_, symObjAddr: 0x30490, symBinAddr: 0x36A10, symSize: 0x30 }
  - { offset: 0x126205, size: 0x8, addend: 0x0, symName: __ZNSt3__14swapB8de180100IN8nlohmann16json_abi_v3_11_210basic_jsonINS_3mapENS_6vectorENS_12basic_stringIcNS_11char_traitsIcEENS_9allocatorIcEEEEbxydS9_NS2_14adl_serializerENS5_IhNS9_IhEEEEE10json_valueEEENS_9enable_ifIXaasr21is_move_constructibleIT_EE5valuesr18is_move_assignableISI_EE5valueEvE4typeERSI_SL_, symObjAddr: 0x304C0, symBinAddr: 0x36A40, symSize: 0x32 }
  - { offset: 0x127C82, size: 0x8, addend: 0x0, symName: __ZN8nlohmann16json_abi_v3_11_26detail12static_constINS1_10to_json_fnEE5valueE, symObjAddr: 0x3504E, symBinAddr: 0xC38DE, symSize: 0x0 }
  - { offset: 0x12A957, size: 0x8, addend: 0x0, symName: __ZN4absl13make_optionalIiEENS_8optionalINSt3__15decayIT_E4typeEEEOS4_, symObjAddr: 0x2A90, symBinAddr: 0x14F50, symSize: 0x30 }
  - { offset: 0x12A990, size: 0x8, addend: 0x0, symName: __ZN4absl13make_optionalIdEENS_8optionalINSt3__15decayIT_E4typeEEEOS4_, symObjAddr: 0x2AC0, symBinAddr: 0x14F80, symSize: 0x30 }
  - { offset: 0x12A9C9, size: 0x8, addend: 0x0, symName: __ZN4absl7forwardIiEEOT_RNSt3__116remove_referenceIS1_E4typeE, symObjAddr: 0x36F0, symBinAddr: 0x15BB0, symSize: 0x10 }
  - { offset: 0x12AA0D, size: 0x8, addend: 0x0, symName: __ZN4absl7forwardIdEEOT_RNSt3__116remove_referenceIS1_E4typeE, symObjAddr: 0x3810, symBinAddr: 0x15CD0, symSize: 0x10 }
  - { offset: 0x12D7AC, size: 0x8, addend: 0x0, symName: __ZNSt3__16vectorIcNS_9allocatorIcEEE26__swap_out_circular_bufferERNS_14__split_bufferIcRS2_EE, symObjAddr: 0x14F80, symBinAddr: 0x1B650, symSize: 0x120 }
  - { offset: 0x12DAE3, size: 0x8, addend: 0x0, symName: __ZNSt3__16vectorIPN8nlohmann16json_abi_v3_11_210basic_jsonINS_3mapES0_NS_12basic_stringIcNS_11char_traitsIcEENS_9allocatorIcEEEEbxydS8_NS2_14adl_serializerENS0_IhNS8_IhEEEEEENS8_ISF_EEE26__swap_out_circular_bufferERNS_14__split_bufferISF_RSG_EE, symObjAddr: 0x1E5E0, symBinAddr: 0x24CB0, symSize: 0x120 }
  - { offset: 0x12DC02, size: 0x8, addend: 0x0, symName: __ZNSt3__16vectorIN6webrtc21RtpEncodingParametersENS_9allocatorIS2_EEE26__swap_out_circular_bufferERNS_14__split_bufferIS2_RS4_EE, symObjAddr: 0x2D9A0, symBinAddr: 0x34070, symSize: 0x120 }
  - { offset: 0x12DD4C, size: 0x8, addend: 0x0, symName: '-[SendTransportWrapper initWithTransport:listenerAdapter:]', symObjAddr: 0x0, symBinAddr: 0x12850, symSize: 0xF0 }
  - { offset: 0x12DDA6, size: 0x8, addend: 0x0, symName: '-[SendTransportWrapper getWrappedTransport]', symObjAddr: 0xF0, symBinAddr: 0x12940, symSize: 0x20 }
  - { offset: 0x12DDE0, size: 0x8, addend: 0x0, symName: '-[SendTransportWrapper dealloc]', symObjAddr: 0x110, symBinAddr: 0x12960, symSize: 0x140 }
  - { offset: 0x12DE36, size: 0x8, addend: 0x0, symName: '___31-[SendTransportWrapper dealloc]_block_invoke', symObjAddr: 0x250, symBinAddr: 0x12AA0, symSize: 0x60 }
  - { offset: 0x12DE88, size: 0x8, addend: 0x0, symName: '-[SendTransportWrapper id]', symObjAddr: 0x2C0, symBinAddr: 0x12B00, symSize: 0x50 }
  - { offset: 0x12DEC2, size: 0x8, addend: 0x0, symName: '-[SendTransportWrapper closed]', symObjAddr: 0x330, symBinAddr: 0x12B50, symSize: 0x40 }
  - { offset: 0x12DEFC, size: 0x8, addend: 0x0, symName: '-[SendTransportWrapper connectionState]', symObjAddr: 0x370, symBinAddr: 0x12B90, symSize: 0x50 }
  - { offset: 0x12DF36, size: 0x8, addend: 0x0, symName: '-[SendTransportWrapper appData]', symObjAddr: 0x3C0, symBinAddr: 0x12BE0, symSize: 0xC0 }
  - { offset: 0x12DF70, size: 0x8, addend: 0x0, symName: '-[SendTransportWrapper stats]', symObjAddr: 0x6F0, symBinAddr: 0x12CA0, symSize: 0xE0 }
  - { offset: 0x12DFAA, size: 0x8, addend: 0x0, symName: '-[SendTransportWrapper close]', symObjAddr: 0x7F0, symBinAddr: 0x12D80, symSize: 0x30 }
  - { offset: 0x12DFE0, size: 0x8, addend: 0x0, symName: '-[SendTransportWrapper restartICE:error:]', symObjAddr: 0x820, symBinAddr: 0x12DB0, symSize: 0x130 }
  - { offset: 0x12E036, size: 0x8, addend: 0x0, symName: '___41-[SendTransportWrapper restartICE:error:]_block_invoke', symObjAddr: 0x950, symBinAddr: 0x12EE0, symSize: 0x1A0 }
  - { offset: 0x12E0BD, size: 0x8, addend: 0x0, symName: __ZN8nlohmann16json_abi_v3_11_210basic_jsonINSt3__13mapENS2_6vectorENS2_12basic_stringIcNS2_11char_traitsIcEENS2_9allocatorIcEEEEbxydS8_NS0_14adl_serializerENS4_IhNS8_IhEEEEE5parseIRSA_EESE_OT_NS2_8functionIFbiNS0_6detail13parse_event_tERSE_EEEbb, symObjAddr: 0xB20, symBinAddr: 0x13080, symSize: 0x220 }
  - { offset: 0x12E132, size: 0x8, addend: 0x0, symName: __ZNSt3__18functionIFbiN8nlohmann16json_abi_v3_11_26detail13parse_event_tERNS2_10basic_jsonINS_3mapENS_6vectorENS_12basic_stringIcNS_11char_traitsIcEENS_9allocatorIcEEEEbxydSB_NS2_14adl_serializerENS7_IhNSB_IhEEEEEEEEC1B8de180100EDn, symObjAddr: 0xD40, symBinAddr: 0x132A0, symSize: 0x30 }
  - { offset: 0x12E168, size: 0x8, addend: 0x0, symName: __ZNSt3__18functionIFbiN8nlohmann16json_abi_v3_11_26detail13parse_event_tERNS2_10basic_jsonINS_3mapENS_6vectorENS_12basic_stringIcNS_11char_traitsIcEENS_9allocatorIcEEEEbxydSB_NS2_14adl_serializerENS7_IhNSB_IhEEEEEEEED1Ev, symObjAddr: 0xD70, symBinAddr: 0x132D0, symSize: 0x20 }
  - { offset: 0x12E194, size: 0x8, addend: 0x0, symName: '-[SendTransportWrapper updateICEServers:error:]', symObjAddr: 0xE30, symBinAddr: 0x132F0, symSize: 0x130 }
  - { offset: 0x12E1EA, size: 0x8, addend: 0x0, symName: '___47-[SendTransportWrapper updateICEServers:error:]_block_invoke', symObjAddr: 0xF60, symBinAddr: 0x13420, symSize: 0x1A0 }
  - { offset: 0x12E26C, size: 0x8, addend: 0x0, symName: '-[SendTransportWrapper createProducerForTrack:encodings:codecOptions:codec:appData:error:]', symObjAddr: 0x1100, symBinAddr: 0x135C0, symSize: 0x440 }
  - { offset: 0x12E316, size: 0x8, addend: 0x0, symName: __Z22mediasoupTryWithResultIU8__strongP15ProducerWrapperET_U13block_pointerFS3_vEU13block_pointerFvvEPU15__autoreleasingP7NSError, symObjAddr: 0x1540, symBinAddr: 0x13A00, symSize: 0x460 }
  - { offset: 0x12E3D3, size: 0x8, addend: 0x0, symName: '___90-[SendTransportWrapper createProducerForTrack:encodings:codecOptions:codec:appData:error:]_block_invoke', symObjAddr: 0x19A0, symBinAddr: 0x13E60, symSize: 0xFE0 }
  - { offset: 0x12E54A, size: 0x8, addend: 0x0, symName: __ZNSt3__16vectorIN6webrtc21RtpEncodingParametersENS_9allocatorIS2_EEEC1B8de180100Ev, symObjAddr: 0x2980, symBinAddr: 0x14E40, symSize: 0x20 }
  - { offset: 0x12E574, size: 0x8, addend: 0x0, symName: __ZNSt3__16vectorIN6webrtc21RtpEncodingParametersENS_9allocatorIS2_EEE7reserveEm, symObjAddr: 0x29A0, symBinAddr: 0x14E60, symSize: 0xF0 }
  - { offset: 0x12E5D3, size: 0x8, addend: 0x0, symName: __ZNSt3__16vectorIN6webrtc21RtpEncodingParametersENS_9allocatorIS2_EEE12emplace_backIJRS2_EEES7_DpOT_, symObjAddr: 0x2AF0, symBinAddr: 0x14FB0, symSize: 0x90 }
  - { offset: 0x12E628, size: 0x8, addend: 0x0, symName: __ZN8nlohmann16json_abi_v3_11_210basic_jsonINSt3__13mapENS2_6vectorENS2_12basic_stringIcNS2_11char_traitsIcEENS2_9allocatorIcEEEEbxydS8_NS0_14adl_serializerENS4_IhNS8_IhEEEEE6objectESt16initializer_listINS0_6detail8json_refISE_EEE, symObjAddr: 0x2B80, symBinAddr: 0x15040, symSize: 0x50 }
  - { offset: 0x12E64D, size: 0x8, addend: 0x0, symName: __ZNSt16initializer_listIN8nlohmann16json_abi_v3_11_26detail8json_refINS1_10basic_jsonINSt3__13mapENS5_6vectorENS5_12basic_stringIcNS5_11char_traitsIcEENS5_9allocatorIcEEEEbxydSB_NS1_14adl_serializerENS7_IhNSB_IhEEEEEEEEEC1B8de180100Ev, symObjAddr: 0x2BD0, symBinAddr: 0x15090, symSize: 0x20 }
  - { offset: 0x12E677, size: 0x8, addend: 0x0, symName: __ZN8nlohmann16json_abi_v3_11_210basic_jsonINSt3__13mapENS2_6vectorENS2_12basic_stringIcNS2_11char_traitsIcEENS2_9allocatorIcEEEEbxydS8_NS0_14adl_serializerENS4_IhNS8_IhEEEEE5parseISA_EESE_OT_NS2_8functionIFbiNS0_6detail13parse_event_tERSE_EEEbb, symObjAddr: 0x2BF0, symBinAddr: 0x150B0, symSize: 0x220 }
  - { offset: 0x12E6EC, size: 0x8, addend: 0x0, symName: __ZN8nlohmann16json_abi_v3_11_210basic_jsonINSt3__13mapENS2_6vectorENS2_12basic_stringIcNS2_11char_traitsIcEENS2_9allocatorIcEEEEbxydS8_NS0_14adl_serializerENS4_IhNS8_IhEEEEEaSESE_, symObjAddr: 0x2E10, symBinAddr: 0x152D0, symSize: 0x80 }
  - { offset: 0x12E723, size: 0x8, addend: 0x0, symName: __ZNSt3__16vectorIN6webrtc21RtpEncodingParametersENS_9allocatorIS2_EEED1B8de180100Ev, symObjAddr: 0x2E90, symBinAddr: 0x15350, symSize: 0x20 }
  - { offset: 0x12E74D, size: 0x8, addend: 0x0, symName: ___copy_helper_block_ea8_32s40s48s56s64s72s, symObjAddr: 0x2EB0, symBinAddr: 0x15370, symSize: 0xE0 }
  - { offset: 0x12E774, size: 0x8, addend: 0x0, symName: ___destroy_helper_block_ea8_32s40s48s56s64s72s, symObjAddr: 0x2F90, symBinAddr: 0x15450, symSize: 0xA0 }
  - { offset: 0x12E792, size: 0x8, addend: 0x0, symName: '___90-[SendTransportWrapper createProducerForTrack:encodings:codecOptions:codec:appData:error:]_block_invoke.33', symObjAddr: 0x3030, symBinAddr: 0x154F0, symSize: 0x40 }
  - { offset: 0x12E7D1, size: 0x8, addend: 0x0, symName: '-[SendTransportWrapper onConnect:dtlsParameters:]', symObjAddr: 0x3070, symBinAddr: 0x15530, symSize: 0x100 }
  - { offset: 0x12E827, size: 0x8, addend: 0x0, symName: '-[SendTransportWrapper onConnectionStateChange:connectionState:]', symObjAddr: 0x3170, symBinAddr: 0x15630, symSize: 0x100 }
  - { offset: 0x12E87D, size: 0x8, addend: 0x0, symName: '-[SendTransportWrapper onProduce:kind:rtpParameters:appData:callback:]', symObjAddr: 0x3270, symBinAddr: 0x15730, symSize: 0x1D0 }
  - { offset: 0x12E903, size: 0x8, addend: 0x0, symName: '-[SendTransportWrapper onProduceData:sctpParameters:label:protocol:appData:callback:]', symObjAddr: 0x3440, symBinAddr: 0x15900, symSize: 0x220 }
  - { offset: 0x12E999, size: 0x8, addend: 0x0, symName: '-[SendTransportWrapper delegate]', symObjAddr: 0x3660, symBinAddr: 0x15B20, symSize: 0x30 }
  - { offset: 0x12E9D3, size: 0x8, addend: 0x0, symName: '-[SendTransportWrapper setDelegate:]', symObjAddr: 0x3690, symBinAddr: 0x15B50, symSize: 0x30 }
  - { offset: 0x12EA16, size: 0x8, addend: 0x0, symName: '-[SendTransportWrapper .cxx_destruct]', symObjAddr: 0x36C0, symBinAddr: 0x15B80, symSize: 0x30 }
  - { offset: 0x12EA4C, size: 0x8, addend: 0x0, symName: __ZN4absl8optionalIiEC1IiLb0EEEOT_, symObjAddr: 0x3700, symBinAddr: 0x15BC0, symSize: 0x30 }
  - { offset: 0x12EA95, size: 0x8, addend: 0x0, symName: __ZN4absl8optionalIiEC2IiLb0EEEOT_, symObjAddr: 0x3730, symBinAddr: 0x15BF0, symSize: 0x40 }
  - { offset: 0x12EAE3, size: 0x8, addend: 0x0, symName: __ZN4absl17optional_internal13optional_dataIiLb1EECI2NS0_23optional_data_dtor_baseIiLb1EEEIJiEEENS_10in_place_tEDpOT_, symObjAddr: 0x3770, symBinAddr: 0x15C30, symSize: 0x30 }
  - { offset: 0x12EB26, size: 0x8, addend: 0x0, symName: __ZN4absl17optional_internal18optional_data_baseIiECI2NS0_23optional_data_dtor_baseIiLb1EEEIJiEEENS_10in_place_tEDpOT_, symObjAddr: 0x37A0, symBinAddr: 0x15C60, symSize: 0x30 }
  - { offset: 0x12EB64, size: 0x8, addend: 0x0, symName: __ZN4absl17optional_internal23optional_data_dtor_baseIiLb1EEC2IJiEEENS_10in_place_tEDpOT_, symObjAddr: 0x37D0, symBinAddr: 0x15C90, symSize: 0x40 }
  - { offset: 0x12EBB5, size: 0x8, addend: 0x0, symName: __ZN4absl8optionalIdEC1IdLb0EEEOT_, symObjAddr: 0x3820, symBinAddr: 0x15CE0, symSize: 0x30 }
  - { offset: 0x12EBFE, size: 0x8, addend: 0x0, symName: __ZN4absl8optionalIdEC2IdLb0EEEOT_, symObjAddr: 0x3850, symBinAddr: 0x15D10, symSize: 0x40 }
  - { offset: 0x12EC4C, size: 0x8, addend: 0x0, symName: __ZN4absl17optional_internal13optional_dataIdLb1EECI2NS0_23optional_data_dtor_baseIdLb1EEEIJdEEENS_10in_place_tEDpOT_, symObjAddr: 0x3890, symBinAddr: 0x15D50, symSize: 0x30 }
  - { offset: 0x12EC8F, size: 0x8, addend: 0x0, symName: __ZN4absl17optional_internal18optional_data_baseIdECI2NS0_23optional_data_dtor_baseIdLb1EEEIJdEEENS_10in_place_tEDpOT_, symObjAddr: 0x38C0, symBinAddr: 0x15D80, symSize: 0x30 }
  - { offset: 0x12ECCD, size: 0x8, addend: 0x0, symName: __ZN4absl17optional_internal23optional_data_dtor_baseIdLb1EEC2IJdEEENS_10in_place_tEDpOT_, symObjAddr: 0x38F0, symBinAddr: 0x15DB0, symSize: 0x40 }
  - { offset: 0x12ED1E, size: 0x8, addend: 0x0, symName: __ZNSt16initializer_listIN8nlohmann16json_abi_v3_11_26detail8json_refINS1_10basic_jsonINSt3__13mapENS5_6vectorENS5_12basic_stringIcNS5_11char_traitsIcEENS5_9allocatorIcEEEEbxydSB_NS1_14adl_serializerENS7_IhNSB_IhEEEEEEEEEC2B8de180100Ev, symObjAddr: 0x3930, symBinAddr: 0x15DF0, symSize: 0x20 }
  - { offset: 0x12ED4E, size: 0x8, addend: 0x0, symName: __ZNSt3__18functionIFbiN8nlohmann16json_abi_v3_11_26detail13parse_event_tERNS2_10basic_jsonINS_3mapENS_6vectorENS_12basic_stringIcNS_11char_traitsIcEENS_9allocatorIcEEEEbxydSB_NS2_14adl_serializerENS7_IhNSB_IhEEEEEEEEC2B8de180100EDn, symObjAddr: 0x3C20, symBinAddr: 0x15E10, symSize: 0x20 }
  - { offset: 0x12ED84, size: 0x8, addend: 0x0, symName: __ZNSt3__110__function12__value_funcIFbiN8nlohmann16json_abi_v3_11_26detail13parse_event_tERNS3_10basic_jsonINS_3mapENS_6vectorENS_12basic_stringIcNS_11char_traitsIcEENS_9allocatorIcEEEEbxydSC_NS3_14adl_serializerENS8_IhNSC_IhEEEEEEEEC1B8de180100Ev, symObjAddr: 0x3C40, symBinAddr: 0x15E30, symSize: 0x20 }
  - { offset: 0x12EDAE, size: 0x8, addend: 0x0, symName: __ZNSt3__110__function12__value_funcIFbiN8nlohmann16json_abi_v3_11_26detail13parse_event_tERNS3_10basic_jsonINS_3mapENS_6vectorENS_12basic_stringIcNS_11char_traitsIcEENS_9allocatorIcEEEEbxydSC_NS3_14adl_serializerENS8_IhNSC_IhEEEEEEEEC2B8de180100Ev, symObjAddr: 0x3C60, symBinAddr: 0x15E50, symSize: 0x20 }
  - { offset: 0x12EDD8, size: 0x8, addend: 0x0, symName: __ZNSt3__18functionIFbiN8nlohmann16json_abi_v3_11_26detail13parse_event_tERNS2_10basic_jsonINS_3mapENS_6vectorENS_12basic_stringIcNS_11char_traitsIcEENS_9allocatorIcEEEEbxydSB_NS2_14adl_serializerENS7_IhNSB_IhEEEEEEEED2Ev, symObjAddr: 0x3C80, symBinAddr: 0x15E70, symSize: 0x20 }
  - { offset: 0x12EE04, size: 0x8, addend: 0x0, symName: __ZNSt3__110__function12__value_funcIFbiN8nlohmann16json_abi_v3_11_26detail13parse_event_tERNS3_10basic_jsonINS_3mapENS_6vectorENS_12basic_stringIcNS_11char_traitsIcEENS_9allocatorIcEEEEbxydSC_NS3_14adl_serializerENS8_IhNSC_IhEEEEEEEED1B8de180100Ev, symObjAddr: 0x3CA0, symBinAddr: 0x15E90, symSize: 0x20 }
  - { offset: 0x12EE2E, size: 0x8, addend: 0x0, symName: __ZNSt3__110__function12__value_funcIFbiN8nlohmann16json_abi_v3_11_26detail13parse_event_tERNS3_10basic_jsonINS_3mapENS_6vectorENS_12basic_stringIcNS_11char_traitsIcEENS_9allocatorIcEEEEbxydSC_NS3_14adl_serializerENS8_IhNSC_IhEEEEEEEED2B8de180100Ev, symObjAddr: 0x3CC0, symBinAddr: 0x15EB0, symSize: 0x60 }
  - { offset: 0x12EF2A, size: 0x8, addend: 0x0, symName: __ZN8nlohmann16json_abi_v3_11_210basic_jsonINSt3__13mapENS2_6vectorENS2_12basic_stringIcNS2_11char_traitsIcEENS2_9allocatorIcEEEEbxydS8_NS0_14adl_serializerENS4_IhNS8_IhEEEEEC1EDn, symObjAddr: 0xF840, symBinAddr: 0x15F10, symSize: 0x40 }
  - { offset: 0x12EF6F, size: 0x8, addend: 0x0, symName: __ZN8nlohmann16json_abi_v3_11_210basic_jsonINSt3__13mapENS2_6vectorENS2_12basic_stringIcNS2_11char_traitsIcEENS2_9allocatorIcEEEEbxydS8_NS0_14adl_serializerENS4_IhNS8_IhEEEEE6parserINS0_6detail22iterator_input_adapterINS2_11__wrap_iterIPKcEEEEEENSG_6parserISE_T_EESO_NS2_8functionIFbiNSG_13parse_event_tERSE_EEEbb, symObjAddr: 0xF880, symBinAddr: 0x15F50, symSize: 0x130 }
  - { offset: 0x12EFD2, size: 0x8, addend: 0x0, symName: __ZNSt3__18functionIFbiN8nlohmann16json_abi_v3_11_26detail13parse_event_tERNS2_10basic_jsonINS_3mapENS_6vectorENS_12basic_stringIcNS_11char_traitsIcEENS_9allocatorIcEEEEbxydSB_NS2_14adl_serializerENS7_IhNSB_IhEEEEEEEEC1ERKSK_, symObjAddr: 0xF9E0, symBinAddr: 0x160B0, symSize: 0x30 }
  - { offset: 0x12F00E, size: 0x8, addend: 0x0, symName: __ZN8nlohmann16json_abi_v3_11_26detail6parserINS0_10basic_jsonINSt3__13mapENS4_6vectorENS4_12basic_stringIcNS4_11char_traitsIcEENS4_9allocatorIcEEEEbxydSA_NS0_14adl_serializerENS6_IhNSA_IhEEEEEENS1_22iterator_input_adapterINS4_11__wrap_iterIPKcEEEEE5parseEbRSG_, symObjAddr: 0xFA10, symBinAddr: 0x160E0, symSize: 0x760 }
  - { offset: 0x12F08F, size: 0x8, addend: 0x0, symName: __ZN8nlohmann16json_abi_v3_11_26detail6parserINS0_10basic_jsonINSt3__13mapENS4_6vectorENS4_12basic_stringIcNS4_11char_traitsIcEENS4_9allocatorIcEEEEbxydSA_NS0_14adl_serializerENS6_IhNSA_IhEEEEEENS1_22iterator_input_adapterINS4_11__wrap_iterIPKcEEEEED1Ev, symObjAddr: 0x10170, symBinAddr: 0x16840, symSize: 0x20 }
  - { offset: 0x12F0BC, size: 0x8, addend: 0x0, symName: __ZN8nlohmann16json_abi_v3_11_210basic_jsonINSt3__13mapENS2_6vectorENS2_12basic_stringIcNS2_11char_traitsIcEENS2_9allocatorIcEEEEbxydS8_NS0_14adl_serializerENS4_IhNS8_IhEEEEEC1ENS0_6detail7value_tE, symObjAddr: 0x10190, symBinAddr: 0x16860, symSize: 0x30 }
  - { offset: 0x12F0F6, size: 0x8, addend: 0x0, symName: __ZN8nlohmann16json_abi_v3_11_210basic_jsonINSt3__13mapENS2_6vectorENS2_12basic_stringIcNS2_11char_traitsIcEENS2_9allocatorIcEEEEbxydS8_NS0_14adl_serializerENS4_IhNS8_IhEEEEEC2ENS0_6detail7value_tE, symObjAddr: 0x101C0, symBinAddr: 0x16890, symSize: 0x40 }
  - { offset: 0x12F130, size: 0x8, addend: 0x0, symName: __ZN8nlohmann16json_abi_v3_11_210basic_jsonINSt3__13mapENS2_6vectorENS2_12basic_stringIcNS2_11char_traitsIcEENS2_9allocatorIcEEEEbxydS8_NS0_14adl_serializerENS4_IhNS8_IhEEEEE10json_valueC1ENS0_6detail7value_tE, symObjAddr: 0x10200, symBinAddr: 0x168D0, symSize: 0x30 }
  - { offset: 0x12F16A, size: 0x8, addend: 0x0, symName: __ZN8nlohmann16json_abi_v3_11_210basic_jsonINSt3__13mapENS2_6vectorENS2_12basic_stringIcNS2_11char_traitsIcEENS2_9allocatorIcEEEEbxydS8_NS0_14adl_serializerENS4_IhNS8_IhEEEEE10json_valueC2ENS0_6detail7value_tE, symObjAddr: 0x10230, symBinAddr: 0x16900, symSize: 0x1F0 }
  - { offset: 0x12F1A4, size: 0x8, addend: 0x0, symName: __ZN8nlohmann16json_abi_v3_11_210basic_jsonINSt3__13mapENS2_6vectorENS2_12basic_stringIcNS2_11char_traitsIcEENS2_9allocatorIcEEEEbxydS8_NS0_14adl_serializerENS4_IhNS8_IhEEEEE6createINS3_ISA_SE_NS2_4lessIvEENS8_INS2_4pairIKSA_SE_EEEEEEJEEEPT_DpOT0_, symObjAddr: 0x10420, symBinAddr: 0x16AF0, symSize: 0xE0 }
  - { offset: 0x12F221, size: 0x8, addend: 0x0, symName: __ZN8nlohmann16json_abi_v3_11_210basic_jsonINSt3__13mapENS2_6vectorENS2_12basic_stringIcNS2_11char_traitsIcEENS2_9allocatorIcEEEEbxydS8_NS0_14adl_serializerENS4_IhNS8_IhEEEEE6createINS4_ISE_NS8_ISE_EEEEJEEEPT_DpOT0_, symObjAddr: 0x10500, symBinAddr: 0x16BD0, symSize: 0xE0 }
  - { offset: 0x12F2B5, size: 0x8, addend: 0x0, symName: __ZN8nlohmann16json_abi_v3_11_210basic_jsonINSt3__13mapENS2_6vectorENS2_12basic_stringIcNS2_11char_traitsIcEENS2_9allocatorIcEEEEbxydS8_NS0_14adl_serializerENS4_IhNS8_IhEEEEE6createISA_JRA1_KcEEEPT_DpOT0_, symObjAddr: 0x105E0, symBinAddr: 0x16CB0, symSize: 0xF0 }
  - { offset: 0x12F349, size: 0x8, addend: 0x0, symName: __ZN8nlohmann16json_abi_v3_11_210basic_jsonINSt3__13mapENS2_6vectorENS2_12basic_stringIcNS2_11char_traitsIcEENS2_9allocatorIcEEEEbxydS8_NS0_14adl_serializerENS4_IhNS8_IhEEEEE6createINS0_27byte_container_with_subtypeISD_EEJEEEPT_DpOT0_, symObjAddr: 0x106D0, symBinAddr: 0x16DA0, symSize: 0xE0 }
  - { offset: 0x12F3CB, size: 0x8, addend: 0x0, symName: __ZN8nlohmann16json_abi_v3_11_26detail11other_error6createIDnLi0EEES2_iRKNSt3__112basic_stringIcNS4_11char_traitsIcEENS4_9allocatorIcEEEET_, symObjAddr: 0x107B0, symBinAddr: 0x16E80, symSize: 0x160 }
  - { offset: 0x12F430, size: 0x8, addend: 0x0, symName: __ZN8nlohmann16json_abi_v3_11_26detail11other_errorD1Ev, symObjAddr: 0x10910, symBinAddr: 0x16FE0, symSize: 0x20 }
  - { offset: 0x12F45D, size: 0x8, addend: 0x0, symName: __ZNSt3__116allocator_traitsINS_9allocatorINS_3mapINS_12basic_stringIcNS_11char_traitsIcEENS1_IcEEEEN8nlohmann16json_abi_v3_11_210basic_jsonIS2_NS_6vectorES7_bxydS1_NS9_14adl_serializerENSB_IhNS1_IhEEEEEENS_4lessIvEENS1_INS_4pairIKS7_SF_EEEEEEEEE8allocateB8de180100ERSN_m, symObjAddr: 0x10930, symBinAddr: 0x17000, symSize: 0x30 }
  - { offset: 0x12F528, size: 0x8, addend: 0x0, symName: __ZNSt3__110unique_ptrINS_3mapINS_12basic_stringIcNS_11char_traitsIcEENS_9allocatorIcEEEEN8nlohmann16json_abi_v3_11_210basic_jsonIS1_NS_6vectorES7_bxydS5_NS9_14adl_serializerENSB_IhNS5_IhEEEEEENS_4lessIvEENS5_INS_4pairIKS7_SF_EEEEEEZNSF_6createISM_JEEEPT_DpOT0_EUlPSM_E_EC1B8de180100ILb1EvEEST_NS_16__dependent_typeINS_27__unique_ptr_deleter_sfinaeISU_EEXT_EE15__lval_ref_typeE, symObjAddr: 0x10960, symBinAddr: 0x17030, symSize: 0x30 }
  - { offset: 0x12F57D, size: 0x8, addend: 0x0, symName: __ZNSt3__116allocator_traitsINS_9allocatorINS_3mapINS_12basic_stringIcNS_11char_traitsIcEENS1_IcEEEEN8nlohmann16json_abi_v3_11_210basic_jsonIS2_NS_6vectorES7_bxydS1_NS9_14adl_serializerENSB_IhNS1_IhEEEEEENS_4lessIvEENS1_INS_4pairIKS7_SF_EEEEEEEEE9constructB8de180100ISM_JEvEEvRSN_PT_DpOT0_, symObjAddr: 0x10990, symBinAddr: 0x17060, symSize: 0x30 }
  - { offset: 0x12F5C3, size: 0x8, addend: 0x0, symName: __ZNKSt3__110unique_ptrINS_3mapINS_12basic_stringIcNS_11char_traitsIcEENS_9allocatorIcEEEEN8nlohmann16json_abi_v3_11_210basic_jsonIS1_NS_6vectorES7_bxydS5_NS9_14adl_serializerENSB_IhNS5_IhEEEEEENS_4lessIvEENS5_INS_4pairIKS7_SF_EEEEEEZNSF_6createISM_JEEEPT_DpOT0_EUlPSM_E_E3getB8de180100Ev, symObjAddr: 0x109C0, symBinAddr: 0x17090, symSize: 0x20 }
  - { offset: 0x12F5E9, size: 0x8, addend: 0x0, symName: __ZNSt3__110unique_ptrINS_3mapINS_12basic_stringIcNS_11char_traitsIcEENS_9allocatorIcEEEEN8nlohmann16json_abi_v3_11_210basic_jsonIS1_NS_6vectorES7_bxydS5_NS9_14adl_serializerENSB_IhNS5_IhEEEEEENS_4lessIvEENS5_INS_4pairIKS7_SF_EEEEEEZNSF_6createISM_JEEEPT_DpOT0_EUlPSM_E_E7releaseB8de180100Ev, symObjAddr: 0x10A10, symBinAddr: 0x170E0, symSize: 0x40 }
  - { offset: 0x12F61F, size: 0x8, addend: 0x0, symName: __ZNSt3__110unique_ptrINS_3mapINS_12basic_stringIcNS_11char_traitsIcEENS_9allocatorIcEEEEN8nlohmann16json_abi_v3_11_210basic_jsonIS1_NS_6vectorES7_bxydS5_NS9_14adl_serializerENSB_IhNS5_IhEEEEEENS_4lessIvEENS5_INS_4pairIKS7_SF_EEEEEEZNSF_6createISM_JEEEPT_DpOT0_EUlPSM_E_ED1B8de180100Ev, symObjAddr: 0x10A50, symBinAddr: 0x17120, symSize: 0x20 }
  - { offset: 0x12F649, size: 0x8, addend: 0x0, symName: __ZNSt3__19allocatorINS_3mapINS_12basic_stringIcNS_11char_traitsIcEENS0_IcEEEEN8nlohmann16json_abi_v3_11_210basic_jsonIS1_NS_6vectorES6_bxydS0_NS8_14adl_serializerENSA_IhNS0_IhEEEEEENS_4lessIvEENS0_INS_4pairIKS6_SE_EEEEEEE8allocateB8de180100Em, symObjAddr: 0x10A70, symBinAddr: 0x17140, symSize: 0x50 }
  - { offset: 0x12F689, size: 0x8, addend: 0x0, symName: __ZNSt3__116allocator_traitsINS_9allocatorINS_3mapINS_12basic_stringIcNS_11char_traitsIcEENS1_IcEEEEN8nlohmann16json_abi_v3_11_210basic_jsonIS2_NS_6vectorES7_bxydS1_NS9_14adl_serializerENSB_IhNS1_IhEEEEEENS_4lessIvEENS1_INS_4pairIKS7_SF_EEEEEEEEE8max_sizeB8de180100ISN_vEEmRKSN_, symObjAddr: 0x10AC0, symBinAddr: 0x17190, symSize: 0x20 }
  - { offset: 0x12F6B9, size: 0x8, addend: 0x0, symName: __ZNKSt3__19allocatorINS_3mapINS_12basic_stringIcNS_11char_traitsIcEENS0_IcEEEEN8nlohmann16json_abi_v3_11_210basic_jsonIS1_NS_6vectorES6_bxydS0_NS8_14adl_serializerENSA_IhNS0_IhEEEEEENS_4lessIvEENS0_INS_4pairIKS6_SE_EEEEEEE8max_sizeB8de180100Ev, symObjAddr: 0x10AE0, symBinAddr: 0x171B0, symSize: 0x20 }
  - { offset: 0x12F6DF, size: 0x8, addend: 0x0, symName: __ZNSt3__110unique_ptrINS_3mapINS_12basic_stringIcNS_11char_traitsIcEENS_9allocatorIcEEEEN8nlohmann16json_abi_v3_11_210basic_jsonIS1_NS_6vectorES7_bxydS5_NS9_14adl_serializerENSB_IhNS5_IhEEEEEENS_4lessIvEENS5_INS_4pairIKS7_SF_EEEEEEZNSF_6createISM_JEEEPT_DpOT0_EUlPSM_E_EC2B8de180100ILb1EvEEST_NS_16__dependent_typeINS_27__unique_ptr_deleter_sfinaeISU_EEXT_EE15__lval_ref_typeE, symObjAddr: 0x10B00, symBinAddr: 0x171D0, symSize: 0x40 }
  - { offset: 0x12F734, size: 0x8, addend: 0x0, symName: __ZNSt3__117__compressed_pairIPNS_3mapINS_12basic_stringIcNS_11char_traitsIcEENS_9allocatorIcEEEEN8nlohmann16json_abi_v3_11_210basic_jsonIS1_NS_6vectorES7_bxydS5_NS9_14adl_serializerENSB_IhNS5_IhEEEEEENS_4lessIvEENS5_INS_4pairIKS7_SF_EEEEEEZNSF_6createISM_JEEEPT_DpOT0_EUlSN_E_EC1B8de180100IRSN_RKSU_EEOSP_OT0_, symObjAddr: 0x10B40, symBinAddr: 0x17210, symSize: 0x30 }
  - { offset: 0x12F78E, size: 0x8, addend: 0x0, symName: __ZNSt3__117__compressed_pairIPNS_3mapINS_12basic_stringIcNS_11char_traitsIcEENS_9allocatorIcEEEEN8nlohmann16json_abi_v3_11_210basic_jsonIS1_NS_6vectorES7_bxydS5_NS9_14adl_serializerENSB_IhNS5_IhEEEEEENS_4lessIvEENS5_INS_4pairIKS7_SF_EEEEEEZNSF_6createISM_JEEEPT_DpOT0_EUlSN_E_EC2B8de180100IRSN_RKSU_EEOSP_OT0_, symObjAddr: 0x10B70, symBinAddr: 0x17240, symSize: 0x40 }
  - { offset: 0x12F7E8, size: 0x8, addend: 0x0, symName: __ZNSt3__122__compressed_pair_elemIPNS_3mapINS_12basic_stringIcNS_11char_traitsIcEENS_9allocatorIcEEEEN8nlohmann16json_abi_v3_11_210basic_jsonIS1_NS_6vectorES7_bxydS5_NS9_14adl_serializerENSB_IhNS5_IhEEEEEENS_4lessIvEENS5_INS_4pairIKS7_SF_EEEEEELi0ELb0EEC2B8de180100IRSN_vEEOT_, symObjAddr: 0x10BB0, symBinAddr: 0x17280, symSize: 0x20 }
  - { offset: 0x12F82C, size: 0x8, addend: 0x0, symName: __ZNSt3__122__compressed_pair_elemIZN8nlohmann16json_abi_v3_11_210basic_jsonINS_3mapENS_6vectorENS_12basic_stringIcNS_11char_traitsIcEENS_9allocatorIcEEEEbxydS9_NS2_14adl_serializerENS5_IhNS9_IhEEEEE6createINS4_ISB_SF_NS_4lessIvEENS9_INS_4pairIKSB_SF_EEEEEEJEEEPT_DpOT0_EUlPSN_E_Li1ELb0EEC2B8de180100IRKSU_vEEOSO_, symObjAddr: 0x10BD0, symBinAddr: 0x172A0, symSize: 0x20 }
  - { offset: 0x12F870, size: 0x8, addend: 0x0, symName: __ZNSt3__19allocatorINS_3mapINS_12basic_stringIcNS_11char_traitsIcEENS0_IcEEEEN8nlohmann16json_abi_v3_11_210basic_jsonIS1_NS_6vectorES6_bxydS0_NS8_14adl_serializerENSA_IhNS0_IhEEEEEENS_4lessIvEENS0_INS_4pairIKS6_SE_EEEEEEE9constructB8de180100ISL_JEEEvPT_DpOT0_, symObjAddr: 0x10BF0, symBinAddr: 0x172C0, symSize: 0x20 }
  - { offset: 0x12F8B4, size: 0x8, addend: 0x0, symName: __ZNSt3__13mapINS_12basic_stringIcNS_11char_traitsIcEENS_9allocatorIcEEEEN8nlohmann16json_abi_v3_11_210basic_jsonIS0_NS_6vectorES6_bxydS4_NS8_14adl_serializerENSA_IhNS4_IhEEEEEENS_4lessIvEENS4_INS_4pairIKS6_SE_EEEEEC1B8de180100Ev, symObjAddr: 0x10C10, symBinAddr: 0x172E0, symSize: 0x20 }
  - { offset: 0x12F8DE, size: 0x8, addend: 0x0, symName: __ZNSt3__13mapINS_12basic_stringIcNS_11char_traitsIcEENS_9allocatorIcEEEEN8nlohmann16json_abi_v3_11_210basic_jsonIS0_NS_6vectorES6_bxydS4_NS8_14adl_serializerENSA_IhNS4_IhEEEEEENS_4lessIvEENS4_INS_4pairIKS6_SE_EEEEEC2B8de180100Ev, symObjAddr: 0x10C30, symBinAddr: 0x17300, symSize: 0x30 }
  - { offset: 0x12F908, size: 0x8, addend: 0x0, symName: __ZNSt3__119__map_value_compareINS_12basic_stringIcNS_11char_traitsIcEENS_9allocatorIcEEEENS_12__value_typeIS6_N8nlohmann16json_abi_v3_11_210basic_jsonINS_3mapENS_6vectorES6_bxydS4_NS9_14adl_serializerENSC_IhNS4_IhEEEEEEEENS_4lessIvEELb1EEC1B8de180100ESJ_, symObjAddr: 0x10C60, symBinAddr: 0x17330, symSize: 0x20 }
  - { offset: 0x12F942, size: 0x8, addend: 0x0, symName: __ZNSt3__16__treeINS_12__value_typeINS_12basic_stringIcNS_11char_traitsIcEENS_9allocatorIcEEEEN8nlohmann16json_abi_v3_11_210basic_jsonINS_3mapENS_6vectorES7_bxydS5_NS9_14adl_serializerENSC_IhNS5_IhEEEEEEEENS_19__map_value_compareIS7_SH_NS_4lessIvEELb1EEENS5_ISH_EEEC1ERKSL_, symObjAddr: 0x10C80, symBinAddr: 0x17350, symSize: 0x30 }
  - { offset: 0x12F97E, size: 0x8, addend: 0x0, symName: __ZNSt3__119__map_value_compareINS_12basic_stringIcNS_11char_traitsIcEENS_9allocatorIcEEEENS_12__value_typeIS6_N8nlohmann16json_abi_v3_11_210basic_jsonINS_3mapENS_6vectorES6_bxydS4_NS9_14adl_serializerENSC_IhNS4_IhEEEEEEEENS_4lessIvEELb1EEC2B8de180100ESJ_, symObjAddr: 0x10CB0, symBinAddr: 0x17380, symSize: 0x10 }
  - { offset: 0x12F9B8, size: 0x8, addend: 0x0, symName: __ZNSt3__16__treeINS_12__value_typeINS_12basic_stringIcNS_11char_traitsIcEENS_9allocatorIcEEEEN8nlohmann16json_abi_v3_11_210basic_jsonINS_3mapENS_6vectorES7_bxydS5_NS9_14adl_serializerENSC_IhNS5_IhEEEEEEEENS_19__map_value_compareIS7_SH_NS_4lessIvEELb1EEENS5_ISH_EEEC2ERKSL_, symObjAddr: 0x10CC0, symBinAddr: 0x17390, symSize: 0x80 }
  - { offset: 0x12F9F4, size: 0x8, addend: 0x0, symName: __ZNSt3__117__compressed_pairINS_15__tree_end_nodeIPNS_16__tree_node_baseIPvEEEENS_9allocatorINS_11__tree_nodeINS_12__value_typeINS_12basic_stringIcNS_11char_traitsIcEENS7_IcEEEEN8nlohmann16json_abi_v3_11_210basic_jsonINS_3mapENS_6vectorESE_bxydS7_NSG_14adl_serializerENSJ_IhNS7_IhEEEEEEEES3_EEEEEC1B8de180100ILb1EvEEv, symObjAddr: 0x10D40, symBinAddr: 0x17410, symSize: 0x20 }
  - { offset: 0x12FA2B, size: 0x8, addend: 0x0, symName: __ZNSt3__117__compressed_pairImNS_19__map_value_compareINS_12basic_stringIcNS_11char_traitsIcEENS_9allocatorIcEEEENS_12__value_typeIS7_N8nlohmann16json_abi_v3_11_210basic_jsonINS_3mapENS_6vectorES7_bxydS5_NSA_14adl_serializerENSD_IhNS5_IhEEEEEEEENS_4lessIvEELb1EEEEC1B8de180100IiRKSL_EEOT_OT0_, symObjAddr: 0x10D60, symBinAddr: 0x17430, symSize: 0x30 }
  - { offset: 0x12FA85, size: 0x8, addend: 0x0, symName: __ZNSt3__117__compressed_pairINS_15__tree_end_nodeIPNS_16__tree_node_baseIPvEEEENS_9allocatorINS_11__tree_nodeINS_12__value_typeINS_12basic_stringIcNS_11char_traitsIcEENS7_IcEEEEN8nlohmann16json_abi_v3_11_210basic_jsonINS_3mapENS_6vectorESE_bxydS7_NSG_14adl_serializerENSJ_IhNS7_IhEEEEEEEES3_EEEEEC2B8de180100ILb1EvEEv, symObjAddr: 0x10D90, symBinAddr: 0x17460, symSize: 0x30 }
  - { offset: 0x12FABC, size: 0x8, addend: 0x0, symName: __ZNSt3__122__compressed_pair_elemINS_15__tree_end_nodeIPNS_16__tree_node_baseIPvEEEELi0ELb0EEC2B8de180100ENS_16__value_init_tagE, symObjAddr: 0x10DC0, symBinAddr: 0x17490, symSize: 0x20 }
  - { offset: 0x12FAF1, size: 0x8, addend: 0x0, symName: __ZNSt3__122__compressed_pair_elemINS_9allocatorINS_11__tree_nodeINS_12__value_typeINS_12basic_stringIcNS_11char_traitsIcEENS1_IcEEEEN8nlohmann16json_abi_v3_11_210basic_jsonINS_3mapENS_6vectorES8_bxydS1_NSA_14adl_serializerENSD_IhNS1_IhEEEEEEEEPvEEEELi1ELb1EEC2B8de180100ENS_16__value_init_tagE, symObjAddr: 0x10DE0, symBinAddr: 0x174B0, symSize: 0x20 }
  - { offset: 0x12FB26, size: 0x8, addend: 0x0, symName: __ZNSt3__115__tree_end_nodeIPNS_16__tree_node_baseIPvEEEC1B8de180100Ev, symObjAddr: 0x10E00, symBinAddr: 0x174D0, symSize: 0x20 }
  - { offset: 0x12FB50, size: 0x8, addend: 0x0, symName: __ZNSt3__115__tree_end_nodeIPNS_16__tree_node_baseIPvEEEC2B8de180100Ev, symObjAddr: 0x10E20, symBinAddr: 0x174F0, symSize: 0x20 }
  - { offset: 0x12FB7A, size: 0x8, addend: 0x0, symName: __ZNSt3__19allocatorINS_11__tree_nodeINS_12__value_typeINS_12basic_stringIcNS_11char_traitsIcEENS0_IcEEEEN8nlohmann16json_abi_v3_11_210basic_jsonINS_3mapENS_6vectorES7_bxydS0_NS9_14adl_serializerENSC_IhNS0_IhEEEEEEEEPvEEEC2B8de180100Ev, symObjAddr: 0x10E40, symBinAddr: 0x17510, symSize: 0x20 }
  - { offset: 0x12FBA4, size: 0x8, addend: 0x0, symName: __ZNSt3__116__non_trivial_ifILb1ENS_9allocatorINS_11__tree_nodeINS_12__value_typeINS_12basic_stringIcNS_11char_traitsIcEENS1_IcEEEEN8nlohmann16json_abi_v3_11_210basic_jsonINS_3mapENS_6vectorES8_bxydS1_NSA_14adl_serializerENSD_IhNS1_IhEEEEEEEEPvEEEEEC2B8de180100Ev, symObjAddr: 0x10E60, symBinAddr: 0x17530, symSize: 0x10 }
  - { offset: 0x12FBCE, size: 0x8, addend: 0x0, symName: __ZNSt3__117__compressed_pairImNS_19__map_value_compareINS_12basic_stringIcNS_11char_traitsIcEENS_9allocatorIcEEEENS_12__value_typeIS7_N8nlohmann16json_abi_v3_11_210basic_jsonINS_3mapENS_6vectorES7_bxydS5_NSA_14adl_serializerENSD_IhNS5_IhEEEEEEEENS_4lessIvEELb1EEEEC2B8de180100IiRKSL_EEOT_OT0_, symObjAddr: 0x10E70, symBinAddr: 0x17540, symSize: 0x40 }
  - { offset: 0x12FC28, size: 0x8, addend: 0x0, symName: __ZNSt3__122__compressed_pair_elemImLi0ELb0EEC2B8de180100IivEEOT_, symObjAddr: 0x10EB0, symBinAddr: 0x17580, symSize: 0x20 }
  - { offset: 0x12FC6C, size: 0x8, addend: 0x0, symName: __ZNSt3__122__compressed_pair_elemINS_19__map_value_compareINS_12basic_stringIcNS_11char_traitsIcEENS_9allocatorIcEEEENS_12__value_typeIS7_N8nlohmann16json_abi_v3_11_210basic_jsonINS_3mapENS_6vectorES7_bxydS5_NSA_14adl_serializerENSD_IhNS5_IhEEEEEEEENS_4lessIvEELb1EEELi1ELb1EEC2B8de180100IRKSL_vEEOT_, symObjAddr: 0x10ED0, symBinAddr: 0x175A0, symSize: 0x10 }
  - { offset: 0x12FCB0, size: 0x8, addend: 0x0, symName: __ZNKSt3__117__compressed_pairIPNS_3mapINS_12basic_stringIcNS_11char_traitsIcEENS_9allocatorIcEEEEN8nlohmann16json_abi_v3_11_210basic_jsonIS1_NS_6vectorES7_bxydS5_NS9_14adl_serializerENSB_IhNS5_IhEEEEEENS_4lessIvEENS5_INS_4pairIKS7_SF_EEEEEEZNSF_6createISM_JEEEPT_DpOT0_EUlSN_E_E5firstB8de180100Ev, symObjAddr: 0x10EE0, symBinAddr: 0x175B0, symSize: 0x20 }
  - { offset: 0x12FCD6, size: 0x8, addend: 0x0, symName: __ZNKSt3__122__compressed_pair_elemIPNS_3mapINS_12basic_stringIcNS_11char_traitsIcEENS_9allocatorIcEEEEN8nlohmann16json_abi_v3_11_210basic_jsonIS1_NS_6vectorES7_bxydS5_NS9_14adl_serializerENSB_IhNS5_IhEEEEEENS_4lessIvEENS5_INS_4pairIKS7_SF_EEEEEELi0ELb0EE5__getB8de180100Ev, symObjAddr: 0x10F00, symBinAddr: 0x175D0, symSize: 0x10 }
  - { offset: 0x12FCFC, size: 0x8, addend: 0x0, symName: __ZNKSt3__110unique_ptrINS_3mapINS_12basic_stringIcNS_11char_traitsIcEENS_9allocatorIcEEEEN8nlohmann16json_abi_v3_11_210basic_jsonIS1_NS_6vectorES7_bxydS5_NS9_14adl_serializerENSB_IhNS5_IhEEEEEENS_4lessIvEENS5_INS_4pairIKS7_SF_EEEEEEZNSF_6createISM_JEEEPT_DpOT0_EUlPSM_E_EcvbB8de180100Ev, symObjAddr: 0x10F10, symBinAddr: 0x175E0, symSize: 0x30 }
  - { offset: 0x12FD22, size: 0x8, addend: 0x0, symName: __ZNSt3__117__compressed_pairIPNS_3mapINS_12basic_stringIcNS_11char_traitsIcEENS_9allocatorIcEEEEN8nlohmann16json_abi_v3_11_210basic_jsonIS1_NS_6vectorES7_bxydS5_NS9_14adl_serializerENSB_IhNS5_IhEEEEEENS_4lessIvEENS5_INS_4pairIKS7_SF_EEEEEEZNSF_6createISM_JEEEPT_DpOT0_EUlSN_E_E5firstB8de180100Ev, symObjAddr: 0x10F40, symBinAddr: 0x17610, symSize: 0x20 }
  - { offset: 0x12FD48, size: 0x8, addend: 0x0, symName: __ZNSt3__122__compressed_pair_elemIPNS_3mapINS_12basic_stringIcNS_11char_traitsIcEENS_9allocatorIcEEEEN8nlohmann16json_abi_v3_11_210basic_jsonIS1_NS_6vectorES7_bxydS5_NS9_14adl_serializerENSB_IhNS5_IhEEEEEENS_4lessIvEENS5_INS_4pairIKS7_SF_EEEEEELi0ELb0EE5__getB8de180100Ev, symObjAddr: 0x10F60, symBinAddr: 0x17630, symSize: 0x10 }
  - { offset: 0x12FD6E, size: 0x8, addend: 0x0, symName: __ZNSt3__110unique_ptrINS_3mapINS_12basic_stringIcNS_11char_traitsIcEENS_9allocatorIcEEEEN8nlohmann16json_abi_v3_11_210basic_jsonIS1_NS_6vectorES7_bxydS5_NS9_14adl_serializerENSB_IhNS5_IhEEEEEENS_4lessIvEENS5_INS_4pairIKS7_SF_EEEEEEZNSF_6createISM_JEEEPT_DpOT0_EUlPSM_E_ED2B8de180100Ev, symObjAddr: 0x10F70, symBinAddr: 0x17640, symSize: 0x20 }
  - { offset: 0x12FD98, size: 0x8, addend: 0x0, symName: __ZNSt3__110unique_ptrINS_3mapINS_12basic_stringIcNS_11char_traitsIcEENS_9allocatorIcEEEEN8nlohmann16json_abi_v3_11_210basic_jsonIS1_NS_6vectorES7_bxydS5_NS9_14adl_serializerENSB_IhNS5_IhEEEEEENS_4lessIvEENS5_INS_4pairIKS7_SF_EEEEEEZNSF_6createISM_JEEEPT_DpOT0_EUlPSM_E_E5resetB8de180100EST_, symObjAddr: 0x10F90, symBinAddr: 0x17660, symSize: 0x80 }
  - { offset: 0x12FDDE, size: 0x8, addend: 0x0, symName: __ZNSt3__117__compressed_pairIPNS_3mapINS_12basic_stringIcNS_11char_traitsIcEENS_9allocatorIcEEEEN8nlohmann16json_abi_v3_11_210basic_jsonIS1_NS_6vectorES7_bxydS5_NS9_14adl_serializerENSB_IhNS5_IhEEEEEENS_4lessIvEENS5_INS_4pairIKS7_SF_EEEEEEZNSF_6createISM_JEEEPT_DpOT0_EUlSN_E_E6secondB8de180100Ev, symObjAddr: 0x11010, symBinAddr: 0x176E0, symSize: 0x20 }
  - { offset: 0x12FE09, size: 0x8, addend: 0x0, symName: __ZZN8nlohmann16json_abi_v3_11_210basic_jsonINSt3__13mapENS2_6vectorENS2_12basic_stringIcNS2_11char_traitsIcEENS2_9allocatorIcEEEEbxydS8_NS0_14adl_serializerENS4_IhNS8_IhEEEEE6createINS3_ISA_SE_NS2_4lessIvEENS8_INS2_4pairIKSA_SE_EEEEEEJEEEPT_DpOT0_ENKUlPSM_E_clESS_, symObjAddr: 0x11030, symBinAddr: 0x17700, symSize: 0x30 }
  - { offset: 0x12FE43, size: 0x8, addend: 0x0, symName: __ZNSt3__122__compressed_pair_elemIZN8nlohmann16json_abi_v3_11_210basic_jsonINS_3mapENS_6vectorENS_12basic_stringIcNS_11char_traitsIcEENS_9allocatorIcEEEEbxydS9_NS2_14adl_serializerENS5_IhNS9_IhEEEEE6createINS4_ISB_SF_NS_4lessIvEENS9_INS_4pairIKSB_SF_EEEEEEJEEEPT_DpOT0_EUlPSN_E_Li1ELb0EE5__getB8de180100Ev, symObjAddr: 0x11060, symBinAddr: 0x17730, symSize: 0x10 }
  - { offset: 0x12FE69, size: 0x8, addend: 0x0, symName: __ZNSt3__116allocator_traitsINS_9allocatorINS_6vectorIN8nlohmann16json_abi_v3_11_210basic_jsonINS_3mapES2_NS_12basic_stringIcNS_11char_traitsIcEENS1_IcEEEEbxydS1_NS4_14adl_serializerENS2_IhNS1_IhEEEEEENS1_ISF_EEEEEEE8allocateB8de180100ERSI_m, symObjAddr: 0x11070, symBinAddr: 0x17740, symSize: 0x30 }
  - { offset: 0x12FF34, size: 0x8, addend: 0x0, symName: __ZNSt3__110unique_ptrINS_6vectorIN8nlohmann16json_abi_v3_11_210basic_jsonINS_3mapES1_NS_12basic_stringIcNS_11char_traitsIcEENS_9allocatorIcEEEEbxydS9_NS3_14adl_serializerENS1_IhNS9_IhEEEEEENS9_ISF_EEEEZNSF_6createISH_JEEEPT_DpOT0_EUlPSH_E_EC1B8de180100ILb1EvEESO_NS_16__dependent_typeINS_27__unique_ptr_deleter_sfinaeISP_EEXT_EE15__lval_ref_typeE, symObjAddr: 0x110A0, symBinAddr: 0x17770, symSize: 0x30 }
  - { offset: 0x12FF89, size: 0x8, addend: 0x0, symName: __ZNSt3__116allocator_traitsINS_9allocatorINS_6vectorIN8nlohmann16json_abi_v3_11_210basic_jsonINS_3mapES2_NS_12basic_stringIcNS_11char_traitsIcEENS1_IcEEEEbxydS1_NS4_14adl_serializerENS2_IhNS1_IhEEEEEENS1_ISF_EEEEEEE9constructB8de180100ISH_JEvEEvRSI_PT_DpOT0_, symObjAddr: 0x110D0, symBinAddr: 0x177A0, symSize: 0x30 }
  - { offset: 0x12FFCF, size: 0x8, addend: 0x0, symName: __ZNKSt3__110unique_ptrINS_6vectorIN8nlohmann16json_abi_v3_11_210basic_jsonINS_3mapES1_NS_12basic_stringIcNS_11char_traitsIcEENS_9allocatorIcEEEEbxydS9_NS3_14adl_serializerENS1_IhNS9_IhEEEEEENS9_ISF_EEEEZNSF_6createISH_JEEEPT_DpOT0_EUlPSH_E_E3getB8de180100Ev, symObjAddr: 0x11100, symBinAddr: 0x177D0, symSize: 0x20 }
  - { offset: 0x12FFF5, size: 0x8, addend: 0x0, symName: __ZNSt3__110unique_ptrINS_6vectorIN8nlohmann16json_abi_v3_11_210basic_jsonINS_3mapES1_NS_12basic_stringIcNS_11char_traitsIcEENS_9allocatorIcEEEEbxydS9_NS3_14adl_serializerENS1_IhNS9_IhEEEEEENS9_ISF_EEEEZNSF_6createISH_JEEEPT_DpOT0_EUlPSH_E_E7releaseB8de180100Ev, symObjAddr: 0x11150, symBinAddr: 0x17820, symSize: 0x40 }
  - { offset: 0x13002B, size: 0x8, addend: 0x0, symName: __ZNSt3__110unique_ptrINS_6vectorIN8nlohmann16json_abi_v3_11_210basic_jsonINS_3mapES1_NS_12basic_stringIcNS_11char_traitsIcEENS_9allocatorIcEEEEbxydS9_NS3_14adl_serializerENS1_IhNS9_IhEEEEEENS9_ISF_EEEEZNSF_6createISH_JEEEPT_DpOT0_EUlPSH_E_ED1B8de180100Ev, symObjAddr: 0x11190, symBinAddr: 0x17860, symSize: 0x20 }
  - { offset: 0x130055, size: 0x8, addend: 0x0, symName: __ZNSt3__19allocatorINS_6vectorIN8nlohmann16json_abi_v3_11_210basic_jsonINS_3mapES1_NS_12basic_stringIcNS_11char_traitsIcEENS0_IcEEEEbxydS0_NS3_14adl_serializerENS1_IhNS0_IhEEEEEENS0_ISE_EEEEE8allocateB8de180100Em, symObjAddr: 0x111B0, symBinAddr: 0x17880, symSize: 0x50 }
  - { offset: 0x130095, size: 0x8, addend: 0x0, symName: __ZNSt3__116allocator_traitsINS_9allocatorINS_6vectorIN8nlohmann16json_abi_v3_11_210basic_jsonINS_3mapES2_NS_12basic_stringIcNS_11char_traitsIcEENS1_IcEEEEbxydS1_NS4_14adl_serializerENS2_IhNS1_IhEEEEEENS1_ISF_EEEEEEE8max_sizeB8de180100ISI_vEEmRKSI_, symObjAddr: 0x11200, symBinAddr: 0x178D0, symSize: 0x20 }
  - { offset: 0x1300C5, size: 0x8, addend: 0x0, symName: __ZNKSt3__19allocatorINS_6vectorIN8nlohmann16json_abi_v3_11_210basic_jsonINS_3mapES1_NS_12basic_stringIcNS_11char_traitsIcEENS0_IcEEEEbxydS0_NS3_14adl_serializerENS1_IhNS0_IhEEEEEENS0_ISE_EEEEE8max_sizeB8de180100Ev, symObjAddr: 0x11220, symBinAddr: 0x178F0, symSize: 0x20 }
  - { offset: 0x1300EB, size: 0x8, addend: 0x0, symName: __ZNSt3__110unique_ptrINS_6vectorIN8nlohmann16json_abi_v3_11_210basic_jsonINS_3mapES1_NS_12basic_stringIcNS_11char_traitsIcEENS_9allocatorIcEEEEbxydS9_NS3_14adl_serializerENS1_IhNS9_IhEEEEEENS9_ISF_EEEEZNSF_6createISH_JEEEPT_DpOT0_EUlPSH_E_EC2B8de180100ILb1EvEESO_NS_16__dependent_typeINS_27__unique_ptr_deleter_sfinaeISP_EEXT_EE15__lval_ref_typeE, symObjAddr: 0x11240, symBinAddr: 0x17910, symSize: 0x40 }
  - { offset: 0x130140, size: 0x8, addend: 0x0, symName: __ZNSt3__117__compressed_pairIPNS_6vectorIN8nlohmann16json_abi_v3_11_210basic_jsonINS_3mapES1_NS_12basic_stringIcNS_11char_traitsIcEENS_9allocatorIcEEEEbxydS9_NS3_14adl_serializerENS1_IhNS9_IhEEEEEENS9_ISF_EEEEZNSF_6createISH_JEEEPT_DpOT0_EUlSI_E_EC1B8de180100IRSI_RKSP_EEOSK_OT0_, symObjAddr: 0x11280, symBinAddr: 0x17950, symSize: 0x30 }
  - { offset: 0x13019A, size: 0x8, addend: 0x0, symName: __ZNSt3__117__compressed_pairIPNS_6vectorIN8nlohmann16json_abi_v3_11_210basic_jsonINS_3mapES1_NS_12basic_stringIcNS_11char_traitsIcEENS_9allocatorIcEEEEbxydS9_NS3_14adl_serializerENS1_IhNS9_IhEEEEEENS9_ISF_EEEEZNSF_6createISH_JEEEPT_DpOT0_EUlSI_E_EC2B8de180100IRSI_RKSP_EEOSK_OT0_, symObjAddr: 0x112B0, symBinAddr: 0x17980, symSize: 0x40 }
  - { offset: 0x1301F4, size: 0x8, addend: 0x0, symName: __ZNSt3__122__compressed_pair_elemIPNS_6vectorIN8nlohmann16json_abi_v3_11_210basic_jsonINS_3mapES1_NS_12basic_stringIcNS_11char_traitsIcEENS_9allocatorIcEEEEbxydS9_NS3_14adl_serializerENS1_IhNS9_IhEEEEEENS9_ISF_EEEELi0ELb0EEC2B8de180100IRSI_vEEOT_, symObjAddr: 0x112F0, symBinAddr: 0x179C0, symSize: 0x20 }
  - { offset: 0x130238, size: 0x8, addend: 0x0, symName: __ZNSt3__122__compressed_pair_elemIZN8nlohmann16json_abi_v3_11_210basic_jsonINS_3mapENS_6vectorENS_12basic_stringIcNS_11char_traitsIcEENS_9allocatorIcEEEEbxydS9_NS2_14adl_serializerENS5_IhNS9_IhEEEEE6createINS5_ISF_NS9_ISF_EEEEJEEEPT_DpOT0_EUlPSI_E_Li1ELb0EEC2B8de180100IRKSP_vEEOSJ_, symObjAddr: 0x11310, symBinAddr: 0x179E0, symSize: 0x20 }
  - { offset: 0x13027C, size: 0x8, addend: 0x0, symName: __ZNSt3__19allocatorINS_6vectorIN8nlohmann16json_abi_v3_11_210basic_jsonINS_3mapES1_NS_12basic_stringIcNS_11char_traitsIcEENS0_IcEEEEbxydS0_NS3_14adl_serializerENS1_IhNS0_IhEEEEEENS0_ISE_EEEEE9constructB8de180100ISG_JEEEvPT_DpOT0_, symObjAddr: 0x11330, symBinAddr: 0x17A00, symSize: 0x20 }
  - { offset: 0x1302C0, size: 0x8, addend: 0x0, symName: __ZNKSt3__117__compressed_pairIPNS_6vectorIN8nlohmann16json_abi_v3_11_210basic_jsonINS_3mapES1_NS_12basic_stringIcNS_11char_traitsIcEENS_9allocatorIcEEEEbxydS9_NS3_14adl_serializerENS1_IhNS9_IhEEEEEENS9_ISF_EEEEZNSF_6createISH_JEEEPT_DpOT0_EUlSI_E_E5firstB8de180100Ev, symObjAddr: 0x11350, symBinAddr: 0x17A20, symSize: 0x20 }
  - { offset: 0x1302E6, size: 0x8, addend: 0x0, symName: __ZNKSt3__122__compressed_pair_elemIPNS_6vectorIN8nlohmann16json_abi_v3_11_210basic_jsonINS_3mapES1_NS_12basic_stringIcNS_11char_traitsIcEENS_9allocatorIcEEEEbxydS9_NS3_14adl_serializerENS1_IhNS9_IhEEEEEENS9_ISF_EEEELi0ELb0EE5__getB8de180100Ev, symObjAddr: 0x11370, symBinAddr: 0x17A40, symSize: 0x10 }
  - { offset: 0x13030C, size: 0x8, addend: 0x0, symName: __ZNKSt3__110unique_ptrINS_6vectorIN8nlohmann16json_abi_v3_11_210basic_jsonINS_3mapES1_NS_12basic_stringIcNS_11char_traitsIcEENS_9allocatorIcEEEEbxydS9_NS3_14adl_serializerENS1_IhNS9_IhEEEEEENS9_ISF_EEEEZNSF_6createISH_JEEEPT_DpOT0_EUlPSH_E_EcvbB8de180100Ev, symObjAddr: 0x11380, symBinAddr: 0x17A50, symSize: 0x30 }
  - { offset: 0x130332, size: 0x8, addend: 0x0, symName: __ZNSt3__117__compressed_pairIPNS_6vectorIN8nlohmann16json_abi_v3_11_210basic_jsonINS_3mapES1_NS_12basic_stringIcNS_11char_traitsIcEENS_9allocatorIcEEEEbxydS9_NS3_14adl_serializerENS1_IhNS9_IhEEEEEENS9_ISF_EEEEZNSF_6createISH_JEEEPT_DpOT0_EUlSI_E_E5firstB8de180100Ev, symObjAddr: 0x113B0, symBinAddr: 0x17A80, symSize: 0x20 }
  - { offset: 0x130358, size: 0x8, addend: 0x0, symName: __ZNSt3__122__compressed_pair_elemIPNS_6vectorIN8nlohmann16json_abi_v3_11_210basic_jsonINS_3mapES1_NS_12basic_stringIcNS_11char_traitsIcEENS_9allocatorIcEEEEbxydS9_NS3_14adl_serializerENS1_IhNS9_IhEEEEEENS9_ISF_EEEELi0ELb0EE5__getB8de180100Ev, symObjAddr: 0x113D0, symBinAddr: 0x17AA0, symSize: 0x10 }
  - { offset: 0x13037E, size: 0x8, addend: 0x0, symName: __ZNSt3__110unique_ptrINS_6vectorIN8nlohmann16json_abi_v3_11_210basic_jsonINS_3mapES1_NS_12basic_stringIcNS_11char_traitsIcEENS_9allocatorIcEEEEbxydS9_NS3_14adl_serializerENS1_IhNS9_IhEEEEEENS9_ISF_EEEEZNSF_6createISH_JEEEPT_DpOT0_EUlPSH_E_ED2B8de180100Ev, symObjAddr: 0x113E0, symBinAddr: 0x17AB0, symSize: 0x20 }
  - { offset: 0x1303A8, size: 0x8, addend: 0x0, symName: __ZNSt3__110unique_ptrINS_6vectorIN8nlohmann16json_abi_v3_11_210basic_jsonINS_3mapES1_NS_12basic_stringIcNS_11char_traitsIcEENS_9allocatorIcEEEEbxydS9_NS3_14adl_serializerENS1_IhNS9_IhEEEEEENS9_ISF_EEEEZNSF_6createISH_JEEEPT_DpOT0_EUlPSH_E_E5resetB8de180100ESO_, symObjAddr: 0x11400, symBinAddr: 0x17AD0, symSize: 0x80 }
  - { offset: 0x1303EE, size: 0x8, addend: 0x0, symName: __ZNSt3__117__compressed_pairIPNS_6vectorIN8nlohmann16json_abi_v3_11_210basic_jsonINS_3mapES1_NS_12basic_stringIcNS_11char_traitsIcEENS_9allocatorIcEEEEbxydS9_NS3_14adl_serializerENS1_IhNS9_IhEEEEEENS9_ISF_EEEEZNSF_6createISH_JEEEPT_DpOT0_EUlSI_E_E6secondB8de180100Ev, symObjAddr: 0x11480, symBinAddr: 0x17B50, symSize: 0x20 }
  - { offset: 0x130419, size: 0x8, addend: 0x0, symName: __ZZN8nlohmann16json_abi_v3_11_210basic_jsonINSt3__13mapENS2_6vectorENS2_12basic_stringIcNS2_11char_traitsIcEENS2_9allocatorIcEEEEbxydS8_NS0_14adl_serializerENS4_IhNS8_IhEEEEE6createINS4_ISE_NS8_ISE_EEEEJEEEPT_DpOT0_ENKUlPSH_E_clESN_, symObjAddr: 0x114A0, symBinAddr: 0x17B70, symSize: 0x30 }
  - { offset: 0x130453, size: 0x8, addend: 0x0, symName: __ZNSt3__122__compressed_pair_elemIZN8nlohmann16json_abi_v3_11_210basic_jsonINS_3mapENS_6vectorENS_12basic_stringIcNS_11char_traitsIcEENS_9allocatorIcEEEEbxydS9_NS2_14adl_serializerENS5_IhNS9_IhEEEEE6createINS5_ISF_NS9_ISF_EEEEJEEEPT_DpOT0_EUlPSI_E_Li1ELb0EE5__getB8de180100Ev, symObjAddr: 0x114D0, symBinAddr: 0x17BA0, symSize: 0x10 }
  - { offset: 0x130479, size: 0x8, addend: 0x0, symName: __ZNSt3__116allocator_traitsINS_9allocatorINS_12basic_stringIcNS_11char_traitsIcEENS1_IcEEEEEEE8allocateB8de180100ERS7_m, symObjAddr: 0x114E0, symBinAddr: 0x17BB0, symSize: 0x30 }
  - { offset: 0x130519, size: 0x8, addend: 0x0, symName: __ZNSt3__110unique_ptrINS_12basic_stringIcNS_11char_traitsIcEENS_9allocatorIcEEEEZN8nlohmann16json_abi_v3_11_210basic_jsonINS_3mapENS_6vectorES6_bxydS4_NS8_14adl_serializerENSB_IhNS4_IhEEEEE6createIS6_JRA1_KcEEEPT_DpOT0_EUlPS6_E_EC1B8de180100ILb1EvEESP_NS_16__dependent_typeINS_27__unique_ptr_deleter_sfinaeISQ_EEXT_EE15__lval_ref_typeE, symObjAddr: 0x11510, symBinAddr: 0x17BE0, symSize: 0x30 }
  - { offset: 0x13056E, size: 0x8, addend: 0x0, symName: __ZNSt3__116allocator_traitsINS_9allocatorINS_12basic_stringIcNS_11char_traitsIcEENS1_IcEEEEEEE9constructB8de180100IS6_JRA1_KcEvEEvRS7_PT_DpOT0_, symObjAddr: 0x11540, symBinAddr: 0x17C10, symSize: 0x30 }
  - { offset: 0x1305CB, size: 0x8, addend: 0x0, symName: __ZNKSt3__110unique_ptrINS_12basic_stringIcNS_11char_traitsIcEENS_9allocatorIcEEEEZN8nlohmann16json_abi_v3_11_210basic_jsonINS_3mapENS_6vectorES6_bxydS4_NS8_14adl_serializerENSB_IhNS4_IhEEEEE6createIS6_JRA1_KcEEEPT_DpOT0_EUlPS6_E_E3getB8de180100Ev, symObjAddr: 0x11570, symBinAddr: 0x17C40, symSize: 0x20 }
  - { offset: 0x1305F1, size: 0x8, addend: 0x0, symName: __ZNSt3__110unique_ptrINS_12basic_stringIcNS_11char_traitsIcEENS_9allocatorIcEEEEZN8nlohmann16json_abi_v3_11_210basic_jsonINS_3mapENS_6vectorES6_bxydS4_NS8_14adl_serializerENSB_IhNS4_IhEEEEE6createIS6_JRA1_KcEEEPT_DpOT0_EUlPS6_E_E7releaseB8de180100Ev, symObjAddr: 0x115C0, symBinAddr: 0x17C90, symSize: 0x40 }
  - { offset: 0x130627, size: 0x8, addend: 0x0, symName: __ZNSt3__110unique_ptrINS_12basic_stringIcNS_11char_traitsIcEENS_9allocatorIcEEEEZN8nlohmann16json_abi_v3_11_210basic_jsonINS_3mapENS_6vectorES6_bxydS4_NS8_14adl_serializerENSB_IhNS4_IhEEEEE6createIS6_JRA1_KcEEEPT_DpOT0_EUlPS6_E_ED1B8de180100Ev, symObjAddr: 0x11600, symBinAddr: 0x17CD0, symSize: 0x20 }
  - { offset: 0x130651, size: 0x8, addend: 0x0, symName: __ZNSt3__19allocatorINS_12basic_stringIcNS_11char_traitsIcEENS0_IcEEEEE8allocateB8de180100Em, symObjAddr: 0x11620, symBinAddr: 0x17CF0, symSize: 0x50 }
  - { offset: 0x130691, size: 0x8, addend: 0x0, symName: __ZNSt3__116allocator_traitsINS_9allocatorINS_12basic_stringIcNS_11char_traitsIcEENS1_IcEEEEEEE8max_sizeB8de180100IS7_vEEmRKS7_, symObjAddr: 0x11670, symBinAddr: 0x17D40, symSize: 0x20 }
  - { offset: 0x1306C1, size: 0x8, addend: 0x0, symName: __ZNKSt3__19allocatorINS_12basic_stringIcNS_11char_traitsIcEENS0_IcEEEEE8max_sizeB8de180100Ev, symObjAddr: 0x11690, symBinAddr: 0x17D60, symSize: 0x20 }
  - { offset: 0x1306E7, size: 0x8, addend: 0x0, symName: __ZNSt3__110unique_ptrINS_12basic_stringIcNS_11char_traitsIcEENS_9allocatorIcEEEEZN8nlohmann16json_abi_v3_11_210basic_jsonINS_3mapENS_6vectorES6_bxydS4_NS8_14adl_serializerENSB_IhNS4_IhEEEEE6createIS6_JRA1_KcEEEPT_DpOT0_EUlPS6_E_EC2B8de180100ILb1EvEESP_NS_16__dependent_typeINS_27__unique_ptr_deleter_sfinaeISQ_EEXT_EE15__lval_ref_typeE, symObjAddr: 0x116B0, symBinAddr: 0x17D80, symSize: 0x40 }
  - { offset: 0x130742, size: 0x8, addend: 0x0, symName: __ZNSt3__117__compressed_pairIPNS_12basic_stringIcNS_11char_traitsIcEENS_9allocatorIcEEEEZN8nlohmann16json_abi_v3_11_210basic_jsonINS_3mapENS_6vectorES6_bxydS4_NS9_14adl_serializerENSC_IhNS4_IhEEEEE6createIS6_JRA1_KcEEEPT_DpOT0_EUlS7_E_EC1B8de180100IRS7_RKSQ_EEOSL_OT0_, symObjAddr: 0x116F0, symBinAddr: 0x17DC0, symSize: 0x30 }
  - { offset: 0x13079C, size: 0x8, addend: 0x0, symName: __ZNSt3__117__compressed_pairIPNS_12basic_stringIcNS_11char_traitsIcEENS_9allocatorIcEEEEZN8nlohmann16json_abi_v3_11_210basic_jsonINS_3mapENS_6vectorES6_bxydS4_NS9_14adl_serializerENSC_IhNS4_IhEEEEE6createIS6_JRA1_KcEEEPT_DpOT0_EUlS7_E_EC2B8de180100IRS7_RKSQ_EEOSL_OT0_, symObjAddr: 0x11720, symBinAddr: 0x17DF0, symSize: 0x40 }
  - { offset: 0x1307F6, size: 0x8, addend: 0x0, symName: __ZNSt3__122__compressed_pair_elemIPNS_12basic_stringIcNS_11char_traitsIcEENS_9allocatorIcEEEELi0ELb0EEC2B8de180100IRS7_vEEOT_, symObjAddr: 0x11760, symBinAddr: 0x17E30, symSize: 0x20 }
  - { offset: 0x13083A, size: 0x8, addend: 0x0, symName: __ZNSt3__122__compressed_pair_elemIZN8nlohmann16json_abi_v3_11_210basic_jsonINS_3mapENS_6vectorENS_12basic_stringIcNS_11char_traitsIcEENS_9allocatorIcEEEEbxydS9_NS2_14adl_serializerENS5_IhNS9_IhEEEEE6createISB_JRA1_KcEEEPT_DpOT0_EUlPSB_E_Li1ELb0EEC2B8de180100IRKSQ_vEEOSK_, symObjAddr: 0x11780, symBinAddr: 0x17E50, symSize: 0x20 }
  - { offset: 0x13087E, size: 0x8, addend: 0x0, symName: __ZNSt3__19allocatorINS_12basic_stringIcNS_11char_traitsIcEENS0_IcEEEEE9constructB8de180100IS5_JRA1_KcEEEvPT_DpOT0_, symObjAddr: 0x117A0, symBinAddr: 0x17E70, symSize: 0x30 }
  - { offset: 0x1308D8, size: 0x8, addend: 0x0, symName: __ZNKSt3__117__compressed_pairIPNS_12basic_stringIcNS_11char_traitsIcEENS_9allocatorIcEEEEZN8nlohmann16json_abi_v3_11_210basic_jsonINS_3mapENS_6vectorES6_bxydS4_NS9_14adl_serializerENSC_IhNS4_IhEEEEE6createIS6_JRA1_KcEEEPT_DpOT0_EUlS7_E_E5firstB8de180100Ev, symObjAddr: 0x117D0, symBinAddr: 0x17EA0, symSize: 0x20 }
  - { offset: 0x1308FE, size: 0x8, addend: 0x0, symName: __ZNKSt3__122__compressed_pair_elemIPNS_12basic_stringIcNS_11char_traitsIcEENS_9allocatorIcEEEELi0ELb0EE5__getB8de180100Ev, symObjAddr: 0x117F0, symBinAddr: 0x17EC0, symSize: 0x10 }
  - { offset: 0x130924, size: 0x8, addend: 0x0, symName: __ZNKSt3__110unique_ptrINS_12basic_stringIcNS_11char_traitsIcEENS_9allocatorIcEEEEZN8nlohmann16json_abi_v3_11_210basic_jsonINS_3mapENS_6vectorES6_bxydS4_NS8_14adl_serializerENSB_IhNS4_IhEEEEE6createIS6_JRA1_KcEEEPT_DpOT0_EUlPS6_E_EcvbB8de180100Ev, symObjAddr: 0x11800, symBinAddr: 0x17ED0, symSize: 0x30 }
  - { offset: 0x13094A, size: 0x8, addend: 0x0, symName: __ZNSt3__117__compressed_pairIPNS_12basic_stringIcNS_11char_traitsIcEENS_9allocatorIcEEEEZN8nlohmann16json_abi_v3_11_210basic_jsonINS_3mapENS_6vectorES6_bxydS4_NS9_14adl_serializerENSC_IhNS4_IhEEEEE6createIS6_JRA1_KcEEEPT_DpOT0_EUlS7_E_E5firstB8de180100Ev, symObjAddr: 0x11830, symBinAddr: 0x17F00, symSize: 0x20 }
  - { offset: 0x130970, size: 0x8, addend: 0x0, symName: __ZNSt3__122__compressed_pair_elemIPNS_12basic_stringIcNS_11char_traitsIcEENS_9allocatorIcEEEELi0ELb0EE5__getB8de180100Ev, symObjAddr: 0x11850, symBinAddr: 0x17F20, symSize: 0x10 }
  - { offset: 0x130996, size: 0x8, addend: 0x0, symName: __ZNSt3__110unique_ptrINS_12basic_stringIcNS_11char_traitsIcEENS_9allocatorIcEEEEZN8nlohmann16json_abi_v3_11_210basic_jsonINS_3mapENS_6vectorES6_bxydS4_NS8_14adl_serializerENSB_IhNS4_IhEEEEE6createIS6_JRA1_KcEEEPT_DpOT0_EUlPS6_E_ED2B8de180100Ev, symObjAddr: 0x11860, symBinAddr: 0x17F30, symSize: 0x20 }
  - { offset: 0x1309C0, size: 0x8, addend: 0x0, symName: __ZNSt3__110unique_ptrINS_12basic_stringIcNS_11char_traitsIcEENS_9allocatorIcEEEEZN8nlohmann16json_abi_v3_11_210basic_jsonINS_3mapENS_6vectorES6_bxydS4_NS8_14adl_serializerENSB_IhNS4_IhEEEEE6createIS6_JRA1_KcEEEPT_DpOT0_EUlPS6_E_E5resetB8de180100ESP_, symObjAddr: 0x11880, symBinAddr: 0x17F50, symSize: 0x80 }
  - { offset: 0x130A06, size: 0x8, addend: 0x0, symName: __ZNSt3__117__compressed_pairIPNS_12basic_stringIcNS_11char_traitsIcEENS_9allocatorIcEEEEZN8nlohmann16json_abi_v3_11_210basic_jsonINS_3mapENS_6vectorES6_bxydS4_NS9_14adl_serializerENSC_IhNS4_IhEEEEE6createIS6_JRA1_KcEEEPT_DpOT0_EUlS7_E_E6secondB8de180100Ev, symObjAddr: 0x11900, symBinAddr: 0x17FD0, symSize: 0x20 }
  - { offset: 0x130A31, size: 0x8, addend: 0x0, symName: __ZZN8nlohmann16json_abi_v3_11_210basic_jsonINSt3__13mapENS2_6vectorENS2_12basic_stringIcNS2_11char_traitsIcEENS2_9allocatorIcEEEEbxydS8_NS0_14adl_serializerENS4_IhNS8_IhEEEEE6createISA_JRA1_KcEEEPT_DpOT0_ENKUlPSA_E_clESO_, symObjAddr: 0x11920, symBinAddr: 0x17FF0, symSize: 0x30 }
  - { offset: 0x130A6B, size: 0x8, addend: 0x0, symName: __ZNSt3__122__compressed_pair_elemIZN8nlohmann16json_abi_v3_11_210basic_jsonINS_3mapENS_6vectorENS_12basic_stringIcNS_11char_traitsIcEENS_9allocatorIcEEEEbxydS9_NS2_14adl_serializerENS5_IhNS9_IhEEEEE6createISB_JRA1_KcEEEPT_DpOT0_EUlPSB_E_Li1ELb0EE5__getB8de180100Ev, symObjAddr: 0x11950, symBinAddr: 0x18020, symSize: 0x10 }
  - { offset: 0x130A91, size: 0x8, addend: 0x0, symName: __ZNSt3__116allocator_traitsINS_9allocatorIN8nlohmann16json_abi_v3_11_227byte_container_with_subtypeINS_6vectorIhNS1_IhEEEEEEEEE8allocateB8de180100ERS9_m, symObjAddr: 0x11960, symBinAddr: 0x18030, symSize: 0x30 }
  - { offset: 0x130B5C, size: 0x8, addend: 0x0, symName: __ZNSt3__110unique_ptrIN8nlohmann16json_abi_v3_11_227byte_container_with_subtypeINS_6vectorIhNS_9allocatorIhEEEEEEZNS2_10basic_jsonINS_3mapES4_NS_12basic_stringIcNS_11char_traitsIcEENS5_IcEEEEbxydS5_NS2_14adl_serializerES7_E6createIS8_JEEEPT_DpOT0_EUlPS8_E_EC1B8de180100ILb1EvEESO_NS_16__dependent_typeINS_27__unique_ptr_deleter_sfinaeISP_EEXT_EE15__lval_ref_typeE, symObjAddr: 0x11990, symBinAddr: 0x18060, symSize: 0x30 }
  - { offset: 0x130BB1, size: 0x8, addend: 0x0, symName: __ZNSt3__116allocator_traitsINS_9allocatorIN8nlohmann16json_abi_v3_11_227byte_container_with_subtypeINS_6vectorIhNS1_IhEEEEEEEEE9constructB8de180100IS8_JEvEEvRS9_PT_DpOT0_, symObjAddr: 0x119C0, symBinAddr: 0x18090, symSize: 0x30 }
  - { offset: 0x130BF7, size: 0x8, addend: 0x0, symName: __ZNKSt3__110unique_ptrIN8nlohmann16json_abi_v3_11_227byte_container_with_subtypeINS_6vectorIhNS_9allocatorIhEEEEEEZNS2_10basic_jsonINS_3mapES4_NS_12basic_stringIcNS_11char_traitsIcEENS5_IcEEEEbxydS5_NS2_14adl_serializerES7_E6createIS8_JEEEPT_DpOT0_EUlPS8_E_E3getB8de180100Ev, symObjAddr: 0x119F0, symBinAddr: 0x180C0, symSize: 0x20 }
  - { offset: 0x130C1D, size: 0x8, addend: 0x0, symName: __ZNSt3__110unique_ptrIN8nlohmann16json_abi_v3_11_227byte_container_with_subtypeINS_6vectorIhNS_9allocatorIhEEEEEEZNS2_10basic_jsonINS_3mapES4_NS_12basic_stringIcNS_11char_traitsIcEENS5_IcEEEEbxydS5_NS2_14adl_serializerES7_E6createIS8_JEEEPT_DpOT0_EUlPS8_E_E7releaseB8de180100Ev, symObjAddr: 0x11A40, symBinAddr: 0x18110, symSize: 0x40 }
  - { offset: 0x130C53, size: 0x8, addend: 0x0, symName: __ZNSt3__110unique_ptrIN8nlohmann16json_abi_v3_11_227byte_container_with_subtypeINS_6vectorIhNS_9allocatorIhEEEEEEZNS2_10basic_jsonINS_3mapES4_NS_12basic_stringIcNS_11char_traitsIcEENS5_IcEEEEbxydS5_NS2_14adl_serializerES7_E6createIS8_JEEEPT_DpOT0_EUlPS8_E_ED1B8de180100Ev, symObjAddr: 0x11A80, symBinAddr: 0x18150, symSize: 0x20 }
  - { offset: 0x130C7D, size: 0x8, addend: 0x0, symName: __ZNSt3__19allocatorIN8nlohmann16json_abi_v3_11_227byte_container_with_subtypeINS_6vectorIhNS0_IhEEEEEEE8allocateB8de180100Em, symObjAddr: 0x11AA0, symBinAddr: 0x18170, symSize: 0x50 }
  - { offset: 0x130CBD, size: 0x8, addend: 0x0, symName: __ZNSt3__116allocator_traitsINS_9allocatorIN8nlohmann16json_abi_v3_11_227byte_container_with_subtypeINS_6vectorIhNS1_IhEEEEEEEEE8max_sizeB8de180100IS9_vEEmRKS9_, symObjAddr: 0x11AF0, symBinAddr: 0x181C0, symSize: 0x20 }
  - { offset: 0x130CED, size: 0x8, addend: 0x0, symName: __ZNKSt3__19allocatorIN8nlohmann16json_abi_v3_11_227byte_container_with_subtypeINS_6vectorIhNS0_IhEEEEEEE8max_sizeB8de180100Ev, symObjAddr: 0x11B10, symBinAddr: 0x181E0, symSize: 0x20 }
  - { offset: 0x130D13, size: 0x8, addend: 0x0, symName: __ZNSt3__110unique_ptrIN8nlohmann16json_abi_v3_11_227byte_container_with_subtypeINS_6vectorIhNS_9allocatorIhEEEEEEZNS2_10basic_jsonINS_3mapES4_NS_12basic_stringIcNS_11char_traitsIcEENS5_IcEEEEbxydS5_NS2_14adl_serializerES7_E6createIS8_JEEEPT_DpOT0_EUlPS8_E_EC2B8de180100ILb1EvEESO_NS_16__dependent_typeINS_27__unique_ptr_deleter_sfinaeISP_EEXT_EE15__lval_ref_typeE, symObjAddr: 0x11B30, symBinAddr: 0x18200, symSize: 0x40 }
  - { offset: 0x130D68, size: 0x8, addend: 0x0, symName: __ZNSt3__117__compressed_pairIPN8nlohmann16json_abi_v3_11_227byte_container_with_subtypeINS_6vectorIhNS_9allocatorIhEEEEEEZNS2_10basic_jsonINS_3mapES4_NS_12basic_stringIcNS_11char_traitsIcEENS5_IcEEEEbxydS5_NS2_14adl_serializerES7_E6createIS8_JEEEPT_DpOT0_EUlS9_E_EC1B8de180100IRS9_RKSP_EEOSK_OT0_, symObjAddr: 0x11B70, symBinAddr: 0x18240, symSize: 0x30 }
  - { offset: 0x130DC2, size: 0x8, addend: 0x0, symName: __ZNSt3__117__compressed_pairIPN8nlohmann16json_abi_v3_11_227byte_container_with_subtypeINS_6vectorIhNS_9allocatorIhEEEEEEZNS2_10basic_jsonINS_3mapES4_NS_12basic_stringIcNS_11char_traitsIcEENS5_IcEEEEbxydS5_NS2_14adl_serializerES7_E6createIS8_JEEEPT_DpOT0_EUlS9_E_EC2B8de180100IRS9_RKSP_EEOSK_OT0_, symObjAddr: 0x11BA0, symBinAddr: 0x18270, symSize: 0x40 }
  - { offset: 0x130E1C, size: 0x8, addend: 0x0, symName: __ZNSt3__122__compressed_pair_elemIPN8nlohmann16json_abi_v3_11_227byte_container_with_subtypeINS_6vectorIhNS_9allocatorIhEEEEEELi0ELb0EEC2B8de180100IRS9_vEEOT_, symObjAddr: 0x11BE0, symBinAddr: 0x182B0, symSize: 0x20 }
  - { offset: 0x130E60, size: 0x8, addend: 0x0, symName: __ZNSt3__122__compressed_pair_elemIZN8nlohmann16json_abi_v3_11_210basic_jsonINS_3mapENS_6vectorENS_12basic_stringIcNS_11char_traitsIcEENS_9allocatorIcEEEEbxydS9_NS2_14adl_serializerENS5_IhNS9_IhEEEEE6createINS2_27byte_container_with_subtypeISE_EEJEEEPT_DpOT0_EUlPSI_E_Li1ELb0EEC2B8de180100IRKSP_vEEOSJ_, symObjAddr: 0x11C00, symBinAddr: 0x182D0, symSize: 0x20 }
  - { offset: 0x130EA4, size: 0x8, addend: 0x0, symName: __ZNSt3__19allocatorIN8nlohmann16json_abi_v3_11_227byte_container_with_subtypeINS_6vectorIhNS0_IhEEEEEEE9constructB8de180100IS7_JEEEvPT_DpOT0_, symObjAddr: 0x11C20, symBinAddr: 0x182F0, symSize: 0x20 }
  - { offset: 0x130EE8, size: 0x8, addend: 0x0, symName: __ZN8nlohmann16json_abi_v3_11_227byte_container_with_subtypeINSt3__16vectorIhNS2_9allocatorIhEEEEEC1Ev, symObjAddr: 0x11C40, symBinAddr: 0x18310, symSize: 0x20 }
  - { offset: 0x130F12, size: 0x8, addend: 0x0, symName: __ZN8nlohmann16json_abi_v3_11_227byte_container_with_subtypeINSt3__16vectorIhNS2_9allocatorIhEEEEEC2Ev, symObjAddr: 0x11C60, symBinAddr: 0x18330, symSize: 0x30 }
  - { offset: 0x130F3C, size: 0x8, addend: 0x0, symName: __ZNSt3__16vectorIhNS_9allocatorIhEEEC2B8de180100Ev, symObjAddr: 0x11C90, symBinAddr: 0x18360, symSize: 0x50 }
  - { offset: 0x130F66, size: 0x8, addend: 0x0, symName: __ZNSt3__117__compressed_pairIPhNS_9allocatorIhEEEC1B8de180100IDnNS_18__default_init_tagEEEOT_OT0_, symObjAddr: 0x11CE0, symBinAddr: 0x183B0, symSize: 0x30 }
  - { offset: 0x130FC0, size: 0x8, addend: 0x0, symName: __ZNSt3__117__compressed_pairIPhNS_9allocatorIhEEEC2B8de180100IDnNS_18__default_init_tagEEEOT_OT0_, symObjAddr: 0x11D10, symBinAddr: 0x183E0, symSize: 0x40 }
  - { offset: 0x13101A, size: 0x8, addend: 0x0, symName: __ZNSt3__122__compressed_pair_elemIPhLi0ELb0EEC2B8de180100IDnvEEOT_, symObjAddr: 0x11D50, symBinAddr: 0x18420, symSize: 0x20 }
  - { offset: 0x13105E, size: 0x8, addend: 0x0, symName: __ZNSt3__122__compressed_pair_elemINS_9allocatorIhEELi1ELb1EEC2B8de180100ENS_18__default_init_tagE, symObjAddr: 0x11D70, symBinAddr: 0x18440, symSize: 0x20 }
  - { offset: 0x131093, size: 0x8, addend: 0x0, symName: __ZNSt3__19allocatorIhEC2B8de180100Ev, symObjAddr: 0x11D90, symBinAddr: 0x18460, symSize: 0x20 }
  - { offset: 0x1310BD, size: 0x8, addend: 0x0, symName: __ZNSt3__116__non_trivial_ifILb1ENS_9allocatorIhEEEC2B8de180100Ev, symObjAddr: 0x11DB0, symBinAddr: 0x18480, symSize: 0x10 }
  - { offset: 0x1310E7, size: 0x8, addend: 0x0, symName: __ZNKSt3__117__compressed_pairIPN8nlohmann16json_abi_v3_11_227byte_container_with_subtypeINS_6vectorIhNS_9allocatorIhEEEEEEZNS2_10basic_jsonINS_3mapES4_NS_12basic_stringIcNS_11char_traitsIcEENS5_IcEEEEbxydS5_NS2_14adl_serializerES7_E6createIS8_JEEEPT_DpOT0_EUlS9_E_E5firstB8de180100Ev, symObjAddr: 0x11DC0, symBinAddr: 0x18490, symSize: 0x20 }
  - { offset: 0x13110D, size: 0x8, addend: 0x0, symName: __ZNKSt3__122__compressed_pair_elemIPN8nlohmann16json_abi_v3_11_227byte_container_with_subtypeINS_6vectorIhNS_9allocatorIhEEEEEELi0ELb0EE5__getB8de180100Ev, symObjAddr: 0x11DE0, symBinAddr: 0x184B0, symSize: 0x10 }
  - { offset: 0x131133, size: 0x8, addend: 0x0, symName: __ZNKSt3__110unique_ptrIN8nlohmann16json_abi_v3_11_227byte_container_with_subtypeINS_6vectorIhNS_9allocatorIhEEEEEEZNS2_10basic_jsonINS_3mapES4_NS_12basic_stringIcNS_11char_traitsIcEENS5_IcEEEEbxydS5_NS2_14adl_serializerES7_E6createIS8_JEEEPT_DpOT0_EUlPS8_E_EcvbB8de180100Ev, symObjAddr: 0x11DF0, symBinAddr: 0x184C0, symSize: 0x30 }
  - { offset: 0x131159, size: 0x8, addend: 0x0, symName: __ZNSt3__117__compressed_pairIPN8nlohmann16json_abi_v3_11_227byte_container_with_subtypeINS_6vectorIhNS_9allocatorIhEEEEEEZNS2_10basic_jsonINS_3mapES4_NS_12basic_stringIcNS_11char_traitsIcEENS5_IcEEEEbxydS5_NS2_14adl_serializerES7_E6createIS8_JEEEPT_DpOT0_EUlS9_E_E5firstB8de180100Ev, symObjAddr: 0x11E20, symBinAddr: 0x184F0, symSize: 0x20 }
  - { offset: 0x13117F, size: 0x8, addend: 0x0, symName: __ZNSt3__122__compressed_pair_elemIPN8nlohmann16json_abi_v3_11_227byte_container_with_subtypeINS_6vectorIhNS_9allocatorIhEEEEEELi0ELb0EE5__getB8de180100Ev, symObjAddr: 0x11E40, symBinAddr: 0x18510, symSize: 0x10 }
  - { offset: 0x1311A5, size: 0x8, addend: 0x0, symName: __ZNSt3__110unique_ptrIN8nlohmann16json_abi_v3_11_227byte_container_with_subtypeINS_6vectorIhNS_9allocatorIhEEEEEEZNS2_10basic_jsonINS_3mapES4_NS_12basic_stringIcNS_11char_traitsIcEENS5_IcEEEEbxydS5_NS2_14adl_serializerES7_E6createIS8_JEEEPT_DpOT0_EUlPS8_E_ED2B8de180100Ev, symObjAddr: 0x11E50, symBinAddr: 0x18520, symSize: 0x20 }
  - { offset: 0x1311CF, size: 0x8, addend: 0x0, symName: __ZNSt3__110unique_ptrIN8nlohmann16json_abi_v3_11_227byte_container_with_subtypeINS_6vectorIhNS_9allocatorIhEEEEEEZNS2_10basic_jsonINS_3mapES4_NS_12basic_stringIcNS_11char_traitsIcEENS5_IcEEEEbxydS5_NS2_14adl_serializerES7_E6createIS8_JEEEPT_DpOT0_EUlPS8_E_E5resetB8de180100ESO_, symObjAddr: 0x11E70, symBinAddr: 0x18540, symSize: 0x80 }
  - { offset: 0x131215, size: 0x8, addend: 0x0, symName: __ZNSt3__117__compressed_pairIPN8nlohmann16json_abi_v3_11_227byte_container_with_subtypeINS_6vectorIhNS_9allocatorIhEEEEEEZNS2_10basic_jsonINS_3mapES4_NS_12basic_stringIcNS_11char_traitsIcEENS5_IcEEEEbxydS5_NS2_14adl_serializerES7_E6createIS8_JEEEPT_DpOT0_EUlS9_E_E6secondB8de180100Ev, symObjAddr: 0x11EF0, symBinAddr: 0x185C0, symSize: 0x20 }
  - { offset: 0x131240, size: 0x8, addend: 0x0, symName: __ZZN8nlohmann16json_abi_v3_11_210basic_jsonINSt3__13mapENS2_6vectorENS2_12basic_stringIcNS2_11char_traitsIcEENS2_9allocatorIcEEEEbxydS8_NS0_14adl_serializerENS4_IhNS8_IhEEEEE6createINS0_27byte_container_with_subtypeISD_EEJEEEPT_DpOT0_ENKUlPSH_E_clESN_, symObjAddr: 0x11F10, symBinAddr: 0x185E0, symSize: 0x30 }
  - { offset: 0x13127A, size: 0x8, addend: 0x0, symName: __ZNSt3__122__compressed_pair_elemIZN8nlohmann16json_abi_v3_11_210basic_jsonINS_3mapENS_6vectorENS_12basic_stringIcNS_11char_traitsIcEENS_9allocatorIcEEEEbxydS9_NS2_14adl_serializerENS5_IhNS9_IhEEEEE6createINS2_27byte_container_with_subtypeISE_EEJEEEPT_DpOT0_EUlPSI_E_Li1ELb0EE5__getB8de180100Ev, symObjAddr: 0x11F40, symBinAddr: 0x18610, symSize: 0x10 }
  - { offset: 0x1312A0, size: 0x8, addend: 0x0, symName: __ZN8nlohmann16json_abi_v3_11_26detail11other_errorC1EiPKc, symObjAddr: 0x11F50, symBinAddr: 0x18620, symSize: 0x30 }
  - { offset: 0x1312EA, size: 0x8, addend: 0x0, symName: __ZN8nlohmann16json_abi_v3_11_26detail11other_errorC2EiPKc, symObjAddr: 0x11F80, symBinAddr: 0x18650, symSize: 0x40 }
  - { offset: 0x131334, size: 0x8, addend: 0x0, symName: __ZN8nlohmann16json_abi_v3_11_26detail11other_errorD0Ev, symObjAddr: 0x11FC0, symBinAddr: 0x18690, symSize: 0x30 }
  - { offset: 0x131361, size: 0x8, addend: 0x0, symName: __ZN8nlohmann16json_abi_v3_11_26detail11other_errorD2Ev, symObjAddr: 0x11FF0, symBinAddr: 0x186C0, symSize: 0x20 }
  - { offset: 0x13138E, size: 0x8, addend: 0x0, symName: __ZNSt3__18functionIFbiN8nlohmann16json_abi_v3_11_26detail13parse_event_tERNS2_10basic_jsonINS_3mapENS_6vectorENS_12basic_stringIcNS_11char_traitsIcEENS_9allocatorIcEEEEbxydSB_NS2_14adl_serializerENS7_IhNSB_IhEEEEEEEEC1EOSK_, symObjAddr: 0x12010, symBinAddr: 0x186E0, symSize: 0x30 }
  - { offset: 0x1313CA, size: 0x8, addend: 0x0, symName: __ZN8nlohmann16json_abi_v3_11_26detail6parserINS0_10basic_jsonINSt3__13mapENS4_6vectorENS4_12basic_stringIcNS4_11char_traitsIcEENS4_9allocatorIcEEEEbxydSA_NS0_14adl_serializerENS6_IhNSA_IhEEEEEENS1_22iterator_input_adapterINS4_11__wrap_iterIPKcEEEEEC1EOSM_NS4_8functionIFbiNS1_13parse_event_tERSG_EEEbb, symObjAddr: 0x12040, symBinAddr: 0x18710, symSize: 0x50 }
  - { offset: 0x131435, size: 0x8, addend: 0x0, symName: __ZNSt3__18functionIFbiN8nlohmann16json_abi_v3_11_26detail13parse_event_tERNS2_10basic_jsonINS_3mapENS_6vectorENS_12basic_stringIcNS_11char_traitsIcEENS_9allocatorIcEEEEbxydSB_NS2_14adl_serializerENS7_IhNSB_IhEEEEEEEEC2EOSK_, symObjAddr: 0x12090, symBinAddr: 0x18760, symSize: 0x30 }
  - { offset: 0x131471, size: 0x8, addend: 0x0, symName: __ZNSt3__110__function12__value_funcIFbiN8nlohmann16json_abi_v3_11_26detail13parse_event_tERNS3_10basic_jsonINS_3mapENS_6vectorENS_12basic_stringIcNS_11char_traitsIcEENS_9allocatorIcEEEEbxydSC_NS3_14adl_serializerENS8_IhNSC_IhEEEEEEEEC1B8de180100EOSL_, symObjAddr: 0x120C0, symBinAddr: 0x18790, symSize: 0x30 }
  - { offset: 0x1314AB, size: 0x8, addend: 0x0, symName: __ZNSt3__110__function12__value_funcIFbiN8nlohmann16json_abi_v3_11_26detail13parse_event_tERNS3_10basic_jsonINS_3mapENS_6vectorENS_12basic_stringIcNS_11char_traitsIcEENS_9allocatorIcEEEEbxydSC_NS3_14adl_serializerENS8_IhNSC_IhEEEEEEEEC2B8de180100EOSL_, symObjAddr: 0x120F0, symBinAddr: 0x187C0, symSize: 0xC0 }
  - { offset: 0x1314E5, size: 0x8, addend: 0x0, symName: __ZNSt3__110__function12__value_funcIFbiN8nlohmann16json_abi_v3_11_26detail13parse_event_tERNS3_10basic_jsonINS_3mapENS_6vectorENS_12basic_stringIcNS_11char_traitsIcEENS_9allocatorIcEEEEbxydSC_NS3_14adl_serializerENS8_IhNSC_IhEEEEEEEE9__as_baseB8de180100EPv, symObjAddr: 0x121B0, symBinAddr: 0x18880, symSize: 0x10 }
  - { offset: 0x13150A, size: 0x8, addend: 0x0, symName: __ZN8nlohmann16json_abi_v3_11_26detail6parserINS0_10basic_jsonINSt3__13mapENS4_6vectorENS4_12basic_stringIcNS4_11char_traitsIcEENS4_9allocatorIcEEEEbxydSA_NS0_14adl_serializerENS6_IhNSA_IhEEEEEENS1_22iterator_input_adapterINS4_11__wrap_iterIPKcEEEEEC2EOSM_NS4_8functionIFbiNS1_13parse_event_tERSG_EEEbb, symObjAddr: 0x121C0, symBinAddr: 0x18890, symSize: 0xB0 }
  - { offset: 0x131575, size: 0x8, addend: 0x0, symName: __ZN8nlohmann16json_abi_v3_11_26detail5lexerINS0_10basic_jsonINSt3__13mapENS4_6vectorENS4_12basic_stringIcNS4_11char_traitsIcEENS4_9allocatorIcEEEEbxydSA_NS0_14adl_serializerENS6_IhNSA_IhEEEEEENS1_22iterator_input_adapterINS4_11__wrap_iterIPKcEEEEEC1EOSM_b, symObjAddr: 0x12270, symBinAddr: 0x18940, symSize: 0x40 }
  - { offset: 0x1315BF, size: 0x8, addend: 0x0, symName: __ZN8nlohmann16json_abi_v3_11_26detail6parserINS0_10basic_jsonINSt3__13mapENS4_6vectorENS4_12basic_stringIcNS4_11char_traitsIcEENS4_9allocatorIcEEEEbxydSA_NS0_14adl_serializerENS6_IhNSA_IhEEEEEENS1_22iterator_input_adapterINS4_11__wrap_iterIPKcEEEEE9get_tokenEv, symObjAddr: 0x122B0, symBinAddr: 0x18980, symSize: 0x30 }
  - { offset: 0x1315E5, size: 0x8, addend: 0x0, symName: __ZN8nlohmann16json_abi_v3_11_26detail5lexerINS0_10basic_jsonINSt3__13mapENS4_6vectorENS4_12basic_stringIcNS4_11char_traitsIcEENS4_9allocatorIcEEEEbxydSA_NS0_14adl_serializerENS6_IhNSA_IhEEEEEENS1_22iterator_input_adapterINS4_11__wrap_iterIPKcEEEEED1Ev, symObjAddr: 0x122E0, symBinAddr: 0x189B0, symSize: 0x20 }
  - { offset: 0x13160F, size: 0x8, addend: 0x0, symName: __ZN8nlohmann16json_abi_v3_11_26detail5lexerINS0_10basic_jsonINSt3__13mapENS4_6vectorENS4_12basic_stringIcNS4_11char_traitsIcEENS4_9allocatorIcEEEEbxydSA_NS0_14adl_serializerENS6_IhNSA_IhEEEEEENS1_22iterator_input_adapterINS4_11__wrap_iterIPKcEEEEEC2EOSM_b, symObjAddr: 0x12300, symBinAddr: 0x189D0, symSize: 0xC0 }
  - { offset: 0x131659, size: 0x8, addend: 0x0, symName: __ZNSt3__111char_traitsIcE3eofB8de180100Ev, symObjAddr: 0x123C0, symBinAddr: 0x18A90, symSize: 0x10 }
  - { offset: 0x13166D, size: 0x8, addend: 0x0, symName: __ZNSt3__16vectorIcNS_9allocatorIcEEEC1B8de180100Ev, symObjAddr: 0x123D0, symBinAddr: 0x18AA0, symSize: 0x20 }
  - { offset: 0x131697, size: 0x8, addend: 0x0, symName: __ZN8nlohmann16json_abi_v3_11_26detail5lexerINS0_10basic_jsonINSt3__13mapENS4_6vectorENS4_12basic_stringIcNS4_11char_traitsIcEENS4_9allocatorIcEEEEbxydSA_NS0_14adl_serializerENS6_IhNSA_IhEEEEEENS1_22iterator_input_adapterINS4_11__wrap_iterIPKcEEEEE17get_decimal_pointEv, symObjAddr: 0x123F0, symBinAddr: 0x18AC0, symSize: 0xA0 }
  - { offset: 0x1316BC, size: 0x8, addend: 0x0, symName: __ZNSt3__16vectorIcNS_9allocatorIcEEEC2B8de180100Ev, symObjAddr: 0x12490, symBinAddr: 0x18B60, symSize: 0x50 }
  - { offset: 0x1316E6, size: 0x8, addend: 0x0, symName: __ZNSt3__117__compressed_pairIPcNS_9allocatorIcEEEC1B8de180100IDnNS_18__default_init_tagEEEOT_OT0_, symObjAddr: 0x124E0, symBinAddr: 0x18BB0, symSize: 0x30 }
  - { offset: 0x131740, size: 0x8, addend: 0x0, symName: __ZNSt3__117__compressed_pairIPcNS_9allocatorIcEEEC2B8de180100IDnNS_18__default_init_tagEEEOT_OT0_, symObjAddr: 0x12510, symBinAddr: 0x18BE0, symSize: 0x40 }
  - { offset: 0x13179A, size: 0x8, addend: 0x0, symName: __ZNSt3__122__compressed_pair_elemIPcLi0ELb0EEC2B8de180100IDnvEEOT_, symObjAddr: 0x12550, symBinAddr: 0x18C20, symSize: 0x20 }
  - { offset: 0x1317DE, size: 0x8, addend: 0x0, symName: __ZN8nlohmann16json_abi_v3_11_26detail5lexerINS0_10basic_jsonINSt3__13mapENS4_6vectorENS4_12basic_stringIcNS4_11char_traitsIcEENS4_9allocatorIcEEEEbxydSA_NS0_14adl_serializerENS6_IhNSA_IhEEEEEENS1_22iterator_input_adapterINS4_11__wrap_iterIPKcEEEEE4scanEv, symObjAddr: 0x12570, symBinAddr: 0x18C40, symSize: 0x430 }
  - { offset: 0x131861, size: 0x8, addend: 0x0, symName: __ZN8nlohmann16json_abi_v3_11_26detail5lexerINS0_10basic_jsonINSt3__13mapENS4_6vectorENS4_12basic_stringIcNS4_11char_traitsIcEENS4_9allocatorIcEEEEbxydSA_NS0_14adl_serializerENS6_IhNSA_IhEEEEEENS1_22iterator_input_adapterINS4_11__wrap_iterIPKcEEEEE8skip_bomEv, symObjAddr: 0x129A0, symBinAddr: 0x19070, symSize: 0x80 }
  - { offset: 0x131887, size: 0x8, addend: 0x0, symName: __ZN8nlohmann16json_abi_v3_11_26detail5lexerINS0_10basic_jsonINSt3__13mapENS4_6vectorENS4_12basic_stringIcNS4_11char_traitsIcEENS4_9allocatorIcEEEEbxydSA_NS0_14adl_serializerENS6_IhNSA_IhEEEEEENS1_22iterator_input_adapterINS4_11__wrap_iterIPKcEEEEE15skip_whitespaceEv, symObjAddr: 0x12A20, symBinAddr: 0x190F0, symSize: 0x80 }
  - { offset: 0x1318AD, size: 0x8, addend: 0x0, symName: __ZN8nlohmann16json_abi_v3_11_26detail5lexerINS0_10basic_jsonINSt3__13mapENS4_6vectorENS4_12basic_stringIcNS4_11char_traitsIcEENS4_9allocatorIcEEEEbxydSA_NS0_14adl_serializerENS6_IhNSA_IhEEEEEENS1_22iterator_input_adapterINS4_11__wrap_iterIPKcEEEEE12scan_commentEv, symObjAddr: 0x12AA0, symBinAddr: 0x19170, symSize: 0x140 }
  - { offset: 0x1318D3, size: 0x8, addend: 0x0, symName: __ZN8nlohmann16json_abi_v3_11_26detail5lexerINS0_10basic_jsonINSt3__13mapENS4_6vectorENS4_12basic_stringIcNS4_11char_traitsIcEENS4_9allocatorIcEEEEbxydSA_NS0_14adl_serializerENS6_IhNSA_IhEEEEEENS1_22iterator_input_adapterINS4_11__wrap_iterIPKcEEEEE12scan_literalESK_mNS1_10lexer_baseISG_E10token_typeE, symObjAddr: 0x12BE0, symBinAddr: 0x192B0, symSize: 0x100 }
  - { offset: 0x131984, size: 0x8, addend: 0x0, symName: __ZNSt3__15arrayIcLm4EE4dataB8de180100Ev, symObjAddr: 0x12CE0, symBinAddr: 0x193B0, symSize: 0x10 }
  - { offset: 0x1319AA, size: 0x8, addend: 0x0, symName: __ZNKSt3__15arrayIcLm4EE4sizeB8de180100Ev, symObjAddr: 0x12CF0, symBinAddr: 0x193C0, symSize: 0x10 }
  - { offset: 0x131A0C, size: 0x8, addend: 0x0, symName: __ZNSt3__15arrayIcLm5EE4dataB8de180100Ev, symObjAddr: 0x12D00, symBinAddr: 0x193D0, symSize: 0x10 }
  - { offset: 0x131A32, size: 0x8, addend: 0x0, symName: __ZNKSt3__15arrayIcLm5EE4sizeB8de180100Ev, symObjAddr: 0x12D10, symBinAddr: 0x193E0, symSize: 0x10 }
  - { offset: 0x131A58, size: 0x8, addend: 0x0, symName: __ZN8nlohmann16json_abi_v3_11_26detail5lexerINS0_10basic_jsonINSt3__13mapENS4_6vectorENS4_12basic_stringIcNS4_11char_traitsIcEENS4_9allocatorIcEEEEbxydSA_NS0_14adl_serializerENS6_IhNSA_IhEEEEEENS1_22iterator_input_adapterINS4_11__wrap_iterIPKcEEEEE11scan_stringEv, symObjAddr: 0x12D20, symBinAddr: 0x193F0, symSize: 0x12F0 }
  - { offset: 0x131AD0, size: 0x8, addend: 0x0, symName: __ZN8nlohmann16json_abi_v3_11_26detail5lexerINS0_10basic_jsonINSt3__13mapENS4_6vectorENS4_12basic_stringIcNS4_11char_traitsIcEENS4_9allocatorIcEEEEbxydSA_NS0_14adl_serializerENS6_IhNSA_IhEEEEEENS1_22iterator_input_adapterINS4_11__wrap_iterIPKcEEEEE11scan_numberEv, symObjAddr: 0x14010, symBinAddr: 0x1A6E0, symSize: 0x710 }
  - { offset: 0x131BED, size: 0x8, addend: 0x0, symName: __ZN8nlohmann16json_abi_v3_11_26detail5lexerINS0_10basic_jsonINSt3__13mapENS4_6vectorENS4_12basic_stringIcNS4_11char_traitsIcEENS4_9allocatorIcEEEEbxydSA_NS0_14adl_serializerENS6_IhNSA_IhEEEEEENS1_22iterator_input_adapterINS4_11__wrap_iterIPKcEEEEE3getEv, symObjAddr: 0x14720, symBinAddr: 0x1ADF0, symSize: 0xE0 }
  - { offset: 0x131C13, size: 0x8, addend: 0x0, symName: __ZN8nlohmann16json_abi_v3_11_26detail5lexerINS0_10basic_jsonINSt3__13mapENS4_6vectorENS4_12basic_stringIcNS4_11char_traitsIcEENS4_9allocatorIcEEEEbxydSA_NS0_14adl_serializerENS6_IhNSA_IhEEEEEENS1_22iterator_input_adapterINS4_11__wrap_iterIPKcEEEEE5ungetEv, symObjAddr: 0x14800, symBinAddr: 0x1AED0, symSize: 0xF0 }
  - { offset: 0x131C39, size: 0x8, addend: 0x0, symName: __ZN8nlohmann16json_abi_v3_11_26detail22iterator_input_adapterINSt3__111__wrap_iterIPKcEEE13get_characterEv, symObjAddr: 0x148F0, symBinAddr: 0x1AFC0, symSize: 0x70 }
  - { offset: 0x131C7E, size: 0x8, addend: 0x0, symName: __ZNSt3__16vectorIcNS_9allocatorIcEEE9push_backB8de180100EOc, symObjAddr: 0x14960, symBinAddr: 0x1B030, symSize: 0x80 }
  - { offset: 0x131CC6, size: 0x8, addend: 0x0, symName: __ZNSt3__111char_traitsIcE11to_int_typeB8de180100Ec, symObjAddr: 0x14A10, symBinAddr: 0x1B0E0, symSize: 0x10 }
  - { offset: 0x131CEB, size: 0x8, addend: 0x0, symName: __ZNKSt3__111__wrap_iterIPKcEdeB8de180100Ev, symObjAddr: 0x14A20, symBinAddr: 0x1B0F0, symSize: 0x20 }
  - { offset: 0x131D11, size: 0x8, addend: 0x0, symName: __ZNKSt3__111__wrap_iterIPKcE4baseB8de180100Ev, symObjAddr: 0x14AF0, symBinAddr: 0x1B1C0, symSize: 0x20 }
  - { offset: 0x131D37, size: 0x8, addend: 0x0, symName: __ZNSt3__111__wrap_iterIPKcEpLB8de180100El, symObjAddr: 0x14B50, symBinAddr: 0x1B220, symSize: 0x20 }
  - { offset: 0x131D6C, size: 0x8, addend: 0x0, symName: __ZNSt3__16vectorIcNS_9allocatorIcEEE9__end_capB8de180100Ev, symObjAddr: 0x14B70, symBinAddr: 0x1B240, symSize: 0x20 }
  - { offset: 0x131D98, size: 0x8, addend: 0x0, symName: __ZNSt3__16vectorIcNS_9allocatorIcEEE22__construct_one_at_endB8de180100IJcEEEvDpOT_, symObjAddr: 0x14B90, symBinAddr: 0x1B260, symSize: 0x90 }
  - { offset: 0x131DEB, size: 0x8, addend: 0x0, symName: __ZNSt3__16vectorIcNS_9allocatorIcEEE21__push_back_slow_pathIcEEPcOT_, symObjAddr: 0x14C20, symBinAddr: 0x1B2F0, symSize: 0xE0 }
  - { offset: 0x131E4C, size: 0x8, addend: 0x0, symName: __ZNSt3__117__compressed_pairIPcNS_9allocatorIcEEE5firstB8de180100Ev, symObjAddr: 0x14D00, symBinAddr: 0x1B3D0, symSize: 0x20 }
  - { offset: 0x131E72, size: 0x8, addend: 0x0, symName: __ZNSt3__122__compressed_pair_elemIPcLi0ELb0EE5__getB8de180100Ev, symObjAddr: 0x14D20, symBinAddr: 0x1B3F0, symSize: 0x10 }
  - { offset: 0x131EB3, size: 0x8, addend: 0x0, symName: __ZNSt3__16vectorIcNS_9allocatorIcEEE21_ConstructTransactionC1B8de180100ERS3_m, symObjAddr: 0x14D30, symBinAddr: 0x1B400, symSize: 0x30 }
  - { offset: 0x131EFD, size: 0x8, addend: 0x0, symName: __ZNSt3__116allocator_traitsINS_9allocatorIcEEE9constructB8de180100IcJcEvEEvRS2_PT_DpOT0_, symObjAddr: 0x14D60, symBinAddr: 0x1B430, symSize: 0x30 }
  - { offset: 0x131F5A, size: 0x8, addend: 0x0, symName: __ZNSt3__16vectorIcNS_9allocatorIcEEE7__allocB8de180100Ev, symObjAddr: 0x14D90, symBinAddr: 0x1B460, symSize: 0x20 }
  - { offset: 0x131F80, size: 0x8, addend: 0x0, symName: __ZNSt3__16vectorIcNS_9allocatorIcEEE21_ConstructTransactionD1B8de180100Ev, symObjAddr: 0x14DC0, symBinAddr: 0x1B490, symSize: 0x20 }
  - { offset: 0x131FAA, size: 0x8, addend: 0x0, symName: __ZNSt3__16vectorIcNS_9allocatorIcEEE21_ConstructTransactionC2B8de180100ERS3_m, symObjAddr: 0x14DE0, symBinAddr: 0x1B4B0, symSize: 0x40 }
  - { offset: 0x131FF4, size: 0x8, addend: 0x0, symName: __ZNSt3__19allocatorIcE9constructB8de180100IcJcEEEvPT_DpOT0_, symObjAddr: 0x14E20, symBinAddr: 0x1B4F0, symSize: 0x20 }
  - { offset: 0x13204E, size: 0x8, addend: 0x0, symName: __ZNSt3__117__compressed_pairIPcNS_9allocatorIcEEE6secondB8de180100Ev, symObjAddr: 0x14E40, symBinAddr: 0x1B510, symSize: 0x20 }
  - { offset: 0x132074, size: 0x8, addend: 0x0, symName: __ZNSt3__122__compressed_pair_elemINS_9allocatorIcEELi1ELb1EE5__getB8de180100Ev, symObjAddr: 0x14E60, symBinAddr: 0x1B530, symSize: 0x10 }
  - { offset: 0x13209A, size: 0x8, addend: 0x0, symName: __ZNSt3__16vectorIcNS_9allocatorIcEEE21_ConstructTransactionD2B8de180100Ev, symObjAddr: 0x14E70, symBinAddr: 0x1B540, symSize: 0x20 }
  - { offset: 0x1320C4, size: 0x8, addend: 0x0, symName: __ZNKSt3__16vectorIcNS_9allocatorIcEEE11__recommendB8de180100Em, symObjAddr: 0x14E90, symBinAddr: 0x1B560, symSize: 0x90 }
  - { offset: 0x13211C, size: 0x8, addend: 0x0, symName: __ZNKSt3__16vectorIcNS_9allocatorIcEEE4sizeB8de180100Ev, symObjAddr: 0x14F20, symBinAddr: 0x1B5F0, symSize: 0x20 }
  - { offset: 0x132142, size: 0x8, addend: 0x0, symName: __ZNSt3__114__split_bufferIcRNS_9allocatorIcEEEC1EmmS3_, symObjAddr: 0x14F40, symBinAddr: 0x1B610, symSize: 0x40 }
  - { offset: 0x13219B, size: 0x8, addend: 0x0, symName: __ZNSt3__114__split_bufferIcRNS_9allocatorIcEEED1Ev, symObjAddr: 0x150A0, symBinAddr: 0x1B770, symSize: 0x20 }
  - { offset: 0x1321C7, size: 0x8, addend: 0x0, symName: __ZNKSt3__16vectorIcNS_9allocatorIcEEE8max_sizeEv, symObjAddr: 0x150C0, symBinAddr: 0x1B790, symSize: 0x60 }
  - { offset: 0x1321EF, size: 0x8, addend: 0x0, symName: __ZNKSt3__16vectorIcNS_9allocatorIcEEE20__throw_length_errorB8de180100Ev, symObjAddr: 0x15120, symBinAddr: 0x1B7F0, symSize: 0x20 }
  - { offset: 0x132215, size: 0x8, addend: 0x0, symName: __ZNKSt3__16vectorIcNS_9allocatorIcEEE8capacityB8de180100Ev, symObjAddr: 0x15140, symBinAddr: 0x1B810, symSize: 0x30 }
  - { offset: 0x132246, size: 0x8, addend: 0x0, symName: __ZNSt3__116allocator_traitsINS_9allocatorIcEEE8max_sizeB8de180100IS2_vEEmRKS2_, symObjAddr: 0x15170, symBinAddr: 0x1B840, symSize: 0x20 }
  - { offset: 0x132276, size: 0x8, addend: 0x0, symName: __ZNKSt3__16vectorIcNS_9allocatorIcEEE7__allocB8de180100Ev, symObjAddr: 0x15190, symBinAddr: 0x1B860, symSize: 0x20 }
  - { offset: 0x13229C, size: 0x8, addend: 0x0, symName: __ZNKSt3__19allocatorIcE8max_sizeB8de180100Ev, symObjAddr: 0x151B0, symBinAddr: 0x1B880, symSize: 0x20 }
  - { offset: 0x1322C2, size: 0x8, addend: 0x0, symName: __ZNKSt3__117__compressed_pairIPcNS_9allocatorIcEEE6secondB8de180100Ev, symObjAddr: 0x151D0, symBinAddr: 0x1B8A0, symSize: 0x20 }
  - { offset: 0x1322E8, size: 0x8, addend: 0x0, symName: __ZNKSt3__122__compressed_pair_elemINS_9allocatorIcEELi1ELb1EE5__getB8de180100Ev, symObjAddr: 0x151F0, symBinAddr: 0x1B8C0, symSize: 0x10 }
  - { offset: 0x13230E, size: 0x8, addend: 0x0, symName: __ZNKSt3__16vectorIcNS_9allocatorIcEEE9__end_capB8de180100Ev, symObjAddr: 0x15200, symBinAddr: 0x1B8D0, symSize: 0x20 }
  - { offset: 0x132334, size: 0x8, addend: 0x0, symName: __ZNKSt3__117__compressed_pairIPcNS_9allocatorIcEEE5firstB8de180100Ev, symObjAddr: 0x15220, symBinAddr: 0x1B8F0, symSize: 0x20 }
  - { offset: 0x13235A, size: 0x8, addend: 0x0, symName: __ZNKSt3__122__compressed_pair_elemIPcLi0ELb0EE5__getB8de180100Ev, symObjAddr: 0x15240, symBinAddr: 0x1B910, symSize: 0x10 }
  - { offset: 0x132380, size: 0x8, addend: 0x0, symName: __ZNSt3__114__split_bufferIcRNS_9allocatorIcEEEC2EmmS3_, symObjAddr: 0x15250, symBinAddr: 0x1B920, symSize: 0xC0 }
  - { offset: 0x1323F8, size: 0x8, addend: 0x0, symName: __ZNSt3__117__compressed_pairIPcRNS_9allocatorIcEEEC1B8de180100IDnS4_EEOT_OT0_, symObjAddr: 0x15310, symBinAddr: 0x1B9E0, symSize: 0x30 }
  - { offset: 0x132452, size: 0x8, addend: 0x0, symName: __ZNSt3__114__split_bufferIcRNS_9allocatorIcEEE7__allocB8de180100Ev, symObjAddr: 0x15380, symBinAddr: 0x1BA50, symSize: 0x20 }
  - { offset: 0x132478, size: 0x8, addend: 0x0, symName: __ZNSt3__114__split_bufferIcRNS_9allocatorIcEEE9__end_capB8de180100Ev, symObjAddr: 0x153A0, symBinAddr: 0x1BA70, symSize: 0x20 }
  - { offset: 0x13249E, size: 0x8, addend: 0x0, symName: __ZNSt3__117__compressed_pairIPcRNS_9allocatorIcEEEC2B8de180100IDnS4_EEOT_OT0_, symObjAddr: 0x153C0, symBinAddr: 0x1BA90, symSize: 0x40 }
  - { offset: 0x1324F8, size: 0x8, addend: 0x0, symName: __ZNSt3__122__compressed_pair_elemIRNS_9allocatorIcEELi1ELb0EEC2B8de180100IS3_vEEOT_, symObjAddr: 0x15400, symBinAddr: 0x1BAD0, symSize: 0x20 }
  - { offset: 0x13253C, size: 0x8, addend: 0x0, symName: __ZNSt3__19allocatorIcE8allocateB8de180100Em, symObjAddr: 0x15420, symBinAddr: 0x1BAF0, symSize: 0x50 }
  - { offset: 0x132571, size: 0x8, addend: 0x0, symName: __ZNSt3__117__compressed_pairIPcRNS_9allocatorIcEEE6secondB8de180100Ev, symObjAddr: 0x15470, symBinAddr: 0x1BB40, symSize: 0x20 }
  - { offset: 0x132597, size: 0x8, addend: 0x0, symName: __ZNSt3__122__compressed_pair_elemIRNS_9allocatorIcEELi1ELb0EE5__getB8de180100Ev, symObjAddr: 0x15490, symBinAddr: 0x1BB60, symSize: 0x20 }
  - { offset: 0x1325BD, size: 0x8, addend: 0x0, symName: __ZNSt3__117__compressed_pairIPcRNS_9allocatorIcEEE5firstB8de180100Ev, symObjAddr: 0x154B0, symBinAddr: 0x1BB80, symSize: 0x20 }
  - { offset: 0x1325E3, size: 0x8, addend: 0x0, symName: __ZNKSt3__16vectorIcNS_9allocatorIcEEE17__annotate_deleteB8de180100Ev, symObjAddr: 0x154D0, symBinAddr: 0x1BBA0, symSize: 0x10 }
  - { offset: 0x132609, size: 0x8, addend: 0x0, symName: __ZNSt3__116reverse_iteratorIPcEC1B8de180100ES1_, symObjAddr: 0x15550, symBinAddr: 0x1BC20, symSize: 0x30 }
  - { offset: 0x132642, size: 0x8, addend: 0x0, symName: __ZNKSt3__116reverse_iteratorIPcE4baseB8de180100Ev, symObjAddr: 0x15580, symBinAddr: 0x1BC50, symSize: 0x20 }
  - { offset: 0x132668, size: 0x8, addend: 0x0, symName: __ZNKSt3__16vectorIcNS_9allocatorIcEEE14__annotate_newB8de180100Em, symObjAddr: 0x155E0, symBinAddr: 0x1BCB0, symSize: 0x10 }
  - { offset: 0x1326BA, size: 0x8, addend: 0x0, symName: __ZNKSt3__111__move_loopINS_17_ClassicAlgPolicyEEclB8de180100INS_16reverse_iteratorIPcEES6_S6_EENS_4pairIT_T1_EES8_T0_S9_, symObjAddr: 0x15A30, symBinAddr: 0x1C100, symSize: 0xA0 }
  - { offset: 0x132731, size: 0x8, addend: 0x0, symName: __ZNSt3__18_IterOpsINS_17_ClassicAlgPolicyEE11__iter_moveB8de180100IRNS_16reverse_iteratorIPcEELi0EEEDTclsr3stdE4movedeclsr3stdE7declvalIRT_EEEEOS8_, symObjAddr: 0x15C50, symBinAddr: 0x1C320, symSize: 0x20 }
  - { offset: 0x132766, size: 0x8, addend: 0x0, symName: __ZNKSt3__116reverse_iteratorIPcEdeB8de180100Ev, symObjAddr: 0x15C70, symBinAddr: 0x1C340, symSize: 0x30 }
  - { offset: 0x13279B, size: 0x8, addend: 0x0, symName: __ZNSt3__116reverse_iteratorIPcEppB8de180100Ev, symObjAddr: 0x15CA0, symBinAddr: 0x1C370, symSize: 0x20 }
  - { offset: 0x1327C1, size: 0x8, addend: 0x0, symName: __ZNSt3__18_IterOpsINS_17_ClassicAlgPolicyEE25__validate_iter_referenceB8de180100IRNS_16reverse_iteratorIPcEEEEvv, symObjAddr: 0x15CC0, symBinAddr: 0x1C390, symSize: 0x10 }
  - { offset: 0x1327DF, size: 0x8, addend: 0x0, symName: __ZNSt3__118__unwrap_iter_implINS_16reverse_iteratorIPcEELb0EE8__unwrapB8de180100ES3_, symObjAddr: 0x15CD0, symBinAddr: 0x1C3A0, symSize: 0x20 }
  - { offset: 0x13280A, size: 0x8, addend: 0x0, symName: __ZNSt3__14pairINS_16reverse_iteratorIPcEES3_EC1B8de180100IS3_S3_Li0EEEOT_OT0_, symObjAddr: 0x15CF0, symBinAddr: 0x1C3C0, symSize: 0x30 }
  - { offset: 0x13286B, size: 0x8, addend: 0x0, symName: __ZNSt3__14pairINS_16reverse_iteratorIPcEES3_EC2B8de180100IS3_S3_Li0EEEOT_OT0_, symObjAddr: 0x15D20, symBinAddr: 0x1C3F0, symSize: 0x40 }
  - { offset: 0x1328CC, size: 0x8, addend: 0x0, symName: __ZNSt3__118__unwrap_iter_implINS_16reverse_iteratorIPcEELb0EE8__rewrapB8de180100ES3_S3_, symObjAddr: 0x15D60, symBinAddr: 0x1C430, symSize: 0x30 }
  - { offset: 0x1328FD, size: 0x8, addend: 0x0, symName: __ZNSt3__116reverse_iteratorIPcEC2B8de180100ES1_, symObjAddr: 0x15D90, symBinAddr: 0x1C460, symSize: 0x30 }
  - { offset: 0x132936, size: 0x8, addend: 0x0, symName: __ZNSt3__114__split_bufferIcRNS_9allocatorIcEEED2Ev, symObjAddr: 0x15DC0, symBinAddr: 0x1C490, symSize: 0x70 }
  - { offset: 0x132962, size: 0x8, addend: 0x0, symName: __ZNSt3__114__split_bufferIcRNS_9allocatorIcEEE5clearB8de180100Ev, symObjAddr: 0x15E30, symBinAddr: 0x1C500, symSize: 0x20 }
  - { offset: 0x132988, size: 0x8, addend: 0x0, symName: __ZNSt3__116allocator_traitsINS_9allocatorIcEEE10deallocateB8de180100ERS2_Pcm, symObjAddr: 0x15E50, symBinAddr: 0x1C520, symSize: 0x30 }
  - { offset: 0x1329CD, size: 0x8, addend: 0x0, symName: __ZNKSt3__114__split_bufferIcRNS_9allocatorIcEEE8capacityB8de180100Ev, symObjAddr: 0x15E80, symBinAddr: 0x1C550, symSize: 0x30 }
  - { offset: 0x1329F3, size: 0x8, addend: 0x0, symName: __ZNSt3__114__split_bufferIcRNS_9allocatorIcEEE17__destruct_at_endB8de180100EPc, symObjAddr: 0x15EB0, symBinAddr: 0x1C580, symSize: 0x30 }
  - { offset: 0x132A28, size: 0x8, addend: 0x0, symName: __ZNSt3__114__split_bufferIcRNS_9allocatorIcEEE17__destruct_at_endB8de180100EPcNS_17integral_constantIbLb0EEE, symObjAddr: 0x15EE0, symBinAddr: 0x1C5B0, symSize: 0x80 }
  - { offset: 0x132A6A, size: 0x8, addend: 0x0, symName: __ZNSt3__116allocator_traitsINS_9allocatorIcEEE7destroyB8de180100IcvEEvRS2_PT_, symObjAddr: 0x15F60, symBinAddr: 0x1C630, symSize: 0x30 }
  - { offset: 0x132AAA, size: 0x8, addend: 0x0, symName: __ZNSt3__19allocatorIcE7destroyB8de180100EPc, symObjAddr: 0x15F90, symBinAddr: 0x1C660, symSize: 0x10 }
  - { offset: 0x132ADF, size: 0x8, addend: 0x0, symName: __ZNSt3__19allocatorIcE10deallocateB8de180100EPcm, symObjAddr: 0x15FA0, symBinAddr: 0x1C670, symSize: 0x40 }
  - { offset: 0x132B23, size: 0x8, addend: 0x0, symName: __ZNKSt3__114__split_bufferIcRNS_9allocatorIcEEE9__end_capB8de180100Ev, symObjAddr: 0x15FE0, symBinAddr: 0x1C6B0, symSize: 0x20 }
  - { offset: 0x132B49, size: 0x8, addend: 0x0, symName: __ZNKSt3__117__compressed_pairIPcRNS_9allocatorIcEEE5firstB8de180100Ev, symObjAddr: 0x16000, symBinAddr: 0x1C6D0, symSize: 0x20 }
  - { offset: 0x132B6F, size: 0x8, addend: 0x0, symName: __ZNKSt3__16vectorIcNS_9allocatorIcEEE5emptyB8de180100Ev, symObjAddr: 0x16020, symBinAddr: 0x1C6F0, symSize: 0x20 }
  - { offset: 0x132B95, size: 0x8, addend: 0x0, symName: __ZNSt3__16vectorIcNS_9allocatorIcEEE8pop_backEv, symObjAddr: 0x16040, symBinAddr: 0x1C710, symSize: 0x50 }
  - { offset: 0x132BBD, size: 0x8, addend: 0x0, symName: __ZNSt3__16vectorIcNS_9allocatorIcEEE17__destruct_at_endB8de180100EPc, symObjAddr: 0x16090, symBinAddr: 0x1C760, symSize: 0x50 }
  - { offset: 0x132C03, size: 0x8, addend: 0x0, symName: __ZNSt3__16vectorIcNS_9allocatorIcEEE22__base_destruct_at_endB8de180100EPc, symObjAddr: 0x160E0, symBinAddr: 0x1C7B0, symSize: 0x80 }
  - { offset: 0x132C49, size: 0x8, addend: 0x0, symName: __ZNKSt3__16vectorIcNS_9allocatorIcEEE17__annotate_shrinkB8de180100Em, symObjAddr: 0x16160, symBinAddr: 0x1C830, symSize: 0x10 }
  - { offset: 0x132C7F, size: 0x8, addend: 0x0, symName: __ZN8nlohmann16json_abi_v3_11_26detail5lexerINS0_10basic_jsonINSt3__13mapENS4_6vectorENS4_12basic_stringIcNS4_11char_traitsIcEENS4_9allocatorIcEEEEbxydSA_NS0_14adl_serializerENS6_IhNSA_IhEEEEEENS1_22iterator_input_adapterINS4_11__wrap_iterIPKcEEEEE5resetEv, symObjAddr: 0x16170, symBinAddr: 0x1C840, symSize: 0x60 }
  - { offset: 0x132CA5, size: 0x8, addend: 0x0, symName: __ZN8nlohmann16json_abi_v3_11_26detail5lexerINS0_10basic_jsonINSt3__13mapENS4_6vectorENS4_12basic_stringIcNS4_11char_traitsIcEENS4_9allocatorIcEEEEbxydSA_NS0_14adl_serializerENS6_IhNSA_IhEEEEEENS1_22iterator_input_adapterINS4_11__wrap_iterIPKcEEEEE3addEi, symObjAddr: 0x161D0, symBinAddr: 0x1C8A0, symSize: 0x30 }
  - { offset: 0x132CDB, size: 0x8, addend: 0x0, symName: __ZN8nlohmann16json_abi_v3_11_26detail5lexerINS0_10basic_jsonINSt3__13mapENS4_6vectorENS4_12basic_stringIcNS4_11char_traitsIcEENS4_9allocatorIcEEEEbxydSA_NS0_14adl_serializerENS6_IhNSA_IhEEEEEENS1_22iterator_input_adapterINS4_11__wrap_iterIPKcEEEEE13get_codepointEv, symObjAddr: 0x16200, symBinAddr: 0x1C8D0, symSize: 0x260 }
  - { offset: 0x132D7A, size: 0x8, addend: 0x0, symName: __ZN8nlohmann16json_abi_v3_11_26detail5lexerINS0_10basic_jsonINSt3__13mapENS4_6vectorENS4_12basic_stringIcNS4_11char_traitsIcEENS4_9allocatorIcEEEEbxydSA_NS0_14adl_serializerENS6_IhNSA_IhEEEEEENS1_22iterator_input_adapterINS4_11__wrap_iterIPKcEEEEE18next_byte_in_rangeESt16initializer_listIiE, symObjAddr: 0x16460, symBinAddr: 0x1CB30, symSize: 0x180 }
  - { offset: 0x132DCF, size: 0x8, addend: 0x0, symName: __ZNSt3__112basic_stringIcNS_11char_traitsIcEENS_9allocatorIcEEE5clearB8de180100Ev, symObjAddr: 0x165E0, symBinAddr: 0x1CCB0, symSize: 0xA0 }
  - { offset: 0x132E07, size: 0x8, addend: 0x0, symName: __ZNSt3__16vectorIcNS_9allocatorIcEEE5clearB8de180100Ev, symObjAddr: 0x16680, symBinAddr: 0x1CD50, symSize: 0x40 }
  - { offset: 0x132E3D, size: 0x8, addend: 0x0, symName: __ZNSt3__111char_traitsIcE6assignB8de180100ERcRKc, symObjAddr: 0x166C0, symBinAddr: 0x1CD90, symSize: 0x20 }
  - { offset: 0x132E70, size: 0x8, addend: 0x0, symName: __ZNSt3__112basic_stringIcNS_11char_traitsIcEENS_9allocatorIcEEE15__set_long_sizeB8de180100Em, symObjAddr: 0x166E0, symBinAddr: 0x1CDB0, symSize: 0x30 }
  - { offset: 0x132EA6, size: 0x8, addend: 0x0, symName: __ZNSt3__112basic_stringIcNS_11char_traitsIcEENS_9allocatorIcEEE16__set_short_sizeB8de180100Em, symObjAddr: 0x16710, symBinAddr: 0x1CDE0, symSize: 0x70 }
  - { offset: 0x132EDC, size: 0x8, addend: 0x0, symName: __ZNKSt3__112basic_stringIcNS_11char_traitsIcEENS_9allocatorIcEEE17__annotate_shrinkB8de180100Em, symObjAddr: 0x16780, symBinAddr: 0x1CE50, symSize: 0x10 }
  - { offset: 0x132F12, size: 0x8, addend: 0x0, symName: __ZNSt3__16vectorIcNS_9allocatorIcEEE7__clearB8de180100Ev, symObjAddr: 0x16790, symBinAddr: 0x1CE60, symSize: 0x20 }
  - { offset: 0x132F38, size: 0x8, addend: 0x0, symName: __ZNKSt16initializer_listIjE5beginB8de180100Ev, symObjAddr: 0x167B0, symBinAddr: 0x1CE80, symSize: 0x20 }
  - { offset: 0x132F5E, size: 0x8, addend: 0x0, symName: __ZNKSt16initializer_listIjE3endB8de180100Ev, symObjAddr: 0x167D0, symBinAddr: 0x1CEA0, symSize: 0x20 }
  - { offset: 0x132F84, size: 0x8, addend: 0x0, symName: __ZNKSt16initializer_listIiE4sizeB8de180100Ev, symObjAddr: 0x167F0, symBinAddr: 0x1CEC0, symSize: 0x20 }
  - { offset: 0x132FAA, size: 0x8, addend: 0x0, symName: __ZNKSt16initializer_listIiE5beginB8de180100Ev, symObjAddr: 0x16810, symBinAddr: 0x1CEE0, symSize: 0x20 }
  - { offset: 0x132FD0, size: 0x8, addend: 0x0, symName: __ZNKSt16initializer_listIiE3endB8de180100Ev, symObjAddr: 0x16830, symBinAddr: 0x1CF00, symSize: 0x20 }
  - { offset: 0x132FF6, size: 0x8, addend: 0x0, symName: __ZNSt3__112basic_stringIcNS_11char_traitsIcEENS_9allocatorIcEEE4dataB8de180100Ev, symObjAddr: 0x16850, symBinAddr: 0x1CF20, symSize: 0x30 }
  - { offset: 0x13301C, size: 0x8, addend: 0x0, symName: __ZN8nlohmann16json_abi_v3_11_26detail5lexerINS0_10basic_jsonINSt3__13mapENS4_6vectorENS4_12basic_stringIcNS4_11char_traitsIcEENS4_9allocatorIcEEEEbxydSA_NS0_14adl_serializerENS6_IhNSA_IhEEEEEENS1_22iterator_input_adapterINS4_11__wrap_iterIPKcEEEEE6strtofERdSK_PPc, symObjAddr: 0x16880, symBinAddr: 0x1CF50, symSize: 0x50 }
  - { offset: 0x133061, size: 0x8, addend: 0x0, symName: __ZN8nlohmann16json_abi_v3_11_26detail5lexerINS0_10basic_jsonINSt3__13mapENS4_6vectorENS4_12basic_stringIcNS4_11char_traitsIcEENS4_9allocatorIcEEEEbxydSA_NS0_14adl_serializerENS6_IhNSA_IhEEEEEENS1_22iterator_input_adapterINS4_11__wrap_iterIPKcEEEEED2Ev, symObjAddr: 0x168D0, symBinAddr: 0x1CFA0, symSize: 0x30 }
  - { offset: 0x13308B, size: 0x8, addend: 0x0, symName: __ZNSt3__16vectorIcNS_9allocatorIcEEED1B8de180100Ev, symObjAddr: 0x16900, symBinAddr: 0x1CFD0, symSize: 0x20 }
  - { offset: 0x1330B5, size: 0x8, addend: 0x0, symName: __ZNSt3__16vectorIcNS_9allocatorIcEEED2B8de180100Ev, symObjAddr: 0x16920, symBinAddr: 0x1CFF0, symSize: 0x40 }
  - { offset: 0x1330DF, size: 0x8, addend: 0x0, symName: __ZNSt3__16vectorIcNS_9allocatorIcEEE16__destroy_vectorC1B8de180100ERS3_, symObjAddr: 0x16960, symBinAddr: 0x1D030, symSize: 0x30 }
  - { offset: 0x133119, size: 0x8, addend: 0x0, symName: __ZNSt3__16vectorIcNS_9allocatorIcEEE16__destroy_vectorclB8de180100Ev, symObjAddr: 0x16990, symBinAddr: 0x1D060, symSize: 0x80 }
  - { offset: 0x13313F, size: 0x8, addend: 0x0, symName: __ZNSt3__16vectorIcNS_9allocatorIcEEE16__destroy_vectorC2B8de180100ERS3_, symObjAddr: 0x16A10, symBinAddr: 0x1D0E0, symSize: 0x20 }
  - { offset: 0x133179, size: 0x8, addend: 0x0, symName: __ZN8nlohmann16json_abi_v3_11_26detail36container_input_adapter_factory_impl31container_input_adapter_factoryINSt3__112basic_stringIcNS4_11char_traitsIcEENS4_9allocatorIcEEEEvE6createERKSA_, symObjAddr: 0x16A30, symBinAddr: 0x1D100, symSize: 0x50 }
  - { offset: 0x13319E, size: 0x8, addend: 0x0, symName: __ZN8nlohmann16json_abi_v3_11_26detail30iterator_input_adapter_factoryINSt3__111__wrap_iterIPKcEEvE6createES7_S7_, symObjAddr: 0x16B30, symBinAddr: 0x1D200, symSize: 0x40 }
  - { offset: 0x1331D3, size: 0x8, addend: 0x0, symName: __ZN8nlohmann16json_abi_v3_11_26detail22iterator_input_adapterINSt3__111__wrap_iterIPKcEEEC1ES7_S7_, symObjAddr: 0x16B70, symBinAddr: 0x1D240, symSize: 0x30 }
  - { offset: 0x13321D, size: 0x8, addend: 0x0, symName: __ZN8nlohmann16json_abi_v3_11_26detail22iterator_input_adapterINSt3__111__wrap_iterIPKcEEEC2ES7_S7_, symObjAddr: 0x16BA0, symBinAddr: 0x1D270, symSize: 0x30 }
  - { offset: 0x133267, size: 0x8, addend: 0x0, symName: __ZNKSt3__112basic_stringIcNS_11char_traitsIcEENS_9allocatorIcEEE5beginB8de180100Ev, symObjAddr: 0x16BD0, symBinAddr: 0x1D2A0, symSize: 0x50 }
  - { offset: 0x13328D, size: 0x8, addend: 0x0, symName: __ZNKSt3__112basic_stringIcNS_11char_traitsIcEENS_9allocatorIcEEE21__make_const_iteratorB8de180100EPKc, symObjAddr: 0x16C20, symBinAddr: 0x1D2F0, symSize: 0x30 }
  - { offset: 0x1332C3, size: 0x8, addend: 0x0, symName: __ZNSt3__111__wrap_iterIPKcEC1B8de180100ES2_, symObjAddr: 0x16C50, symBinAddr: 0x1D320, symSize: 0x30 }
  - { offset: 0x1332FC, size: 0x8, addend: 0x0, symName: __ZNSt3__111__wrap_iterIPKcEC2B8de180100ES2_, symObjAddr: 0x16C80, symBinAddr: 0x1D350, symSize: 0x20 }
  - { offset: 0x133335, size: 0x8, addend: 0x0, symName: __ZNKSt3__112basic_stringIcNS_11char_traitsIcEENS_9allocatorIcEEE3endB8de180100Ev, symObjAddr: 0x16CA0, symBinAddr: 0x1D370, symSize: 0x50 }
  - { offset: 0x13335B, size: 0x8, addend: 0x0, symName: __ZNSt3__18functionIFbiN8nlohmann16json_abi_v3_11_26detail13parse_event_tERNS2_10basic_jsonINS_3mapENS_6vectorENS_12basic_stringIcNS_11char_traitsIcEENS_9allocatorIcEEEEbxydSB_NS2_14adl_serializerENS7_IhNSB_IhEEEEEEEEC2ERKSK_, symObjAddr: 0x16CF0, symBinAddr: 0x1D3C0, symSize: 0x30 }
  - { offset: 0x133397, size: 0x8, addend: 0x0, symName: __ZNSt3__110__function12__value_funcIFbiN8nlohmann16json_abi_v3_11_26detail13parse_event_tERNS3_10basic_jsonINS_3mapENS_6vectorENS_12basic_stringIcNS_11char_traitsIcEENS_9allocatorIcEEEEbxydSC_NS3_14adl_serializerENS8_IhNSC_IhEEEEEEEEC1B8de180100ERKSL_, symObjAddr: 0x16D20, symBinAddr: 0x1D3F0, symSize: 0x30 }
  - { offset: 0x1333D1, size: 0x8, addend: 0x0, symName: __ZNSt3__110__function12__value_funcIFbiN8nlohmann16json_abi_v3_11_26detail13parse_event_tERNS3_10basic_jsonINS_3mapENS_6vectorENS_12basic_stringIcNS_11char_traitsIcEENS_9allocatorIcEEEEbxydSC_NS3_14adl_serializerENS8_IhNSC_IhEEEEEEEEC2B8de180100ERKSL_, symObjAddr: 0x16D50, symBinAddr: 0x1D420, symSize: 0xA0 }
  - { offset: 0x13340B, size: 0x8, addend: 0x0, symName: __ZNKSt3__18functionIFbiN8nlohmann16json_abi_v3_11_26detail13parse_event_tERNS2_10basic_jsonINS_3mapENS_6vectorENS_12basic_stringIcNS_11char_traitsIcEENS_9allocatorIcEEEEbxydSB_NS2_14adl_serializerENS7_IhNSB_IhEEEEEEEEcvbB8de180100Ev, symObjAddr: 0x16DF0, symBinAddr: 0x1D4C0, symSize: 0x20 }
  - { offset: 0x13346E, size: 0x8, addend: 0x0, symName: __ZN8nlohmann16json_abi_v3_11_26detail28json_sax_dom_callback_parserINS0_10basic_jsonINSt3__13mapENS4_6vectorENS4_12basic_stringIcNS4_11char_traitsIcEENS4_9allocatorIcEEEEbxydSA_NS0_14adl_serializerENS6_IhNSA_IhEEEEEEEC1ERSG_NS4_8functionIFbiNS1_13parse_event_tESI_EEEb, symObjAddr: 0x16E10, symBinAddr: 0x1D4E0, symSize: 0x40 }
  - { offset: 0x1334CE, size: 0x8, addend: 0x0, symName: __ZN8nlohmann16json_abi_v3_11_26detail6parserINS0_10basic_jsonINSt3__13mapENS4_6vectorENS4_12basic_stringIcNS4_11char_traitsIcEENS4_9allocatorIcEEEEbxydSA_NS0_14adl_serializerENS6_IhNSA_IhEEEEEENS1_22iterator_input_adapterINS4_11__wrap_iterIPKcEEEEE18sax_parse_internalINS1_28json_sax_dom_callback_parserISG_EEEEbPT_, symObjAddr: 0x16E50, symBinAddr: 0x1D520, symSize: 0x18E0 }
  - { offset: 0x133563, size: 0x8, addend: 0x0, symName: __ZN8nlohmann16json_abi_v3_11_26detail28json_sax_dom_callback_parserINS0_10basic_jsonINSt3__13mapENS4_6vectorENS4_12basic_stringIcNS4_11char_traitsIcEENS4_9allocatorIcEEEEbxydSA_NS0_14adl_serializerENS6_IhNSA_IhEEEEEEE11parse_errorINS1_11parse_errorEEEbmRKSC_RKT_, symObjAddr: 0x18730, symBinAddr: 0x1EE00, symSize: 0x70 }
  - { offset: 0x1335BA, size: 0x8, addend: 0x0, symName: __ZNK8nlohmann16json_abi_v3_11_26detail5lexerINS0_10basic_jsonINSt3__13mapENS4_6vectorENS4_12basic_stringIcNS4_11char_traitsIcEENS4_9allocatorIcEEEEbxydSA_NS0_14adl_serializerENS6_IhNSA_IhEEEEEENS1_22iterator_input_adapterINS4_11__wrap_iterIPKcEEEEE12get_positionEv, symObjAddr: 0x187A0, symBinAddr: 0x1EE70, symSize: 0x30 }
  - { offset: 0x1335E0, size: 0x8, addend: 0x0, symName: __ZNK8nlohmann16json_abi_v3_11_26detail10position_tcvmEv, symObjAddr: 0x187D0, symBinAddr: 0x1EEA0, symSize: 0x20 }
  - { offset: 0x133606, size: 0x8, addend: 0x0, symName: __ZNK8nlohmann16json_abi_v3_11_26detail5lexerINS0_10basic_jsonINSt3__13mapENS4_6vectorENS4_12basic_stringIcNS4_11char_traitsIcEENS4_9allocatorIcEEEEbxydSA_NS0_14adl_serializerENS6_IhNSA_IhEEEEEENS1_22iterator_input_adapterINS4_11__wrap_iterIPKcEEEEE16get_token_stringEv, symObjAddr: 0x187F0, symBinAddr: 0x1EEC0, symSize: 0x1C0 }
  - { offset: 0x1336A3, size: 0x8, addend: 0x0, symName: __ZN8nlohmann16json_abi_v3_11_26detail11parse_error6createIDnLi0EEES2_iRKNS1_10position_tERKNSt3__112basic_stringIcNS7_11char_traitsIcEENS7_9allocatorIcEEEET_, symObjAddr: 0x189B0, symBinAddr: 0x1F080, symSize: 0x1D0 }
  - { offset: 0x133718, size: 0x8, addend: 0x0, symName: __ZN8nlohmann16json_abi_v3_11_26detail6parserINS0_10basic_jsonINSt3__13mapENS4_6vectorENS4_12basic_stringIcNS4_11char_traitsIcEENS4_9allocatorIcEEEEbxydSA_NS0_14adl_serializerENS6_IhNSA_IhEEEEEENS1_22iterator_input_adapterINS4_11__wrap_iterIPKcEEEEE17exception_messageENS1_10lexer_baseISG_E10token_typeERKSC_, symObjAddr: 0x18B80, symBinAddr: 0x1F250, symSize: 0x2F0 }
  - { offset: 0x13376F, size: 0x8, addend: 0x0, symName: __ZN8nlohmann16json_abi_v3_11_26detail11parse_errorD1Ev, symObjAddr: 0x18E70, symBinAddr: 0x1F540, symSize: 0x20 }
  - { offset: 0x13379C, size: 0x8, addend: 0x0, symName: __ZNK8nlohmann16json_abi_v3_11_26detail28json_sax_dom_callback_parserINS0_10basic_jsonINSt3__13mapENS4_6vectorENS4_12basic_stringIcNS4_11char_traitsIcEENS4_9allocatorIcEEEEbxydSA_NS0_14adl_serializerENS6_IhNSA_IhEEEEEEE10is_erroredEv, symObjAddr: 0x18E90, symBinAddr: 0x1F560, symSize: 0x20 }
  - { offset: 0x1337C2, size: 0x8, addend: 0x0, symName: __ZNK8nlohmann16json_abi_v3_11_210basic_jsonINSt3__13mapENS2_6vectorENS2_12basic_stringIcNS2_11char_traitsIcEENS2_9allocatorIcEEEEbxydS8_NS0_14adl_serializerENS4_IhNS8_IhEEEEE12is_discardedEv, symObjAddr: 0x18EB0, symBinAddr: 0x1F580, symSize: 0x20 }
  - { offset: 0x1337E8, size: 0x8, addend: 0x0, symName: __ZN8nlohmann16json_abi_v3_11_26detail28json_sax_dom_callback_parserINS0_10basic_jsonINSt3__13mapENS4_6vectorENS4_12basic_stringIcNS4_11char_traitsIcEENS4_9allocatorIcEEEEbxydSA_NS0_14adl_serializerENS6_IhNSA_IhEEEEEEED1Ev, symObjAddr: 0x18ED0, symBinAddr: 0x1F5A0, symSize: 0x20 }
  - { offset: 0x13384A, size: 0x8, addend: 0x0, symName: __ZN8nlohmann16json_abi_v3_11_26detail19json_sax_dom_parserINS0_10basic_jsonINSt3__13mapENS4_6vectorENS4_12basic_stringIcNS4_11char_traitsIcEENS4_9allocatorIcEEEEbxydSA_NS0_14adl_serializerENS6_IhNSA_IhEEEEEEEC1ERSG_b, symObjAddr: 0x18EF0, symBinAddr: 0x1F5C0, symSize: 0x40 }
  - { offset: 0x133899, size: 0x8, addend: 0x0, symName: __ZN8nlohmann16json_abi_v3_11_26detail6parserINS0_10basic_jsonINSt3__13mapENS4_6vectorENS4_12basic_stringIcNS4_11char_traitsIcEENS4_9allocatorIcEEEEbxydSA_NS0_14adl_serializerENS6_IhNSA_IhEEEEEENS1_22iterator_input_adapterINS4_11__wrap_iterIPKcEEEEE18sax_parse_internalINS1_19json_sax_dom_parserISG_EEEEbPT_, symObjAddr: 0x18F30, symBinAddr: 0x1F600, symSize: 0x1890 }
  - { offset: 0x133918, size: 0x8, addend: 0x0, symName: __ZN8nlohmann16json_abi_v3_11_26detail19json_sax_dom_parserINS0_10basic_jsonINSt3__13mapENS4_6vectorENS4_12basic_stringIcNS4_11char_traitsIcEENS4_9allocatorIcEEEEbxydSA_NS0_14adl_serializerENS6_IhNSA_IhEEEEEEE11parse_errorINS1_11parse_errorEEEbmRKSC_RKT_, symObjAddr: 0x1A7C0, symBinAddr: 0x20E90, symSize: 0x70 }
  - { offset: 0x13396F, size: 0x8, addend: 0x0, symName: __ZNK8nlohmann16json_abi_v3_11_26detail19json_sax_dom_parserINS0_10basic_jsonINSt3__13mapENS4_6vectorENS4_12basic_stringIcNS4_11char_traitsIcEENS4_9allocatorIcEEEEbxydSA_NS0_14adl_serializerENS6_IhNSA_IhEEEEEEE10is_erroredEv, symObjAddr: 0x1A830, symBinAddr: 0x20F00, symSize: 0x20 }
  - { offset: 0x133995, size: 0x8, addend: 0x0, symName: __ZN8nlohmann16json_abi_v3_11_26detail19json_sax_dom_parserINS0_10basic_jsonINSt3__13mapENS4_6vectorENS4_12basic_stringIcNS4_11char_traitsIcEENS4_9allocatorIcEEEEbxydSA_NS0_14adl_serializerENS6_IhNSA_IhEEEEEEED1Ev, symObjAddr: 0x1A850, symBinAddr: 0x20F20, symSize: 0x20 }
  - { offset: 0x1339BF, size: 0x8, addend: 0x0, symName: __ZNKSt3__110__function12__value_funcIFbiN8nlohmann16json_abi_v3_11_26detail13parse_event_tERNS3_10basic_jsonINS_3mapENS_6vectorENS_12basic_stringIcNS_11char_traitsIcEENS_9allocatorIcEEEEbxydSC_NS3_14adl_serializerENS8_IhNSC_IhEEEEEEEEcvbB8de180100Ev, symObjAddr: 0x1A870, symBinAddr: 0x20F40, symSize: 0x20 }
  - { offset: 0x1339E5, size: 0x8, addend: 0x0, symName: __ZN8nlohmann16json_abi_v3_11_26detail28json_sax_dom_callback_parserINS0_10basic_jsonINSt3__13mapENS4_6vectorENS4_12basic_stringIcNS4_11char_traitsIcEENS4_9allocatorIcEEEEbxydSA_NS0_14adl_serializerENS6_IhNSA_IhEEEEEEEC2ERSG_NS4_8functionIFbiNS1_13parse_event_tESI_EEEb, symObjAddr: 0x1A890, symBinAddr: 0x20F60, symSize: 0x130 }
  - { offset: 0x133A40, size: 0x8, addend: 0x0, symName: __ZNSt3__16vectorIPN8nlohmann16json_abi_v3_11_210basic_jsonINS_3mapES0_NS_12basic_stringIcNS_11char_traitsIcEENS_9allocatorIcEEEEbxydS8_NS2_14adl_serializerENS0_IhNS8_IhEEEEEENS8_ISF_EEEC1B8de180100Ev, symObjAddr: 0x1A9C0, symBinAddr: 0x21090, symSize: 0x20 }
  - { offset: 0x133A6A, size: 0x8, addend: 0x0, symName: __ZNSt3__16vectorIbNS_9allocatorIbEEEC1B8de180100Ev, symObjAddr: 0x1A9E0, symBinAddr: 0x210B0, symSize: 0x20 }
  - { offset: 0x133A96, size: 0x8, addend: 0x0, symName: __ZNSt3__16vectorIbNS_9allocatorIbEEE9push_backERKb, symObjAddr: 0x1AA00, symBinAddr: 0x210D0, symSize: 0xA0 }
  - { offset: 0x133ACE, size: 0x8, addend: 0x0, symName: __ZNSt3__16vectorIbNS_9allocatorIbEEED1B8de180100Ev, symObjAddr: 0x1AAA0, symBinAddr: 0x21170, symSize: 0x20 }
  - { offset: 0x133AF8, size: 0x8, addend: 0x0, symName: __ZNSt3__16vectorIPN8nlohmann16json_abi_v3_11_210basic_jsonINS_3mapES0_NS_12basic_stringIcNS_11char_traitsIcEENS_9allocatorIcEEEEbxydS8_NS2_14adl_serializerENS0_IhNS8_IhEEEEEENS8_ISF_EEED1B8de180100Ev, symObjAddr: 0x1AAC0, symBinAddr: 0x21190, symSize: 0x20 }
  - { offset: 0x133B22, size: 0x8, addend: 0x0, symName: __ZNSt3__16vectorIPN8nlohmann16json_abi_v3_11_210basic_jsonINS_3mapES0_NS_12basic_stringIcNS_11char_traitsIcEENS_9allocatorIcEEEEbxydS8_NS2_14adl_serializerENS0_IhNS8_IhEEEEEENS8_ISF_EEEC2B8de180100Ev, symObjAddr: 0x1AAE0, symBinAddr: 0x211B0, symSize: 0x50 }
  - { offset: 0x133B4C, size: 0x8, addend: 0x0, symName: __ZNSt3__117__compressed_pairIPPN8nlohmann16json_abi_v3_11_210basic_jsonINS_3mapENS_6vectorENS_12basic_stringIcNS_11char_traitsIcEENS_9allocatorIcEEEEbxydS9_NS2_14adl_serializerENS5_IhNS9_IhEEEEEENS9_ISG_EEEC1B8de180100IDnNS_18__default_init_tagEEEOT_OT0_, symObjAddr: 0x1AB30, symBinAddr: 0x21200, symSize: 0x30 }
  - { offset: 0x133BA6, size: 0x8, addend: 0x0, symName: __ZNSt3__117__compressed_pairIPPN8nlohmann16json_abi_v3_11_210basic_jsonINS_3mapENS_6vectorENS_12basic_stringIcNS_11char_traitsIcEENS_9allocatorIcEEEEbxydS9_NS2_14adl_serializerENS5_IhNS9_IhEEEEEENS9_ISG_EEEC2B8de180100IDnNS_18__default_init_tagEEEOT_OT0_, symObjAddr: 0x1AB60, symBinAddr: 0x21230, symSize: 0x40 }
  - { offset: 0x133C00, size: 0x8, addend: 0x0, symName: __ZNSt3__122__compressed_pair_elemIPPN8nlohmann16json_abi_v3_11_210basic_jsonINS_3mapENS_6vectorENS_12basic_stringIcNS_11char_traitsIcEENS_9allocatorIcEEEEbxydS9_NS2_14adl_serializerENS5_IhNS9_IhEEEEEELi0ELb0EEC2B8de180100IDnvEEOT_, symObjAddr: 0x1ABA0, symBinAddr: 0x21270, symSize: 0x20 }
  - { offset: 0x133C44, size: 0x8, addend: 0x0, symName: __ZNSt3__122__compressed_pair_elemINS_9allocatorIPN8nlohmann16json_abi_v3_11_210basic_jsonINS_3mapENS_6vectorENS_12basic_stringIcNS_11char_traitsIcEENS1_IcEEEEbxydS1_NS3_14adl_serializerENS6_IhNS1_IhEEEEEEEELi1ELb1EEC2B8de180100ENS_18__default_init_tagE, symObjAddr: 0x1ABC0, symBinAddr: 0x21290, symSize: 0x20 }
  - { offset: 0x133C79, size: 0x8, addend: 0x0, symName: __ZNSt3__19allocatorIPN8nlohmann16json_abi_v3_11_210basic_jsonINS_3mapENS_6vectorENS_12basic_stringIcNS_11char_traitsIcEENS0_IcEEEEbxydS0_NS2_14adl_serializerENS5_IhNS0_IhEEEEEEEC2B8de180100Ev, symObjAddr: 0x1ABE0, symBinAddr: 0x212B0, symSize: 0x20 }
  - { offset: 0x133CA3, size: 0x8, addend: 0x0, symName: __ZNSt3__116__non_trivial_ifILb1ENS_9allocatorIPN8nlohmann16json_abi_v3_11_210basic_jsonINS_3mapENS_6vectorENS_12basic_stringIcNS_11char_traitsIcEENS1_IcEEEEbxydS1_NS3_14adl_serializerENS6_IhNS1_IhEEEEEEEEEC2B8de180100Ev, symObjAddr: 0x1AC00, symBinAddr: 0x212D0, symSize: 0x10 }
  - { offset: 0x133CCD, size: 0x8, addend: 0x0, symName: __ZNSt3__16vectorIbNS_9allocatorIbEEEC2B8de180100Ev, symObjAddr: 0x1AC10, symBinAddr: 0x212E0, symSize: 0x50 }
  - { offset: 0x133CF9, size: 0x8, addend: 0x0, symName: __ZNSt3__117__compressed_pairImNS_9allocatorImEEEC1B8de180100IiNS_18__default_init_tagEEEOT_OT0_, symObjAddr: 0x1AC60, symBinAddr: 0x21330, symSize: 0x30 }
  - { offset: 0x133D53, size: 0x8, addend: 0x0, symName: __ZNSt3__117__compressed_pairImNS_9allocatorImEEEC2B8de180100IiNS_18__default_init_tagEEEOT_OT0_, symObjAddr: 0x1AC90, symBinAddr: 0x21360, symSize: 0x40 }
  - { offset: 0x133DAD, size: 0x8, addend: 0x0, symName: __ZNSt3__122__compressed_pair_elemINS_9allocatorImEELi1ELb1EEC2B8de180100ENS_18__default_init_tagE, symObjAddr: 0x1ACD0, symBinAddr: 0x213A0, symSize: 0x20 }
  - { offset: 0x133DE2, size: 0x8, addend: 0x0, symName: __ZNSt3__19allocatorImEC2B8de180100Ev, symObjAddr: 0x1ACF0, symBinAddr: 0x213C0, symSize: 0x20 }
  - { offset: 0x133E0C, size: 0x8, addend: 0x0, symName: __ZNSt3__116__non_trivial_ifILb1ENS_9allocatorImEEEC2B8de180100Ev, symObjAddr: 0x1AD10, symBinAddr: 0x213E0, symSize: 0x10 }
  - { offset: 0x133E36, size: 0x8, addend: 0x0, symName: __ZNKSt3__16vectorIbNS_9allocatorIbEEE8capacityB8de180100Ev, symObjAddr: 0x1AD20, symBinAddr: 0x213F0, symSize: 0x30 }
  - { offset: 0x133E5C, size: 0x8, addend: 0x0, symName: __ZNSt3__16vectorIbNS_9allocatorIbEEE7reserveEm, symObjAddr: 0x1AD50, symBinAddr: 0x21420, symSize: 0x130 }
  - { offset: 0x133EAB, size: 0x8, addend: 0x0, symName: __ZNKSt3__16vectorIbNS_9allocatorIbEEE11__recommendB8de180100Em, symObjAddr: 0x1AE80, symBinAddr: 0x21550, symSize: 0xA0 }
  - { offset: 0x133F03, size: 0x8, addend: 0x0, symName: __ZNSt3__16vectorIbNS_9allocatorIbEEE4backB8de180100Ev, symObjAddr: 0x1AF20, symBinAddr: 0x215F0, symSize: 0x40 }
  - { offset: 0x133F29, size: 0x8, addend: 0x0, symName: __ZNSt3__115__bit_referenceINS_6vectorIbNS_9allocatorIbEEEELb1EEaSB8de180100Eb, symObjAddr: 0x1AF60, symBinAddr: 0x21630, symSize: 0x60 }
  - { offset: 0x133F5E, size: 0x8, addend: 0x0, symName: __ZNSt3__16vectorIbNS_9allocatorIbEEE26__internal_cap_to_externalB8de180100Em, symObjAddr: 0x1AFC0, symBinAddr: 0x21690, symSize: 0x20 }
  - { offset: 0x133F83, size: 0x8, addend: 0x0, symName: __ZNKSt3__16vectorIbNS_9allocatorIbEEE5__capB8de180100Ev, symObjAddr: 0x1AFE0, symBinAddr: 0x216B0, symSize: 0x20 }
  - { offset: 0x133FA9, size: 0x8, addend: 0x0, symName: __ZNKSt3__117__compressed_pairImNS_9allocatorImEEE5firstB8de180100Ev, symObjAddr: 0x1B000, symBinAddr: 0x216D0, symSize: 0x20 }
  - { offset: 0x133FCF, size: 0x8, addend: 0x0, symName: __ZNKSt3__16vectorIbNS_9allocatorIbEEE8max_sizeEv, symObjAddr: 0x1B020, symBinAddr: 0x216F0, symSize: 0x70 }
  - { offset: 0x134017, size: 0x8, addend: 0x0, symName: __ZNKSt3__16vectorIbNS_9allocatorIbEEE20__throw_length_errorB8de180100Ev, symObjAddr: 0x1B090, symBinAddr: 0x21760, symSize: 0x20 }
  - { offset: 0x13403D, size: 0x8, addend: 0x0, symName: __ZNKSt3__16vectorIbNS_9allocatorIbEEE13get_allocatorB8de180100Ev, symObjAddr: 0x1B0B0, symBinAddr: 0x21780, symSize: 0x30 }
  - { offset: 0x134063, size: 0x8, addend: 0x0, symName: __ZNSt3__16vectorIbNS_9allocatorIbEEEC1B8de180100ERKS2_, symObjAddr: 0x1B0E0, symBinAddr: 0x217B0, symSize: 0x30 }
  - { offset: 0x13409F, size: 0x8, addend: 0x0, symName: __ZNSt3__16vectorIbNS_9allocatorIbEEE11__vallocateB8de180100Em, symObjAddr: 0x1B110, symBinAddr: 0x217E0, symSize: 0xA0 }
  - { offset: 0x1340E5, size: 0x8, addend: 0x0, symName: __ZNSt3__16vectorIbNS_9allocatorIbEEE18__construct_at_endINS_14__bit_iteratorIS3_Lb0ELm0EEES6_EEvT_T0_m, symObjAddr: 0x1B1B0, symBinAddr: 0x21880, symSize: 0x110 }
  - { offset: 0x134161, size: 0x8, addend: 0x0, symName: __ZNSt3__16vectorIbNS_9allocatorIbEEE5beginB8de180100Ev, symObjAddr: 0x1B2C0, symBinAddr: 0x21990, symSize: 0x30 }
  - { offset: 0x134187, size: 0x8, addend: 0x0, symName: __ZNSt3__16vectorIbNS_9allocatorIbEEE3endB8de180100Ev, symObjAddr: 0x1B2F0, symBinAddr: 0x219C0, symSize: 0x30 }
  - { offset: 0x1341AD, size: 0x8, addend: 0x0, symName: __ZNKSt3__16vectorIbNS_9allocatorIbEEE4sizeB8de180100Ev, symObjAddr: 0x1B320, symBinAddr: 0x219F0, symSize: 0x20 }
  - { offset: 0x1341D3, size: 0x8, addend: 0x0, symName: __ZNSt3__16vectorIbNS_9allocatorIbEEE4swapERS3_, symObjAddr: 0x1B340, symBinAddr: 0x21A10, symSize: 0x80 }
  - { offset: 0x134216, size: 0x8, addend: 0x0, symName: __ZNSt3__116allocator_traitsINS_9allocatorImEEE8max_sizeB8de180100IS2_vEEmRKS2_, symObjAddr: 0x1B3C0, symBinAddr: 0x21A90, symSize: 0x20 }
  - { offset: 0x134246, size: 0x8, addend: 0x0, symName: __ZNKSt3__16vectorIbNS_9allocatorIbEEE7__allocB8de180100Ev, symObjAddr: 0x1B3E0, symBinAddr: 0x21AB0, symSize: 0x20 }
  - { offset: 0x13426C, size: 0x8, addend: 0x0, symName: __ZNSt3__114numeric_limitsImE3maxB8de180100Ev, symObjAddr: 0x1B400, symBinAddr: 0x21AD0, symSize: 0x10 }
  - { offset: 0x134280, size: 0x8, addend: 0x0, symName: __ZNKSt3__19allocatorImE8max_sizeB8de180100Ev, symObjAddr: 0x1B410, symBinAddr: 0x21AE0, symSize: 0x20 }
  - { offset: 0x1342A6, size: 0x8, addend: 0x0, symName: __ZNKSt3__117__compressed_pairImNS_9allocatorImEEE6secondB8de180100Ev, symObjAddr: 0x1B430, symBinAddr: 0x21B00, symSize: 0x20 }
  - { offset: 0x1342CC, size: 0x8, addend: 0x0, symName: __ZNKSt3__122__compressed_pair_elemINS_9allocatorImEELi1ELb1EE5__getB8de180100Ev, symObjAddr: 0x1B450, symBinAddr: 0x21B20, symSize: 0x10 }
  - { offset: 0x1342F2, size: 0x8, addend: 0x0, symName: __ZNSt3__123__libcpp_numeric_limitsImLb1EE3maxB8de180100Ev, symObjAddr: 0x1B460, symBinAddr: 0x21B30, symSize: 0x10 }
  - { offset: 0x134306, size: 0x8, addend: 0x0, symName: __ZNSt3__19allocatorIbEC1B8de180100ImEERKNS0_IT_EE, symObjAddr: 0x1B470, symBinAddr: 0x21B40, symSize: 0x30 }
  - { offset: 0x134344, size: 0x8, addend: 0x0, symName: __ZNSt3__19allocatorIbEC2B8de180100ImEERKNS0_IT_EE, symObjAddr: 0x1B4A0, symBinAddr: 0x21B70, symSize: 0x20 }
  - { offset: 0x134382, size: 0x8, addend: 0x0, symName: __ZNSt3__116__non_trivial_ifILb1ENS_9allocatorIbEEEC2B8de180100Ev, symObjAddr: 0x1B4C0, symBinAddr: 0x21B90, symSize: 0x10 }
  - { offset: 0x1343AC, size: 0x8, addend: 0x0, symName: __ZNSt3__16vectorIbNS_9allocatorIbEEEC2B8de180100ERKS2_, symObjAddr: 0x1B4D0, symBinAddr: 0x21BA0, symSize: 0x70 }
  - { offset: 0x1343EE, size: 0x8, addend: 0x0, symName: __ZNSt3__19allocatorImEC1B8de180100IbEERKNS0_IT_EE, symObjAddr: 0x1B540, symBinAddr: 0x21C10, symSize: 0x30 }
  - { offset: 0x134432, size: 0x8, addend: 0x0, symName: __ZNSt3__117__compressed_pairImNS_9allocatorImEEEC1B8de180100IiS2_EEOT_OT0_, symObjAddr: 0x1B570, symBinAddr: 0x21C40, symSize: 0x30 }
  - { offset: 0x13448C, size: 0x8, addend: 0x0, symName: __ZNSt3__19allocatorImEC2B8de180100IbEERKNS0_IT_EE, symObjAddr: 0x1B5A0, symBinAddr: 0x21C70, symSize: 0x20 }
  - { offset: 0x1344CA, size: 0x8, addend: 0x0, symName: __ZNSt3__117__compressed_pairImNS_9allocatorImEEEC2B8de180100IiS2_EEOT_OT0_, symObjAddr: 0x1B5C0, symBinAddr: 0x21C90, symSize: 0x40 }
  - { offset: 0x134524, size: 0x8, addend: 0x0, symName: __ZNSt3__122__compressed_pair_elemINS_9allocatorImEELi1ELb1EEC2B8de180100IS2_vEEOT_, symObjAddr: 0x1B600, symBinAddr: 0x21CD0, symSize: 0x10 }
  - { offset: 0x134568, size: 0x8, addend: 0x0, symName: __ZNSt3__16vectorIbNS_9allocatorIbEEE7__allocB8de180100Ev, symObjAddr: 0x1B650, symBinAddr: 0x21D20, symSize: 0x20 }
  - { offset: 0x13458E, size: 0x8, addend: 0x0, symName: __ZNSt3__16vectorIbNS_9allocatorIbEEE26__external_cap_to_internalB8de180100Em, symObjAddr: 0x1B670, symBinAddr: 0x21D40, symSize: 0x20 }
  - { offset: 0x1345B3, size: 0x8, addend: 0x0, symName: __ZNSt3__16vectorIbNS_9allocatorIbEEE5__capB8de180100Ev, symObjAddr: 0x1B690, symBinAddr: 0x21D60, symSize: 0x20 }
  - { offset: 0x1345D9, size: 0x8, addend: 0x0, symName: __ZNSt3__19allocatorImE8allocateB8de180100Em, symObjAddr: 0x1B6B0, symBinAddr: 0x21D80, symSize: 0x50 }
  - { offset: 0x13460E, size: 0x8, addend: 0x0, symName: __ZNSt3__117__compressed_pairImNS_9allocatorImEEE6secondB8de180100Ev, symObjAddr: 0x1B700, symBinAddr: 0x21DD0, symSize: 0x20 }
  - { offset: 0x134634, size: 0x8, addend: 0x0, symName: __ZNSt3__122__compressed_pair_elemINS_9allocatorImEELi1ELb1EE5__getB8de180100Ev, symObjAddr: 0x1B720, symBinAddr: 0x21DF0, symSize: 0x10 }
  - { offset: 0x13465A, size: 0x8, addend: 0x0, symName: __ZNSt3__117__compressed_pairImNS_9allocatorImEEE5firstB8de180100Ev, symObjAddr: 0x1B730, symBinAddr: 0x21E00, symSize: 0x20 }
  - { offset: 0x134680, size: 0x8, addend: 0x0, symName: __ZNSt3__114__bit_iteratorINS_6vectorIbNS_9allocatorIbEEEELb0ELm0EEC1B8de180100ERKS5_, symObjAddr: 0x1B7C0, symBinAddr: 0x21E90, symSize: 0x30 }
  - { offset: 0x1346BA, size: 0x8, addend: 0x0, symName: __ZNSt3__16vectorIbNS_9allocatorIbEEE11__make_iterB8de180100Em, symObjAddr: 0x1B7F0, symBinAddr: 0x21EC0, symSize: 0x50 }
  - { offset: 0x134716, size: 0x8, addend: 0x0, symName: __ZNKSt3__111__copy_loopINS_17_ClassicAlgPolicyEEclB8de180100INS_14__bit_iteratorINS_6vectorIbNS_9allocatorIbEEEELb0ELm0EEES9_S9_EENS_4pairIT_T1_EESB_T0_SC_, symObjAddr: 0x1BAB0, symBinAddr: 0x22180, symSize: 0xB0 }
  - { offset: 0x13478A, size: 0x8, addend: 0x0, symName: __ZNKSt3__114__bit_iteratorINS_6vectorIbNS_9allocatorIbEEEELb0ELm0EEdeB8de180100Ev, symObjAddr: 0x1BCE0, symBinAddr: 0x223B0, symSize: 0x40 }
  - { offset: 0x1347B0, size: 0x8, addend: 0x0, symName: __ZNSt3__115__bit_referenceINS_6vectorIbNS_9allocatorIbEEEELb1EEaSB8de180100ERKS5_, symObjAddr: 0x1BD20, symBinAddr: 0x223F0, symSize: 0x40 }
  - { offset: 0x1347E5, size: 0x8, addend: 0x0, symName: __ZNSt3__114__bit_iteratorINS_6vectorIbNS_9allocatorIbEEEELb0ELm0EEppB8de180100Ev, symObjAddr: 0x1BD60, symBinAddr: 0x22430, symSize: 0x50 }
  - { offset: 0x13480B, size: 0x8, addend: 0x0, symName: __ZNSt3__115__bit_referenceINS_6vectorIbNS_9allocatorIbEEEELb1EEC1B8de180100EPmm, symObjAddr: 0x1BE00, symBinAddr: 0x224D0, symSize: 0x30 }
  - { offset: 0x134853, size: 0x8, addend: 0x0, symName: __ZNSt3__115__bit_referenceINS_6vectorIbNS_9allocatorIbEEEELb1EEC2B8de180100EPmm, symObjAddr: 0x1BE30, symBinAddr: 0x22500, symSize: 0x30 }
  - { offset: 0x13489B, size: 0x8, addend: 0x0, symName: __ZNKSt3__115__bit_referenceINS_6vectorIbNS_9allocatorIbEEEELb1EEcvbB8de180100Ev, symObjAddr: 0x1BE60, symBinAddr: 0x22530, symSize: 0x30 }
  - { offset: 0x1348C1, size: 0x8, addend: 0x0, symName: __ZNSt3__118__unwrap_iter_implINS_14__bit_iteratorINS_6vectorIbNS_9allocatorIbEEEELb0ELm0EEELb0EE8__unwrapB8de180100ES6_, symObjAddr: 0x1BE90, symBinAddr: 0x22560, symSize: 0x30 }
  - { offset: 0x1348ED, size: 0x8, addend: 0x0, symName: __ZNSt3__14pairINS_14__bit_iteratorINS_6vectorIbNS_9allocatorIbEEEELb0ELm0EEES6_EC1B8de180100IS6_S6_Li0EEEOT_OT0_, symObjAddr: 0x1BEC0, symBinAddr: 0x22590, symSize: 0x30 }
  - { offset: 0x13494E, size: 0x8, addend: 0x0, symName: __ZNSt3__14pairINS_14__bit_iteratorINS_6vectorIbNS_9allocatorIbEEEELb0ELm0EEES6_EC2B8de180100IS6_S6_Li0EEEOT_OT0_, symObjAddr: 0x1BEF0, symBinAddr: 0x225C0, symSize: 0x40 }
  - { offset: 0x1349AF, size: 0x8, addend: 0x0, symName: __ZNSt3__118__unwrap_iter_implINS_14__bit_iteratorINS_6vectorIbNS_9allocatorIbEEEELb0ELm0EEELb0EE8__rewrapB8de180100ES6_S6_, symObjAddr: 0x1BF30, symBinAddr: 0x22600, symSize: 0x40 }
  - { offset: 0x1349E2, size: 0x8, addend: 0x0, symName: __ZNSt3__114__bit_iteratorINS_6vectorIbNS_9allocatorIbEEEELb0ELm0EEC2B8de180100ERKS5_, symObjAddr: 0x1BF70, symBinAddr: 0x22640, symSize: 0x30 }
  - { offset: 0x134A1C, size: 0x8, addend: 0x0, symName: __ZNSt3__114__bit_iteratorINS_6vectorIbNS_9allocatorIbEEEELb0ELm0EEC1B8de180100EPmj, symObjAddr: 0x1BFA0, symBinAddr: 0x22670, symSize: 0x30 }
  - { offset: 0x134A66, size: 0x8, addend: 0x0, symName: __ZNSt3__114__bit_iteratorINS_6vectorIbNS_9allocatorIbEEEELb0ELm0EEC2B8de180100EPmj, symObjAddr: 0x1BFD0, symBinAddr: 0x226A0, symSize: 0x30 }
  - { offset: 0x134AB0, size: 0x8, addend: 0x0, symName: __ZNSt3__16vectorIbNS_9allocatorIbEEE10__align_itB8de180100Em, symObjAddr: 0x1C090, symBinAddr: 0x22760, symSize: 0x20 }
  - { offset: 0x134AD5, size: 0x8, addend: 0x0, symName: __ZNSt3__16vectorIbNS_9allocatorIbEEE10__make_refB8de180100Em, symObjAddr: 0x1C0B0, symBinAddr: 0x22780, symSize: 0x50 }
  - { offset: 0x134B0B, size: 0x8, addend: 0x0, symName: __ZNSt3__16vectorIbNS_9allocatorIbEEED2B8de180100Ev, symObjAddr: 0x1C100, symBinAddr: 0x227D0, symSize: 0x40 }
  - { offset: 0x134B35, size: 0x8, addend: 0x0, symName: __ZNSt3__16vectorIbNS_9allocatorIbEEE16__destroy_vectorC1B8de180100ERS3_, symObjAddr: 0x1C140, symBinAddr: 0x22810, symSize: 0x30 }
  - { offset: 0x134B6F, size: 0x8, addend: 0x0, symName: __ZNSt3__16vectorIbNS_9allocatorIbEEE16__destroy_vectorclB8de180100Ev, symObjAddr: 0x1C170, symBinAddr: 0x22840, symSize: 0x60 }
  - { offset: 0x134B95, size: 0x8, addend: 0x0, symName: __ZNSt3__16vectorIbNS_9allocatorIbEEE16__destroy_vectorC2B8de180100ERS3_, symObjAddr: 0x1C1D0, symBinAddr: 0x228A0, symSize: 0x20 }
  - { offset: 0x134BCF, size: 0x8, addend: 0x0, symName: __ZNSt3__116allocator_traitsINS_9allocatorImEEE10deallocateB8de180100ERS2_Pmm, symObjAddr: 0x1C1F0, symBinAddr: 0x228C0, symSize: 0x30 }
  - { offset: 0x134C14, size: 0x8, addend: 0x0, symName: __ZNSt3__19allocatorImE10deallocateB8de180100EPmm, symObjAddr: 0x1C220, symBinAddr: 0x228F0, symSize: 0x40 }
  - { offset: 0x134C58, size: 0x8, addend: 0x0, symName: __ZNSt3__16vectorIPN8nlohmann16json_abi_v3_11_210basic_jsonINS_3mapES0_NS_12basic_stringIcNS_11char_traitsIcEENS_9allocatorIcEEEEbxydS8_NS2_14adl_serializerENS0_IhNS8_IhEEEEEENS8_ISF_EEED2B8de180100Ev, symObjAddr: 0x1C260, symBinAddr: 0x22930, symSize: 0x40 }
  - { offset: 0x134C82, size: 0x8, addend: 0x0, symName: __ZNSt3__16vectorIPN8nlohmann16json_abi_v3_11_210basic_jsonINS_3mapES0_NS_12basic_stringIcNS_11char_traitsIcEENS_9allocatorIcEEEEbxydS8_NS2_14adl_serializerENS0_IhNS8_IhEEEEEENS8_ISF_EEE16__destroy_vectorC1B8de180100ERSH_, symObjAddr: 0x1C2A0, symBinAddr: 0x22970, symSize: 0x30 }
  - { offset: 0x134CBC, size: 0x8, addend: 0x0, symName: __ZNSt3__16vectorIPN8nlohmann16json_abi_v3_11_210basic_jsonINS_3mapES0_NS_12basic_stringIcNS_11char_traitsIcEENS_9allocatorIcEEEEbxydS8_NS2_14adl_serializerENS0_IhNS8_IhEEEEEENS8_ISF_EEE16__destroy_vectorclB8de180100Ev, symObjAddr: 0x1C2D0, symBinAddr: 0x229A0, symSize: 0x80 }
  - { offset: 0x134CE2, size: 0x8, addend: 0x0, symName: __ZNSt3__16vectorIPN8nlohmann16json_abi_v3_11_210basic_jsonINS_3mapES0_NS_12basic_stringIcNS_11char_traitsIcEENS_9allocatorIcEEEEbxydS8_NS2_14adl_serializerENS0_IhNS8_IhEEEEEENS8_ISF_EEE16__destroy_vectorC2B8de180100ERSH_, symObjAddr: 0x1C350, symBinAddr: 0x22A20, symSize: 0x20 }
  - { offset: 0x134D1C, size: 0x8, addend: 0x0, symName: __ZNSt3__16vectorIPN8nlohmann16json_abi_v3_11_210basic_jsonINS_3mapES0_NS_12basic_stringIcNS_11char_traitsIcEENS_9allocatorIcEEEEbxydS8_NS2_14adl_serializerENS0_IhNS8_IhEEEEEENS8_ISF_EEE7__clearB8de180100Ev, symObjAddr: 0x1C370, symBinAddr: 0x22A40, symSize: 0x20 }
  - { offset: 0x134D42, size: 0x8, addend: 0x0, symName: __ZNKSt3__16vectorIPN8nlohmann16json_abi_v3_11_210basic_jsonINS_3mapES0_NS_12basic_stringIcNS_11char_traitsIcEENS_9allocatorIcEEEEbxydS8_NS2_14adl_serializerENS0_IhNS8_IhEEEEEENS8_ISF_EEE17__annotate_deleteB8de180100Ev, symObjAddr: 0x1C390, symBinAddr: 0x22A60, symSize: 0x10 }
  - { offset: 0x134D68, size: 0x8, addend: 0x0, symName: __ZNSt3__116allocator_traitsINS_9allocatorIPN8nlohmann16json_abi_v3_11_210basic_jsonINS_3mapENS_6vectorENS_12basic_stringIcNS_11char_traitsIcEENS1_IcEEEEbxydS1_NS3_14adl_serializerENS6_IhNS1_IhEEEEEEEEE10deallocateB8de180100ERSH_PSG_m, symObjAddr: 0x1C3A0, symBinAddr: 0x22A70, symSize: 0x30 }
  - { offset: 0x134DAD, size: 0x8, addend: 0x0, symName: __ZNSt3__16vectorIPN8nlohmann16json_abi_v3_11_210basic_jsonINS_3mapES0_NS_12basic_stringIcNS_11char_traitsIcEENS_9allocatorIcEEEEbxydS8_NS2_14adl_serializerENS0_IhNS8_IhEEEEEENS8_ISF_EEE7__allocB8de180100Ev, symObjAddr: 0x1C3D0, symBinAddr: 0x22AA0, symSize: 0x20 }
  - { offset: 0x134DD3, size: 0x8, addend: 0x0, symName: __ZNKSt3__16vectorIPN8nlohmann16json_abi_v3_11_210basic_jsonINS_3mapES0_NS_12basic_stringIcNS_11char_traitsIcEENS_9allocatorIcEEEEbxydS8_NS2_14adl_serializerENS0_IhNS8_IhEEEEEENS8_ISF_EEE8capacityB8de180100Ev, symObjAddr: 0x1C3F0, symBinAddr: 0x22AC0, symSize: 0x30 }
  - { offset: 0x134DF9, size: 0x8, addend: 0x0, symName: __ZNSt3__16vectorIPN8nlohmann16json_abi_v3_11_210basic_jsonINS_3mapES0_NS_12basic_stringIcNS_11char_traitsIcEENS_9allocatorIcEEEEbxydS8_NS2_14adl_serializerENS0_IhNS8_IhEEEEEENS8_ISF_EEE22__base_destruct_at_endB8de180100EPSF_, symObjAddr: 0x1C420, symBinAddr: 0x22AF0, symSize: 0x80 }
  - { offset: 0x134E3F, size: 0x8, addend: 0x0, symName: __ZNSt3__116allocator_traitsINS_9allocatorIPN8nlohmann16json_abi_v3_11_210basic_jsonINS_3mapENS_6vectorENS_12basic_stringIcNS_11char_traitsIcEENS1_IcEEEEbxydS1_NS3_14adl_serializerENS6_IhNS1_IhEEEEEEEEE7destroyB8de180100ISG_vEEvRSH_PT_, symObjAddr: 0x1C4A0, symBinAddr: 0x22B70, symSize: 0x30 }
  - { offset: 0x134E7F, size: 0x8, addend: 0x0, symName: __ZNSt3__19allocatorIPN8nlohmann16json_abi_v3_11_210basic_jsonINS_3mapENS_6vectorENS_12basic_stringIcNS_11char_traitsIcEENS0_IcEEEEbxydS0_NS2_14adl_serializerENS5_IhNS0_IhEEEEEEE7destroyB8de180100EPSF_, symObjAddr: 0x1C4E0, symBinAddr: 0x22BB0, symSize: 0x10 }
  - { offset: 0x134EB4, size: 0x8, addend: 0x0, symName: __ZNSt3__19allocatorIPN8nlohmann16json_abi_v3_11_210basic_jsonINS_3mapENS_6vectorENS_12basic_stringIcNS_11char_traitsIcEENS0_IcEEEEbxydS0_NS2_14adl_serializerENS5_IhNS0_IhEEEEEEE10deallocateB8de180100EPSF_m, symObjAddr: 0x1C4F0, symBinAddr: 0x22BC0, symSize: 0x40 }
  - { offset: 0x134EF8, size: 0x8, addend: 0x0, symName: __ZNSt3__117__compressed_pairIPPN8nlohmann16json_abi_v3_11_210basic_jsonINS_3mapENS_6vectorENS_12basic_stringIcNS_11char_traitsIcEENS_9allocatorIcEEEEbxydS9_NS2_14adl_serializerENS5_IhNS9_IhEEEEEENS9_ISG_EEE6secondB8de180100Ev, symObjAddr: 0x1C530, symBinAddr: 0x22C00, symSize: 0x20 }
  - { offset: 0x134F1E, size: 0x8, addend: 0x0, symName: __ZNSt3__122__compressed_pair_elemINS_9allocatorIPN8nlohmann16json_abi_v3_11_210basic_jsonINS_3mapENS_6vectorENS_12basic_stringIcNS_11char_traitsIcEENS1_IcEEEEbxydS1_NS3_14adl_serializerENS6_IhNS1_IhEEEEEEEELi1ELb1EE5__getB8de180100Ev, symObjAddr: 0x1C550, symBinAddr: 0x22C20, symSize: 0x10 }
  - { offset: 0x134F44, size: 0x8, addend: 0x0, symName: __ZNKSt3__16vectorIPN8nlohmann16json_abi_v3_11_210basic_jsonINS_3mapES0_NS_12basic_stringIcNS_11char_traitsIcEENS_9allocatorIcEEEEbxydS8_NS2_14adl_serializerENS0_IhNS8_IhEEEEEENS8_ISF_EEE9__end_capB8de180100Ev, symObjAddr: 0x1C560, symBinAddr: 0x22C30, symSize: 0x20 }
  - { offset: 0x134F6A, size: 0x8, addend: 0x0, symName: __ZNKSt3__117__compressed_pairIPPN8nlohmann16json_abi_v3_11_210basic_jsonINS_3mapENS_6vectorENS_12basic_stringIcNS_11char_traitsIcEENS_9allocatorIcEEEEbxydS9_NS2_14adl_serializerENS5_IhNS9_IhEEEEEENS9_ISG_EEE5firstB8de180100Ev, symObjAddr: 0x1C580, symBinAddr: 0x22C50, symSize: 0x20 }
  - { offset: 0x134F90, size: 0x8, addend: 0x0, symName: __ZNKSt3__122__compressed_pair_elemIPPN8nlohmann16json_abi_v3_11_210basic_jsonINS_3mapENS_6vectorENS_12basic_stringIcNS_11char_traitsIcEENS_9allocatorIcEEEEbxydS9_NS2_14adl_serializerENS5_IhNS9_IhEEEEEELi0ELb0EE5__getB8de180100Ev, symObjAddr: 0x1C5A0, symBinAddr: 0x22C70, symSize: 0x10 }
  - { offset: 0x134FB6, size: 0x8, addend: 0x0, symName: __ZN8nlohmann16json_abi_v3_11_26detail28json_sax_dom_callback_parserINS0_10basic_jsonINSt3__13mapENS4_6vectorENS4_12basic_stringIcNS4_11char_traitsIcEENS4_9allocatorIcEEEEbxydSA_NS0_14adl_serializerENS6_IhNSA_IhEEEEEEE12start_objectEm, symObjAddr: 0x1C5B0, symBinAddr: 0x22C80, symSize: 0x210 }
  - { offset: 0x13500C, size: 0x8, addend: 0x0, symName: __ZN8nlohmann16json_abi_v3_11_26detail28json_sax_dom_callback_parserINS0_10basic_jsonINSt3__13mapENS4_6vectorENS4_12basic_stringIcNS4_11char_traitsIcEENS4_9allocatorIcEEEEbxydSA_NS0_14adl_serializerENS6_IhNSA_IhEEEEEEE10end_objectEv, symObjAddr: 0x1C7C0, symBinAddr: 0x22E90, symSize: 0x2C0 }
  - { offset: 0x135051, size: 0x8, addend: 0x0, symName: __ZN8nlohmann16json_abi_v3_11_26detail28json_sax_dom_callback_parserINS0_10basic_jsonINSt3__13mapENS4_6vectorENS4_12basic_stringIcNS4_11char_traitsIcEENS4_9allocatorIcEEEEbxydSA_NS0_14adl_serializerENS6_IhNSA_IhEEEEEEE3keyERSC_, symObjAddr: 0x1CA80, symBinAddr: 0x23150, symSize: 0x160 }
  - { offset: 0x1350A7, size: 0x8, addend: 0x0, symName: __ZN8nlohmann16json_abi_v3_11_26detail5lexerINS0_10basic_jsonINSt3__13mapENS4_6vectorENS4_12basic_stringIcNS4_11char_traitsIcEENS4_9allocatorIcEEEEbxydSA_NS0_14adl_serializerENS6_IhNSA_IhEEEEEENS1_22iterator_input_adapterINS4_11__wrap_iterIPKcEEEEE10get_stringEv, symObjAddr: 0x1CBE0, symBinAddr: 0x232B0, symSize: 0x20 }
  - { offset: 0x1350CD, size: 0x8, addend: 0x0, symName: __ZN8nlohmann16json_abi_v3_11_26detail28json_sax_dom_callback_parserINS0_10basic_jsonINSt3__13mapENS4_6vectorENS4_12basic_stringIcNS4_11char_traitsIcEENS4_9allocatorIcEEEEbxydSA_NS0_14adl_serializerENS6_IhNSA_IhEEEEEEE11start_arrayEm, symObjAddr: 0x1CC00, symBinAddr: 0x232D0, symSize: 0x220 }
  - { offset: 0x135123, size: 0x8, addend: 0x0, symName: __ZN8nlohmann16json_abi_v3_11_26detail28json_sax_dom_callback_parserINS0_10basic_jsonINSt3__13mapENS4_6vectorENS4_12basic_stringIcNS4_11char_traitsIcEENS4_9allocatorIcEEEEbxydSA_NS0_14adl_serializerENS6_IhNSA_IhEEEEEEE9end_arrayEv, symObjAddr: 0x1CE20, symBinAddr: 0x234F0, symSize: 0x1E0 }
  - { offset: 0x135159, size: 0x8, addend: 0x0, symName: __ZNK8nlohmann16json_abi_v3_11_26detail5lexerINS0_10basic_jsonINSt3__13mapENS4_6vectorENS4_12basic_stringIcNS4_11char_traitsIcEENS4_9allocatorIcEEEEbxydSA_NS0_14adl_serializerENS6_IhNSA_IhEEEEEENS1_22iterator_input_adapterINS4_11__wrap_iterIPKcEEEEE16get_number_floatEv, symObjAddr: 0x1D000, symBinAddr: 0x236D0, symSize: 0x20 }
  - { offset: 0x13518F, size: 0x8, addend: 0x0, symName: __ZN8nlohmann16json_abi_v3_11_26detail28json_sax_dom_callback_parserINS0_10basic_jsonINSt3__13mapENS4_6vectorENS4_12basic_stringIcNS4_11char_traitsIcEENS4_9allocatorIcEEEEbxydSA_NS0_14adl_serializerENS6_IhNSA_IhEEEEEEE11parse_errorINS1_12out_of_rangeEEEbmRKSC_RKT_, symObjAddr: 0x1D020, symBinAddr: 0x236F0, symSize: 0x70 }
  - { offset: 0x1351E6, size: 0x8, addend: 0x0, symName: __ZN8nlohmann16json_abi_v3_11_26detail12out_of_range6createIDnLi0EEES2_iRKNSt3__112basic_stringIcNS4_11char_traitsIcEENS4_9allocatorIcEEEET_, symObjAddr: 0x1D090, symBinAddr: 0x23760, symSize: 0x160 }
  - { offset: 0x13524B, size: 0x8, addend: 0x0, symName: __ZN8nlohmann16json_abi_v3_11_26detail12out_of_rangeD1Ev, symObjAddr: 0x1D2B0, symBinAddr: 0x23980, symSize: 0x20 }
  - { offset: 0x135278, size: 0x8, addend: 0x0, symName: __ZN8nlohmann16json_abi_v3_11_26detail28json_sax_dom_callback_parserINS0_10basic_jsonINSt3__13mapENS4_6vectorENS4_12basic_stringIcNS4_11char_traitsIcEENS4_9allocatorIcEEEEbxydSA_NS0_14adl_serializerENS6_IhNSA_IhEEEEEEE12number_floatEdRKSC_, symObjAddr: 0x1D2D0, symBinAddr: 0x239A0, symSize: 0x40 }
  - { offset: 0x1352BA, size: 0x8, addend: 0x0, symName: __ZN8nlohmann16json_abi_v3_11_26detail28json_sax_dom_callback_parserINS0_10basic_jsonINSt3__13mapENS4_6vectorENS4_12basic_stringIcNS4_11char_traitsIcEENS4_9allocatorIcEEEEbxydSA_NS0_14adl_serializerENS6_IhNSA_IhEEEEEEE7booleanEb, symObjAddr: 0x1D310, symBinAddr: 0x239E0, symSize: 0x40 }
  - { offset: 0x1352F0, size: 0x8, addend: 0x0, symName: __ZN8nlohmann16json_abi_v3_11_26detail28json_sax_dom_callback_parserINS0_10basic_jsonINSt3__13mapENS4_6vectorENS4_12basic_stringIcNS4_11char_traitsIcEENS4_9allocatorIcEEEEbxydSA_NS0_14adl_serializerENS6_IhNSA_IhEEEEEEE4nullEv, symObjAddr: 0x1D350, symBinAddr: 0x23A20, symSize: 0x40 }
  - { offset: 0x135316, size: 0x8, addend: 0x0, symName: __ZN8nlohmann16json_abi_v3_11_26detail28json_sax_dom_callback_parserINS0_10basic_jsonINSt3__13mapENS4_6vectorENS4_12basic_stringIcNS4_11char_traitsIcEENS4_9allocatorIcEEEEbxydSA_NS0_14adl_serializerENS6_IhNSA_IhEEEEEEE14number_integerEx, symObjAddr: 0x1D390, symBinAddr: 0x23A60, symSize: 0x40 }
  - { offset: 0x13534C, size: 0x8, addend: 0x0, symName: __ZNK8nlohmann16json_abi_v3_11_26detail5lexerINS0_10basic_jsonINSt3__13mapENS4_6vectorENS4_12basic_stringIcNS4_11char_traitsIcEENS4_9allocatorIcEEEEbxydSA_NS0_14adl_serializerENS6_IhNSA_IhEEEEEENS1_22iterator_input_adapterINS4_11__wrap_iterIPKcEEEEE18get_number_integerEv, symObjAddr: 0x1D3D0, symBinAddr: 0x23AA0, symSize: 0x20 }
  - { offset: 0x135372, size: 0x8, addend: 0x0, symName: __ZN8nlohmann16json_abi_v3_11_26detail28json_sax_dom_callback_parserINS0_10basic_jsonINSt3__13mapENS4_6vectorENS4_12basic_stringIcNS4_11char_traitsIcEENS4_9allocatorIcEEEEbxydSA_NS0_14adl_serializerENS6_IhNSA_IhEEEEEEE6stringERSC_, symObjAddr: 0x1D3F0, symBinAddr: 0x23AC0, symSize: 0x40 }
  - { offset: 0x1353A8, size: 0x8, addend: 0x0, symName: __ZN8nlohmann16json_abi_v3_11_26detail28json_sax_dom_callback_parserINS0_10basic_jsonINSt3__13mapENS4_6vectorENS4_12basic_stringIcNS4_11char_traitsIcEENS4_9allocatorIcEEEEbxydSA_NS0_14adl_serializerENS6_IhNSA_IhEEEEEEE15number_unsignedEy, symObjAddr: 0x1D430, symBinAddr: 0x23B00, symSize: 0x40 }
  - { offset: 0x1353DE, size: 0x8, addend: 0x0, symName: __ZNK8nlohmann16json_abi_v3_11_26detail5lexerINS0_10basic_jsonINSt3__13mapENS4_6vectorENS4_12basic_stringIcNS4_11char_traitsIcEENS4_9allocatorIcEEEEbxydSA_NS0_14adl_serializerENS6_IhNSA_IhEEEEEENS1_22iterator_input_adapterINS4_11__wrap_iterIPKcEEEEE19get_number_unsignedEv, symObjAddr: 0x1D470, symBinAddr: 0x23B40, symSize: 0x20 }
  - { offset: 0x135404, size: 0x8, addend: 0x0, symName: __ZNKSt3__16vectorIbNS_9allocatorIbEEE5emptyB8de180100Ev, symObjAddr: 0x1D490, symBinAddr: 0x23B60, symSize: 0x20 }
  - { offset: 0x13542A, size: 0x8, addend: 0x0, symName: __ZNSt3__16vectorIbNS_9allocatorIbEEE8pop_backB8de180100Ev, symObjAddr: 0x1D4B0, symBinAddr: 0x23B80, symSize: 0x20 }
  - { offset: 0x135450, size: 0x8, addend: 0x0, symName: __ZNKSt3__18functionIFbiN8nlohmann16json_abi_v3_11_26detail13parse_event_tERNS2_10basic_jsonINS_3mapENS_6vectorENS_12basic_stringIcNS_11char_traitsIcEENS_9allocatorIcEEEEbxydSB_NS2_14adl_serializerENS7_IhNSB_IhEEEEEEEEclEiS4_SI_, symObjAddr: 0x1D4D0, symBinAddr: 0x23BA0, symSize: 0x40 }
  - { offset: 0x1354A8, size: 0x8, addend: 0x0, symName: __ZNKSt3__16vectorIPN8nlohmann16json_abi_v3_11_210basic_jsonINS_3mapES0_NS_12basic_stringIcNS_11char_traitsIcEENS_9allocatorIcEEEEbxydS8_NS2_14adl_serializerENS0_IhNS8_IhEEEEEENS8_ISF_EEE4sizeB8de180100Ev, symObjAddr: 0x1D510, symBinAddr: 0x23BE0, symSize: 0x20 }
  - { offset: 0x1354F0, size: 0x8, addend: 0x0, symName: __ZN8nlohmann16json_abi_v3_11_26detail28json_sax_dom_callback_parserINS0_10basic_jsonINSt3__13mapENS4_6vectorENS4_12basic_stringIcNS4_11char_traitsIcEENS4_9allocatorIcEEEEbxydSA_NS0_14adl_serializerENS6_IhNSA_IhEEEEEEE12handle_valueINS1_7value_tEEENS4_4pairIbPSG_EEOT_b, symObjAddr: 0x1D530, symBinAddr: 0x23C00, symSize: 0x570 }
  - { offset: 0x135572, size: 0x8, addend: 0x0, symName: __ZNSt3__16vectorIPN8nlohmann16json_abi_v3_11_210basic_jsonINS_3mapES0_NS_12basic_stringIcNS_11char_traitsIcEENS_9allocatorIcEEEEbxydS8_NS2_14adl_serializerENS0_IhNS8_IhEEEEEENS8_ISF_EEE9push_backB8de180100ERKSF_, symObjAddr: 0x1DAA0, symBinAddr: 0x24170, symSize: 0x80 }
  - { offset: 0x1355BA, size: 0x8, addend: 0x0, symName: __ZNSt3__16vectorIPN8nlohmann16json_abi_v3_11_210basic_jsonINS_3mapES0_NS_12basic_stringIcNS_11char_traitsIcEENS_9allocatorIcEEEEbxydS8_NS2_14adl_serializerENS0_IhNS8_IhEEEEEENS8_ISF_EEE4backB8de180100Ev, symObjAddr: 0x1DB20, symBinAddr: 0x241F0, symSize: 0x50 }
  - { offset: 0x1355E0, size: 0x8, addend: 0x0, symName: __ZNK8nlohmann16json_abi_v3_11_210basic_jsonINSt3__13mapENS2_6vectorENS2_12basic_stringIcNS2_11char_traitsIcEENS2_9allocatorIcEEEEbxydS8_NS0_14adl_serializerENS4_IhNS8_IhEEEEE8max_sizeEv, symObjAddr: 0x1DB70, symBinAddr: 0x24240, symSize: 0xB0 }
  - { offset: 0x135606, size: 0x8, addend: 0x0, symName: __ZN8nlohmann16json_abi_v3_11_26detail12out_of_range6createIPNS0_10basic_jsonINSt3__13mapENS5_6vectorENS5_12basic_stringIcNS5_11char_traitsIcEENS5_9allocatorIcEEEEbxydSB_NS0_14adl_serializerENS7_IhNSB_IhEEEEEELi0EEES2_iRKSD_T_, symObjAddr: 0x1DC20, symBinAddr: 0x242F0, symSize: 0x160 }
  - { offset: 0x13566B, size: 0x8, addend: 0x0, symName: __ZNKSt3__110__function12__value_funcIFbiN8nlohmann16json_abi_v3_11_26detail13parse_event_tERNS3_10basic_jsonINS_3mapENS_6vectorENS_12basic_stringIcNS_11char_traitsIcEENS_9allocatorIcEEEEbxydSC_NS3_14adl_serializerENS8_IhNSC_IhEEEEEEEEclB8de180100EOiOS5_SJ_, symObjAddr: 0x1DE30, symBinAddr: 0x24500, symSize: 0x60 }
  - { offset: 0x1356D7, size: 0x8, addend: 0x0, symName: __ZNSt3__117bad_function_callC1B8de180100Ev, symObjAddr: 0x1DED0, symBinAddr: 0x245A0, symSize: 0x20 }
  - { offset: 0x135701, size: 0x8, addend: 0x0, symName: __ZNSt3__117bad_function_callD1Ev, symObjAddr: 0x1DEF0, symBinAddr: 0x245C0, symSize: 0x20 }
  - { offset: 0x13572B, size: 0x8, addend: 0x0, symName: __ZNSt3__117bad_function_callC2B8de180100Ev, symObjAddr: 0x1DF10, symBinAddr: 0x245E0, symSize: 0x40 }
  - { offset: 0x135755, size: 0x8, addend: 0x0, symName: __ZNSt3__117bad_function_callD0Ev, symObjAddr: 0x1DF50, symBinAddr: 0x24620, symSize: 0x30 }
  - { offset: 0x13577F, size: 0x8, addend: 0x0, symName: __ZNSt3__117bad_function_callD2Ev, symObjAddr: 0x1DF80, symBinAddr: 0x24650, symSize: 0x20 }
  - { offset: 0x1357A9, size: 0x8, addend: 0x0, symName: __ZNSt3__14pairIbPN8nlohmann16json_abi_v3_11_210basic_jsonINS_3mapENS_6vectorENS_12basic_stringIcNS_11char_traitsIcEENS_9allocatorIcEEEEbxydS9_NS2_14adl_serializerENS5_IhNS9_IhEEEEEEEC1B8de180100IbDnLi0EEEOT_OT0_, symObjAddr: 0x1DFA0, symBinAddr: 0x24670, symSize: 0x30 }
  - { offset: 0x13580A, size: 0x8, addend: 0x0, symName: __ZNKSt3__16vectorIPN8nlohmann16json_abi_v3_11_210basic_jsonINS_3mapES0_NS_12basic_stringIcNS_11char_traitsIcEENS_9allocatorIcEEEEbxydS8_NS2_14adl_serializerENS0_IhNS8_IhEEEEEENS8_ISF_EEE5emptyB8de180100Ev, symObjAddr: 0x1DFD0, symBinAddr: 0x246A0, symSize: 0x20 }
  - { offset: 0x135830, size: 0x8, addend: 0x0, symName: __ZNSt3__14pairIbPN8nlohmann16json_abi_v3_11_210basic_jsonINS_3mapENS_6vectorENS_12basic_stringIcNS_11char_traitsIcEENS_9allocatorIcEEEEbxydS9_NS2_14adl_serializerENS5_IhNS9_IhEEEEEEEC1B8de180100IbSG_Li0EEEOT_OT0_, symObjAddr: 0x1DFF0, symBinAddr: 0x246C0, symSize: 0x30 }
  - { offset: 0x135891, size: 0x8, addend: 0x0, symName: __ZNSt3__16vectorIN8nlohmann16json_abi_v3_11_210basic_jsonINS_3mapES0_NS_12basic_stringIcNS_11char_traitsIcEENS_9allocatorIcEEEEbxydS8_NS2_14adl_serializerENS0_IhNS8_IhEEEEEENS8_ISE_EEE12emplace_backIJSE_EEERSE_DpOT_, symObjAddr: 0x1E020, symBinAddr: 0x246F0, symSize: 0x90 }
  - { offset: 0x1358E6, size: 0x8, addend: 0x0, symName: __ZNSt3__14pairIbPN8nlohmann16json_abi_v3_11_210basic_jsonINS_3mapENS_6vectorENS_12basic_stringIcNS_11char_traitsIcEENS_9allocatorIcEEEEbxydS9_NS2_14adl_serializerENS5_IhNS9_IhEEEEEEEC1B8de180100IbRSG_Li0EEEOT_OT0_, symObjAddr: 0x1E0B0, symBinAddr: 0x24780, symSize: 0x30 }
  - { offset: 0x135947, size: 0x8, addend: 0x0, symName: __ZNSt3__14pairIbPN8nlohmann16json_abi_v3_11_210basic_jsonINS_3mapENS_6vectorENS_12basic_stringIcNS_11char_traitsIcEENS_9allocatorIcEEEEbxydS9_NS2_14adl_serializerENS5_IhNS9_IhEEEEEEEC2B8de180100IbDnLi0EEEOT_OT0_, symObjAddr: 0x1E0E0, symBinAddr: 0x247B0, symSize: 0x30 }
  - { offset: 0x1359A8, size: 0x8, addend: 0x0, symName: __ZNSt3__14pairIbPN8nlohmann16json_abi_v3_11_210basic_jsonINS_3mapENS_6vectorENS_12basic_stringIcNS_11char_traitsIcEENS_9allocatorIcEEEEbxydS9_NS2_14adl_serializerENS5_IhNS9_IhEEEEEEEC2B8de180100IbSG_Li0EEEOT_OT0_, symObjAddr: 0x1E110, symBinAddr: 0x247E0, symSize: 0x30 }
  - { offset: 0x135A09, size: 0x8, addend: 0x0, symName: __ZNSt3__16vectorIN8nlohmann16json_abi_v3_11_210basic_jsonINS_3mapES0_NS_12basic_stringIcNS_11char_traitsIcEENS_9allocatorIcEEEEbxydS8_NS2_14adl_serializerENS0_IhNS8_IhEEEEEENS8_ISE_EEE24__emplace_back_slow_pathIJSE_EEEPSE_DpOT_, symObjAddr: 0x1E140, symBinAddr: 0x24810, symSize: 0xE0 }
  - { offset: 0x135A6E, size: 0x8, addend: 0x0, symName: __ZNSt3__14pairIbPN8nlohmann16json_abi_v3_11_210basic_jsonINS_3mapENS_6vectorENS_12basic_stringIcNS_11char_traitsIcEENS_9allocatorIcEEEEbxydS9_NS2_14adl_serializerENS5_IhNS9_IhEEEEEEEC2B8de180100IbRSG_Li0EEEOT_OT0_, symObjAddr: 0x1E220, symBinAddr: 0x248F0, symSize: 0x30 }
  - { offset: 0x135ACF, size: 0x8, addend: 0x0, symName: __ZNSt3__16vectorIPN8nlohmann16json_abi_v3_11_210basic_jsonINS_3mapES0_NS_12basic_stringIcNS_11char_traitsIcEENS_9allocatorIcEEEEbxydS8_NS2_14adl_serializerENS0_IhNS8_IhEEEEEENS8_ISF_EEE9__end_capB8de180100Ev, symObjAddr: 0x1E250, symBinAddr: 0x24920, symSize: 0x20 }
  - { offset: 0x135AF5, size: 0x8, addend: 0x0, symName: __ZNSt3__16vectorIPN8nlohmann16json_abi_v3_11_210basic_jsonINS_3mapES0_NS_12basic_stringIcNS_11char_traitsIcEENS_9allocatorIcEEEEbxydS8_NS2_14adl_serializerENS0_IhNS8_IhEEEEEENS8_ISF_EEE22__construct_one_at_endB8de180100IJRKSF_EEEvDpOT_, symObjAddr: 0x1E270, symBinAddr: 0x24940, symSize: 0x90 }
  - { offset: 0x135B48, size: 0x8, addend: 0x0, symName: __ZNSt3__16vectorIPN8nlohmann16json_abi_v3_11_210basic_jsonINS_3mapES0_NS_12basic_stringIcNS_11char_traitsIcEENS_9allocatorIcEEEEbxydS8_NS2_14adl_serializerENS0_IhNS8_IhEEEEEENS8_ISF_EEE21__push_back_slow_pathIRKSF_EEPSF_OT_, symObjAddr: 0x1E300, symBinAddr: 0x249D0, symSize: 0xE0 }
  - { offset: 0x135BA9, size: 0x8, addend: 0x0, symName: __ZNSt3__117__compressed_pairIPPN8nlohmann16json_abi_v3_11_210basic_jsonINS_3mapENS_6vectorENS_12basic_stringIcNS_11char_traitsIcEENS_9allocatorIcEEEEbxydS9_NS2_14adl_serializerENS5_IhNS9_IhEEEEEENS9_ISG_EEE5firstB8de180100Ev, symObjAddr: 0x1E3E0, symBinAddr: 0x24AB0, symSize: 0x20 }
  - { offset: 0x135BCF, size: 0x8, addend: 0x0, symName: __ZNSt3__122__compressed_pair_elemIPPN8nlohmann16json_abi_v3_11_210basic_jsonINS_3mapENS_6vectorENS_12basic_stringIcNS_11char_traitsIcEENS_9allocatorIcEEEEbxydS9_NS2_14adl_serializerENS5_IhNS9_IhEEEEEELi0ELb0EE5__getB8de180100Ev, symObjAddr: 0x1E400, symBinAddr: 0x24AD0, symSize: 0x10 }
  - { offset: 0x135C10, size: 0x8, addend: 0x0, symName: __ZNSt3__16vectorIPN8nlohmann16json_abi_v3_11_210basic_jsonINS_3mapES0_NS_12basic_stringIcNS_11char_traitsIcEENS_9allocatorIcEEEEbxydS8_NS2_14adl_serializerENS0_IhNS8_IhEEEEEENS8_ISF_EEE21_ConstructTransactionC1B8de180100ERSH_m, symObjAddr: 0x1E410, symBinAddr: 0x24AE0, symSize: 0x30 }
  - { offset: 0x135C5A, size: 0x8, addend: 0x0, symName: __ZNSt3__116allocator_traitsINS_9allocatorIPN8nlohmann16json_abi_v3_11_210basic_jsonINS_3mapENS_6vectorENS_12basic_stringIcNS_11char_traitsIcEENS1_IcEEEEbxydS1_NS3_14adl_serializerENS6_IhNS1_IhEEEEEEEEE9constructB8de180100ISG_JRKSG_EvEEvRSH_PT_DpOT0_, symObjAddr: 0x1E440, symBinAddr: 0x24B10, symSize: 0x30 }
  - { offset: 0x135CB7, size: 0x8, addend: 0x0, symName: __ZNSt3__16vectorIPN8nlohmann16json_abi_v3_11_210basic_jsonINS_3mapES0_NS_12basic_stringIcNS_11char_traitsIcEENS_9allocatorIcEEEEbxydS8_NS2_14adl_serializerENS0_IhNS8_IhEEEEEENS8_ISF_EEE21_ConstructTransactionD1B8de180100Ev, symObjAddr: 0x1E470, symBinAddr: 0x24B40, symSize: 0x20 }
  - { offset: 0x135CE1, size: 0x8, addend: 0x0, symName: __ZNSt3__16vectorIPN8nlohmann16json_abi_v3_11_210basic_jsonINS_3mapES0_NS_12basic_stringIcNS_11char_traitsIcEENS_9allocatorIcEEEEbxydS8_NS2_14adl_serializerENS0_IhNS8_IhEEEEEENS8_ISF_EEE21_ConstructTransactionC2B8de180100ERSH_m, symObjAddr: 0x1E490, symBinAddr: 0x24B60, symSize: 0x40 }
  - { offset: 0x135D2B, size: 0x8, addend: 0x0, symName: __ZNSt3__19allocatorIPN8nlohmann16json_abi_v3_11_210basic_jsonINS_3mapENS_6vectorENS_12basic_stringIcNS_11char_traitsIcEENS0_IcEEEEbxydS0_NS2_14adl_serializerENS5_IhNS0_IhEEEEEEE9constructB8de180100ISF_JRKSF_EEEvPT_DpOT0_, symObjAddr: 0x1E4D0, symBinAddr: 0x24BA0, symSize: 0x20 }
  - { offset: 0x135D85, size: 0x8, addend: 0x0, symName: __ZNSt3__16vectorIPN8nlohmann16json_abi_v3_11_210basic_jsonINS_3mapES0_NS_12basic_stringIcNS_11char_traitsIcEENS_9allocatorIcEEEEbxydS8_NS2_14adl_serializerENS0_IhNS8_IhEEEEEENS8_ISF_EEE21_ConstructTransactionD2B8de180100Ev, symObjAddr: 0x1E4F0, symBinAddr: 0x24BC0, symSize: 0x20 }
  - { offset: 0x135DAF, size: 0x8, addend: 0x0, symName: __ZNKSt3__16vectorIPN8nlohmann16json_abi_v3_11_210basic_jsonINS_3mapES0_NS_12basic_stringIcNS_11char_traitsIcEENS_9allocatorIcEEEEbxydS8_NS2_14adl_serializerENS0_IhNS8_IhEEEEEENS8_ISF_EEE11__recommendB8de180100Em, symObjAddr: 0x1E510, symBinAddr: 0x24BE0, symSize: 0x90 }
  - { offset: 0x135E07, size: 0x8, addend: 0x0, symName: __ZNSt3__114__split_bufferIPN8nlohmann16json_abi_v3_11_210basic_jsonINS_3mapENS_6vectorENS_12basic_stringIcNS_11char_traitsIcEENS_9allocatorIcEEEEbxydS9_NS2_14adl_serializerENS5_IhNS9_IhEEEEEERNS9_ISG_EEEC1EmmSI_, symObjAddr: 0x1E5A0, symBinAddr: 0x24C70, symSize: 0x40 }
  - { offset: 0x135E60, size: 0x8, addend: 0x0, symName: __ZNSt3__114__split_bufferIPN8nlohmann16json_abi_v3_11_210basic_jsonINS_3mapENS_6vectorENS_12basic_stringIcNS_11char_traitsIcEENS_9allocatorIcEEEEbxydS9_NS2_14adl_serializerENS5_IhNS9_IhEEEEEERNS9_ISG_EEED1Ev, symObjAddr: 0x1E700, symBinAddr: 0x24DD0, symSize: 0x20 }
  - { offset: 0x135E8C, size: 0x8, addend: 0x0, symName: __ZNKSt3__16vectorIPN8nlohmann16json_abi_v3_11_210basic_jsonINS_3mapES0_NS_12basic_stringIcNS_11char_traitsIcEENS_9allocatorIcEEEEbxydS8_NS2_14adl_serializerENS0_IhNS8_IhEEEEEENS8_ISF_EEE8max_sizeEv, symObjAddr: 0x1E720, symBinAddr: 0x24DF0, symSize: 0x60 }
  - { offset: 0x135EB4, size: 0x8, addend: 0x0, symName: __ZNKSt3__16vectorIPN8nlohmann16json_abi_v3_11_210basic_jsonINS_3mapES0_NS_12basic_stringIcNS_11char_traitsIcEENS_9allocatorIcEEEEbxydS8_NS2_14adl_serializerENS0_IhNS8_IhEEEEEENS8_ISF_EEE20__throw_length_errorB8de180100Ev, symObjAddr: 0x1E780, symBinAddr: 0x24E50, symSize: 0x20 }
  - { offset: 0x135EE5, size: 0x8, addend: 0x0, symName: __ZNSt3__116allocator_traitsINS_9allocatorIPN8nlohmann16json_abi_v3_11_210basic_jsonINS_3mapENS_6vectorENS_12basic_stringIcNS_11char_traitsIcEENS1_IcEEEEbxydS1_NS3_14adl_serializerENS6_IhNS1_IhEEEEEEEEE8max_sizeB8de180100ISH_vEEmRKSH_, symObjAddr: 0x1E7A0, symBinAddr: 0x24E70, symSize: 0x20 }
  - { offset: 0x135F15, size: 0x8, addend: 0x0, symName: __ZNKSt3__16vectorIPN8nlohmann16json_abi_v3_11_210basic_jsonINS_3mapES0_NS_12basic_stringIcNS_11char_traitsIcEENS_9allocatorIcEEEEbxydS8_NS2_14adl_serializerENS0_IhNS8_IhEEEEEENS8_ISF_EEE7__allocB8de180100Ev, symObjAddr: 0x1E7C0, symBinAddr: 0x24E90, symSize: 0x20 }
  - { offset: 0x135F3B, size: 0x8, addend: 0x0, symName: __ZNKSt3__19allocatorIPN8nlohmann16json_abi_v3_11_210basic_jsonINS_3mapENS_6vectorENS_12basic_stringIcNS_11char_traitsIcEENS0_IcEEEEbxydS0_NS2_14adl_serializerENS5_IhNS0_IhEEEEEEE8max_sizeB8de180100Ev, symObjAddr: 0x1E7E0, symBinAddr: 0x24EB0, symSize: 0x20 }
  - { offset: 0x135F61, size: 0x8, addend: 0x0, symName: __ZNKSt3__117__compressed_pairIPPN8nlohmann16json_abi_v3_11_210basic_jsonINS_3mapENS_6vectorENS_12basic_stringIcNS_11char_traitsIcEENS_9allocatorIcEEEEbxydS9_NS2_14adl_serializerENS5_IhNS9_IhEEEEEENS9_ISG_EEE6secondB8de180100Ev, symObjAddr: 0x1E800, symBinAddr: 0x24ED0, symSize: 0x20 }
  - { offset: 0x135F87, size: 0x8, addend: 0x0, symName: __ZNKSt3__122__compressed_pair_elemINS_9allocatorIPN8nlohmann16json_abi_v3_11_210basic_jsonINS_3mapENS_6vectorENS_12basic_stringIcNS_11char_traitsIcEENS1_IcEEEEbxydS1_NS3_14adl_serializerENS6_IhNS1_IhEEEEEEEELi1ELb1EE5__getB8de180100Ev, symObjAddr: 0x1E820, symBinAddr: 0x24EF0, symSize: 0x10 }
  - { offset: 0x135FAD, size: 0x8, addend: 0x0, symName: __ZNSt3__114__split_bufferIPN8nlohmann16json_abi_v3_11_210basic_jsonINS_3mapENS_6vectorENS_12basic_stringIcNS_11char_traitsIcEENS_9allocatorIcEEEEbxydS9_NS2_14adl_serializerENS5_IhNS9_IhEEEEEERNS9_ISG_EEEC2EmmSI_, symObjAddr: 0x1E830, symBinAddr: 0x24F00, symSize: 0xD0 }
  - { offset: 0x136025, size: 0x8, addend: 0x0, symName: __ZNSt3__117__compressed_pairIPPN8nlohmann16json_abi_v3_11_210basic_jsonINS_3mapENS_6vectorENS_12basic_stringIcNS_11char_traitsIcEENS_9allocatorIcEEEEbxydS9_NS2_14adl_serializerENS5_IhNS9_IhEEEEEERNS9_ISG_EEEC1B8de180100IDnSJ_EEOT_OT0_, symObjAddr: 0x1E900, symBinAddr: 0x24FD0, symSize: 0x30 }
  - { offset: 0x13607F, size: 0x8, addend: 0x0, symName: __ZNSt3__114__split_bufferIPN8nlohmann16json_abi_v3_11_210basic_jsonINS_3mapENS_6vectorENS_12basic_stringIcNS_11char_traitsIcEENS_9allocatorIcEEEEbxydS9_NS2_14adl_serializerENS5_IhNS9_IhEEEEEERNS9_ISG_EEE7__allocB8de180100Ev, symObjAddr: 0x1E970, symBinAddr: 0x25040, symSize: 0x20 }
  - { offset: 0x1360A5, size: 0x8, addend: 0x0, symName: __ZNSt3__114__split_bufferIPN8nlohmann16json_abi_v3_11_210basic_jsonINS_3mapENS_6vectorENS_12basic_stringIcNS_11char_traitsIcEENS_9allocatorIcEEEEbxydS9_NS2_14adl_serializerENS5_IhNS9_IhEEEEEERNS9_ISG_EEE9__end_capB8de180100Ev, symObjAddr: 0x1E990, symBinAddr: 0x25060, symSize: 0x20 }
  - { offset: 0x1360CB, size: 0x8, addend: 0x0, symName: __ZNSt3__117__compressed_pairIPPN8nlohmann16json_abi_v3_11_210basic_jsonINS_3mapENS_6vectorENS_12basic_stringIcNS_11char_traitsIcEENS_9allocatorIcEEEEbxydS9_NS2_14adl_serializerENS5_IhNS9_IhEEEEEERNS9_ISG_EEEC2B8de180100IDnSJ_EEOT_OT0_, symObjAddr: 0x1E9B0, symBinAddr: 0x25080, symSize: 0x40 }
  - { offset: 0x136125, size: 0x8, addend: 0x0, symName: __ZNSt3__122__compressed_pair_elemIRNS_9allocatorIPN8nlohmann16json_abi_v3_11_210basic_jsonINS_3mapENS_6vectorENS_12basic_stringIcNS_11char_traitsIcEENS1_IcEEEEbxydS1_NS3_14adl_serializerENS6_IhNS1_IhEEEEEEEELi1ELb0EEC2B8de180100ISI_vEEOT_, symObjAddr: 0x1E9F0, symBinAddr: 0x250C0, symSize: 0x20 }
  - { offset: 0x136169, size: 0x8, addend: 0x0, symName: __ZNSt3__19allocatorIPN8nlohmann16json_abi_v3_11_210basic_jsonINS_3mapENS_6vectorENS_12basic_stringIcNS_11char_traitsIcEENS0_IcEEEEbxydS0_NS2_14adl_serializerENS5_IhNS0_IhEEEEEEE8allocateB8de180100Em, symObjAddr: 0x1EA10, symBinAddr: 0x250E0, symSize: 0x50 }
  - { offset: 0x13619E, size: 0x8, addend: 0x0, symName: __ZNSt3__117__compressed_pairIPPN8nlohmann16json_abi_v3_11_210basic_jsonINS_3mapENS_6vectorENS_12basic_stringIcNS_11char_traitsIcEENS_9allocatorIcEEEEbxydS9_NS2_14adl_serializerENS5_IhNS9_IhEEEEEERNS9_ISG_EEE6secondB8de180100Ev, symObjAddr: 0x1EA60, symBinAddr: 0x25130, symSize: 0x20 }
  - { offset: 0x1361C4, size: 0x8, addend: 0x0, symName: __ZNSt3__122__compressed_pair_elemIRNS_9allocatorIPN8nlohmann16json_abi_v3_11_210basic_jsonINS_3mapENS_6vectorENS_12basic_stringIcNS_11char_traitsIcEENS1_IcEEEEbxydS1_NS3_14adl_serializerENS6_IhNS1_IhEEEEEEEELi1ELb0EE5__getB8de180100Ev, symObjAddr: 0x1EA80, symBinAddr: 0x25150, symSize: 0x20 }
  - { offset: 0x1361EA, size: 0x8, addend: 0x0, symName: __ZNSt3__117__compressed_pairIPPN8nlohmann16json_abi_v3_11_210basic_jsonINS_3mapENS_6vectorENS_12basic_stringIcNS_11char_traitsIcEENS_9allocatorIcEEEEbxydS9_NS2_14adl_serializerENS5_IhNS9_IhEEEEEERNS9_ISG_EEE5firstB8de180100Ev, symObjAddr: 0x1EAA0, symBinAddr: 0x25170, symSize: 0x20 }
  - { offset: 0x136210, size: 0x8, addend: 0x0, symName: __ZNSt3__116reverse_iteratorIPPN8nlohmann16json_abi_v3_11_210basic_jsonINS_3mapENS_6vectorENS_12basic_stringIcNS_11char_traitsIcEENS_9allocatorIcEEEEbxydS9_NS2_14adl_serializerENS5_IhNS9_IhEEEEEEEC1B8de180100ESH_, symObjAddr: 0x1EB30, symBinAddr: 0x25200, symSize: 0x30 }
  - { offset: 0x136249, size: 0x8, addend: 0x0, symName: __ZNKSt3__116reverse_iteratorIPPN8nlohmann16json_abi_v3_11_210basic_jsonINS_3mapENS_6vectorENS_12basic_stringIcNS_11char_traitsIcEENS_9allocatorIcEEEEbxydS9_NS2_14adl_serializerENS5_IhNS9_IhEEEEEEE4baseB8de180100Ev, symObjAddr: 0x1EB60, symBinAddr: 0x25230, symSize: 0x20 }
  - { offset: 0x13626F, size: 0x8, addend: 0x0, symName: __ZNKSt3__16vectorIPN8nlohmann16json_abi_v3_11_210basic_jsonINS_3mapES0_NS_12basic_stringIcNS_11char_traitsIcEENS_9allocatorIcEEEEbxydS8_NS2_14adl_serializerENS0_IhNS8_IhEEEEEENS8_ISF_EEE14__annotate_newB8de180100Em, symObjAddr: 0x1EBC0, symBinAddr: 0x25290, symSize: 0x10 }
  - { offset: 0x1362C1, size: 0x8, addend: 0x0, symName: __ZNKSt3__111__move_loopINS_17_ClassicAlgPolicyEEclB8de180100INS_16reverse_iteratorIPPN8nlohmann16json_abi_v3_11_210basic_jsonINS_3mapENS_6vectorENS_12basic_stringIcNS_11char_traitsIcEENS_9allocatorIcEEEEbxydSD_NS6_14adl_serializerENS9_IhNSD_IhEEEEEEEESM_SM_EENS_4pairIT_T1_EESO_T0_SP_, symObjAddr: 0x1F010, symBinAddr: 0x256E0, symSize: 0xA0 }
  - { offset: 0x136338, size: 0x8, addend: 0x0, symName: __ZNSt3__18_IterOpsINS_17_ClassicAlgPolicyEE11__iter_moveB8de180100IRNS_16reverse_iteratorIPPN8nlohmann16json_abi_v3_11_210basic_jsonINS_3mapENS_6vectorENS_12basic_stringIcNS_11char_traitsIcEENS_9allocatorIcEEEEbxydSD_NS6_14adl_serializerENS9_IhNSD_IhEEEEEEEELi0EEEDTclsr3stdE4movedeclsr3stdE7declvalIRT_EEEEOSO_, symObjAddr: 0x1F230, symBinAddr: 0x25900, symSize: 0x20 }
  - { offset: 0x13636D, size: 0x8, addend: 0x0, symName: __ZNKSt3__116reverse_iteratorIPPN8nlohmann16json_abi_v3_11_210basic_jsonINS_3mapENS_6vectorENS_12basic_stringIcNS_11char_traitsIcEENS_9allocatorIcEEEEbxydS9_NS2_14adl_serializerENS5_IhNS9_IhEEEEEEEdeB8de180100Ev, symObjAddr: 0x1F250, symBinAddr: 0x25920, symSize: 0x30 }
  - { offset: 0x1363A2, size: 0x8, addend: 0x0, symName: __ZNSt3__116reverse_iteratorIPPN8nlohmann16json_abi_v3_11_210basic_jsonINS_3mapENS_6vectorENS_12basic_stringIcNS_11char_traitsIcEENS_9allocatorIcEEEEbxydS9_NS2_14adl_serializerENS5_IhNS9_IhEEEEEEEppB8de180100Ev, symObjAddr: 0x1F280, symBinAddr: 0x25950, symSize: 0x20 }
  - { offset: 0x1363C8, size: 0x8, addend: 0x0, symName: __ZNSt3__18_IterOpsINS_17_ClassicAlgPolicyEE25__validate_iter_referenceB8de180100IRNS_16reverse_iteratorIPPN8nlohmann16json_abi_v3_11_210basic_jsonINS_3mapENS_6vectorENS_12basic_stringIcNS_11char_traitsIcEENS_9allocatorIcEEEEbxydSD_NS6_14adl_serializerENS9_IhNSD_IhEEEEEEEEEEvv, symObjAddr: 0x1F2A0, symBinAddr: 0x25970, symSize: 0x10 }
  - { offset: 0x1363E6, size: 0x8, addend: 0x0, symName: __ZNSt3__118__unwrap_iter_implINS_16reverse_iteratorIPPN8nlohmann16json_abi_v3_11_210basic_jsonINS_3mapENS_6vectorENS_12basic_stringIcNS_11char_traitsIcEENS_9allocatorIcEEEEbxydSA_NS3_14adl_serializerENS6_IhNSA_IhEEEEEEEELb0EE8__unwrapB8de180100ESJ_, symObjAddr: 0x1F2B0, symBinAddr: 0x25980, symSize: 0x20 }
  - { offset: 0x136411, size: 0x8, addend: 0x0, symName: __ZNSt3__14pairINS_16reverse_iteratorIPPN8nlohmann16json_abi_v3_11_210basic_jsonINS_3mapENS_6vectorENS_12basic_stringIcNS_11char_traitsIcEENS_9allocatorIcEEEEbxydSA_NS3_14adl_serializerENS6_IhNSA_IhEEEEEEEESJ_EC1B8de180100ISJ_SJ_Li0EEEOT_OT0_, symObjAddr: 0x1F2D0, symBinAddr: 0x259A0, symSize: 0x30 }
  - { offset: 0x136472, size: 0x8, addend: 0x0, symName: __ZNSt3__14pairINS_16reverse_iteratorIPPN8nlohmann16json_abi_v3_11_210basic_jsonINS_3mapENS_6vectorENS_12basic_stringIcNS_11char_traitsIcEENS_9allocatorIcEEEEbxydSA_NS3_14adl_serializerENS6_IhNSA_IhEEEEEEEESJ_EC2B8de180100ISJ_SJ_Li0EEEOT_OT0_, symObjAddr: 0x1F300, symBinAddr: 0x259D0, symSize: 0x40 }
  - { offset: 0x1364D3, size: 0x8, addend: 0x0, symName: __ZNSt3__118__unwrap_iter_implINS_16reverse_iteratorIPPN8nlohmann16json_abi_v3_11_210basic_jsonINS_3mapENS_6vectorENS_12basic_stringIcNS_11char_traitsIcEENS_9allocatorIcEEEEbxydSA_NS3_14adl_serializerENS6_IhNSA_IhEEEEEEEELb0EE8__rewrapB8de180100ESJ_SJ_, symObjAddr: 0x1F340, symBinAddr: 0x25A10, symSize: 0x30 }
  - { offset: 0x136504, size: 0x8, addend: 0x0, symName: __ZNSt3__116reverse_iteratorIPPN8nlohmann16json_abi_v3_11_210basic_jsonINS_3mapENS_6vectorENS_12basic_stringIcNS_11char_traitsIcEENS_9allocatorIcEEEEbxydS9_NS2_14adl_serializerENS5_IhNS9_IhEEEEEEEC2B8de180100ESH_, symObjAddr: 0x1F370, symBinAddr: 0x25A40, symSize: 0x30 }
  - { offset: 0x13653D, size: 0x8, addend: 0x0, symName: __ZNSt3__114__split_bufferIPN8nlohmann16json_abi_v3_11_210basic_jsonINS_3mapENS_6vectorENS_12basic_stringIcNS_11char_traitsIcEENS_9allocatorIcEEEEbxydS9_NS2_14adl_serializerENS5_IhNS9_IhEEEEEERNS9_ISG_EEED2Ev, symObjAddr: 0x1F3A0, symBinAddr: 0x25A70, symSize: 0x70 }
  - { offset: 0x136569, size: 0x8, addend: 0x0, symName: __ZNSt3__114__split_bufferIPN8nlohmann16json_abi_v3_11_210basic_jsonINS_3mapENS_6vectorENS_12basic_stringIcNS_11char_traitsIcEENS_9allocatorIcEEEEbxydS9_NS2_14adl_serializerENS5_IhNS9_IhEEEEEERNS9_ISG_EEE5clearB8de180100Ev, symObjAddr: 0x1F410, symBinAddr: 0x25AE0, symSize: 0x20 }
  - { offset: 0x13658F, size: 0x8, addend: 0x0, symName: __ZNKSt3__114__split_bufferIPN8nlohmann16json_abi_v3_11_210basic_jsonINS_3mapENS_6vectorENS_12basic_stringIcNS_11char_traitsIcEENS_9allocatorIcEEEEbxydS9_NS2_14adl_serializerENS5_IhNS9_IhEEEEEERNS9_ISG_EEE8capacityB8de180100Ev, symObjAddr: 0x1F430, symBinAddr: 0x25B00, symSize: 0x30 }
  - { offset: 0x1365B5, size: 0x8, addend: 0x0, symName: __ZNSt3__114__split_bufferIPN8nlohmann16json_abi_v3_11_210basic_jsonINS_3mapENS_6vectorENS_12basic_stringIcNS_11char_traitsIcEENS_9allocatorIcEEEEbxydS9_NS2_14adl_serializerENS5_IhNS9_IhEEEEEERNS9_ISG_EEE17__destruct_at_endB8de180100EPSG_, symObjAddr: 0x1F460, symBinAddr: 0x25B30, symSize: 0x30 }
  - { offset: 0x1365EA, size: 0x8, addend: 0x0, symName: __ZNSt3__114__split_bufferIPN8nlohmann16json_abi_v3_11_210basic_jsonINS_3mapENS_6vectorENS_12basic_stringIcNS_11char_traitsIcEENS_9allocatorIcEEEEbxydS9_NS2_14adl_serializerENS5_IhNS9_IhEEEEEERNS9_ISG_EEE17__destruct_at_endB8de180100EPSG_NS_17integral_constantIbLb0EEE, symObjAddr: 0x1F490, symBinAddr: 0x25B60, symSize: 0x80 }
  - { offset: 0x13662C, size: 0x8, addend: 0x0, symName: __ZNKSt3__114__split_bufferIPN8nlohmann16json_abi_v3_11_210basic_jsonINS_3mapENS_6vectorENS_12basic_stringIcNS_11char_traitsIcEENS_9allocatorIcEEEEbxydS9_NS2_14adl_serializerENS5_IhNS9_IhEEEEEERNS9_ISG_EEE9__end_capB8de180100Ev, symObjAddr: 0x1F510, symBinAddr: 0x25BE0, symSize: 0x20 }
  - { offset: 0x136652, size: 0x8, addend: 0x0, symName: __ZNKSt3__117__compressed_pairIPPN8nlohmann16json_abi_v3_11_210basic_jsonINS_3mapENS_6vectorENS_12basic_stringIcNS_11char_traitsIcEENS_9allocatorIcEEEEbxydS9_NS2_14adl_serializerENS5_IhNS9_IhEEEEEERNS9_ISG_EEE5firstB8de180100Ev, symObjAddr: 0x1F530, symBinAddr: 0x25C00, symSize: 0x20 }
  - { offset: 0x136678, size: 0x8, addend: 0x0, symName: __ZNKSt3__13mapINS_12basic_stringIcNS_11char_traitsIcEENS_9allocatorIcEEEEN8nlohmann16json_abi_v3_11_210basic_jsonIS0_NS_6vectorES6_bxydS4_NS8_14adl_serializerENSA_IhNS4_IhEEEEEENS_4lessIvEENS4_INS_4pairIKS6_SE_EEEEE8max_sizeB8de180100Ev, symObjAddr: 0x1F550, symBinAddr: 0x25C20, symSize: 0x20 }
  - { offset: 0x13669E, size: 0x8, addend: 0x0, symName: __ZNK8nlohmann16json_abi_v3_11_210basic_jsonINSt3__13mapENS2_6vectorENS2_12basic_stringIcNS2_11char_traitsIcEENS2_9allocatorIcEEEEbxydS8_NS0_14adl_serializerENS4_IhNS8_IhEEEEE4sizeEv, symObjAddr: 0x1F570, symBinAddr: 0x25C40, symSize: 0xC0 }
  - { offset: 0x1366C4, size: 0x8, addend: 0x0, symName: __ZNKSt3__16__treeINS_12__value_typeINS_12basic_stringIcNS_11char_traitsIcEENS_9allocatorIcEEEEN8nlohmann16json_abi_v3_11_210basic_jsonINS_3mapENS_6vectorES7_bxydS5_NS9_14adl_serializerENSC_IhNS5_IhEEEEEEEENS_19__map_value_compareIS7_SH_NS_4lessIvEELb1EEENS5_ISH_EEE8max_sizeB8de180100Ev, symObjAddr: 0x1F630, symBinAddr: 0x25D00, symSize: 0x60 }
  - { offset: 0x1366F5, size: 0x8, addend: 0x0, symName: __ZNSt3__116allocator_traitsINS_9allocatorINS_11__tree_nodeINS_12__value_typeINS_12basic_stringIcNS_11char_traitsIcEENS1_IcEEEEN8nlohmann16json_abi_v3_11_210basic_jsonINS_3mapENS_6vectorES8_bxydS1_NSA_14adl_serializerENSD_IhNS1_IhEEEEEEEEPvEEEEE8max_sizeB8de180100ISL_vEEmRKSL_, symObjAddr: 0x1F690, symBinAddr: 0x25D60, symSize: 0x20 }
  - { offset: 0x136725, size: 0x8, addend: 0x0, symName: __ZNKSt3__16__treeINS_12__value_typeINS_12basic_stringIcNS_11char_traitsIcEENS_9allocatorIcEEEEN8nlohmann16json_abi_v3_11_210basic_jsonINS_3mapENS_6vectorES7_bxydS5_NS9_14adl_serializerENSC_IhNS5_IhEEEEEEEENS_19__map_value_compareIS7_SH_NS_4lessIvEELb1EEENS5_ISH_EEE12__node_allocB8de180100Ev, symObjAddr: 0x1F6B0, symBinAddr: 0x25D80, symSize: 0x20 }
  - { offset: 0x13674B, size: 0x8, addend: 0x0, symName: __ZNKSt3__19allocatorINS_11__tree_nodeINS_12__value_typeINS_12basic_stringIcNS_11char_traitsIcEENS0_IcEEEEN8nlohmann16json_abi_v3_11_210basic_jsonINS_3mapENS_6vectorES7_bxydS0_NS9_14adl_serializerENSC_IhNS0_IhEEEEEEEEPvEEE8max_sizeB8de180100Ev, symObjAddr: 0x1F6D0, symBinAddr: 0x25DA0, symSize: 0x20 }
  - { offset: 0x136771, size: 0x8, addend: 0x0, symName: __ZNKSt3__117__compressed_pairINS_15__tree_end_nodeIPNS_16__tree_node_baseIPvEEEENS_9allocatorINS_11__tree_nodeINS_12__value_typeINS_12basic_stringIcNS_11char_traitsIcEENS7_IcEEEEN8nlohmann16json_abi_v3_11_210basic_jsonINS_3mapENS_6vectorESE_bxydS7_NSG_14adl_serializerENSJ_IhNS7_IhEEEEEEEES3_EEEEE6secondB8de180100Ev, symObjAddr: 0x1F6F0, symBinAddr: 0x25DC0, symSize: 0x20 }
  - { offset: 0x136797, size: 0x8, addend: 0x0, symName: __ZNKSt3__122__compressed_pair_elemINS_9allocatorINS_11__tree_nodeINS_12__value_typeINS_12basic_stringIcNS_11char_traitsIcEENS1_IcEEEEN8nlohmann16json_abi_v3_11_210basic_jsonINS_3mapENS_6vectorES8_bxydS1_NSA_14adl_serializerENSD_IhNS1_IhEEEEEEEEPvEEEELi1ELb1EE5__getB8de180100Ev, symObjAddr: 0x1F710, symBinAddr: 0x25DE0, symSize: 0x10 }
  - { offset: 0x1367BD, size: 0x8, addend: 0x0, symName: __ZN8nlohmann16json_abi_v3_11_26detail9exception11diagnosticsINS0_10basic_jsonINSt3__13mapENS5_6vectorENS5_12basic_stringIcNS5_11char_traitsIcEENS5_9allocatorIcEEEEbxydSB_NS0_14adl_serializerENS7_IhNSB_IhEEEEEEEESD_PKT_, symObjAddr: 0x1F720, symBinAddr: 0x25DF0, symSize: 0x30 }
  - { offset: 0x1367EB, size: 0x8, addend: 0x0, symName: __ZN8nlohmann16json_abi_v3_11_26detail12out_of_rangeC1EiPKc, symObjAddr: 0x1F750, symBinAddr: 0x25E20, symSize: 0x30 }
  - { offset: 0x136835, size: 0x8, addend: 0x0, symName: __ZN8nlohmann16json_abi_v3_11_26detail12out_of_rangeC2EiPKc, symObjAddr: 0x1F780, symBinAddr: 0x25E50, symSize: 0x40 }
  - { offset: 0x13687F, size: 0x8, addend: 0x0, symName: __ZN8nlohmann16json_abi_v3_11_26detail12out_of_rangeD0Ev, symObjAddr: 0x1F7C0, symBinAddr: 0x25E90, symSize: 0x30 }
  - { offset: 0x1368AC, size: 0x8, addend: 0x0, symName: __ZN8nlohmann16json_abi_v3_11_210basic_jsonINSt3__13mapENS2_6vectorENS2_12basic_stringIcNS2_11char_traitsIcEENS2_9allocatorIcEEEEbxydS8_NS0_14adl_serializerENS4_IhNS8_IhEEEEEC1ERKSE_, symObjAddr: 0x1F830, symBinAddr: 0x25F00, symSize: 0x30 }
  - { offset: 0x1368E6, size: 0x8, addend: 0x0, symName: __ZNSt3__16vectorIPN8nlohmann16json_abi_v3_11_210basic_jsonINS_3mapES0_NS_12basic_stringIcNS_11char_traitsIcEENS_9allocatorIcEEEEbxydS8_NS2_14adl_serializerENS0_IhNS8_IhEEEEEENS8_ISF_EEE8pop_backEv, symObjAddr: 0x1F860, symBinAddr: 0x25F30, symSize: 0x50 }
  - { offset: 0x13690E, size: 0x8, addend: 0x0, symName: __ZNK8nlohmann16json_abi_v3_11_210basic_jsonINSt3__13mapENS2_6vectorENS2_12basic_stringIcNS2_11char_traitsIcEENS2_9allocatorIcEEEEbxydS8_NS0_14adl_serializerENS4_IhNS8_IhEEEEE13is_structuredEv, symObjAddr: 0x1F8B0, symBinAddr: 0x25F80, symSize: 0x50 }
  - { offset: 0x136934, size: 0x8, addend: 0x0, symName: __ZN8nlohmann16json_abi_v3_11_210basic_jsonINSt3__13mapENS2_6vectorENS2_12basic_stringIcNS2_11char_traitsIcEENS2_9allocatorIcEEEEbxydS8_NS0_14adl_serializerENS4_IhNS8_IhEEEEE5beginEv, symObjAddr: 0x1F900, symBinAddr: 0x25FD0, symSize: 0x40 }
  - { offset: 0x13696B, size: 0x8, addend: 0x0, symName: __ZNK8nlohmann16json_abi_v3_11_26detail9iter_implINS0_10basic_jsonINSt3__13mapENS4_6vectorENS4_12basic_stringIcNS4_11char_traitsIcEENS4_9allocatorIcEEEEbxydSA_NS0_14adl_serializerENS6_IhNSA_IhEEEEEEEneISH_LDn0EEEbRKT_, symObjAddr: 0x1F940, symBinAddr: 0x26010, symSize: 0x30 }
  - { offset: 0x1369B1, size: 0x8, addend: 0x0, symName: __ZN8nlohmann16json_abi_v3_11_210basic_jsonINSt3__13mapENS2_6vectorENS2_12basic_stringIcNS2_11char_traitsIcEENS2_9allocatorIcEEEEbxydS8_NS0_14adl_serializerENS4_IhNS8_IhEEEEE3endEv, symObjAddr: 0x1F970, symBinAddr: 0x26040, symSize: 0x40 }
  - { offset: 0x1369E8, size: 0x8, addend: 0x0, symName: __ZNK8nlohmann16json_abi_v3_11_26detail9iter_implINS0_10basic_jsonINSt3__13mapENS4_6vectorENS4_12basic_stringIcNS4_11char_traitsIcEENS4_9allocatorIcEEEEbxydSA_NS0_14adl_serializerENS6_IhNSA_IhEEEEEEEptEv, symObjAddr: 0x1F9B0, symBinAddr: 0x26080, symSize: 0x290 }
  - { offset: 0x136A0E, size: 0x8, addend: 0x0, symName: __ZN8nlohmann16json_abi_v3_11_210basic_jsonINSt3__13mapENS2_6vectorENS2_12basic_stringIcNS2_11char_traitsIcEENS2_9allocatorIcEEEEbxydS8_NS0_14adl_serializerENS4_IhNS8_IhEEEEE5eraseINS0_6detail9iter_implISE_EELi0EEET_SJ_, symObjAddr: 0x1FC40, symBinAddr: 0x26310, symSize: 0x4C0 }
  - { offset: 0x136AA6, size: 0x8, addend: 0x0, symName: __ZN8nlohmann16json_abi_v3_11_26detail9iter_implINS0_10basic_jsonINSt3__13mapENS4_6vectorENS4_12basic_stringIcNS4_11char_traitsIcEENS4_9allocatorIcEEEEbxydSA_NS0_14adl_serializerENS6_IhNSA_IhEEEEEEEC1ERKSH_, symObjAddr: 0x20100, symBinAddr: 0x267D0, symSize: 0x30 }
  - { offset: 0x136AE0, size: 0x8, addend: 0x0, symName: __ZN8nlohmann16json_abi_v3_11_26detail9iter_implINS0_10basic_jsonINSt3__13mapENS4_6vectorENS4_12basic_stringIcNS4_11char_traitsIcEENS4_9allocatorIcEEEEbxydSA_NS0_14adl_serializerENS6_IhNSA_IhEEEEEEEppEv, symObjAddr: 0x20130, symBinAddr: 0x26800, symSize: 0x100 }
  - { offset: 0x136B06, size: 0x8, addend: 0x0, symName: __ZN8nlohmann16json_abi_v3_11_210basic_jsonINSt3__13mapENS2_6vectorENS2_12basic_stringIcNS2_11char_traitsIcEENS2_9allocatorIcEEEEbxydS8_NS0_14adl_serializerENS4_IhNS8_IhEEEEEC2ERKSE_, symObjAddr: 0x20230, symBinAddr: 0x26900, symSize: 0x1D0 }
  - { offset: 0x136B40, size: 0x8, addend: 0x0, symName: __ZN8nlohmann16json_abi_v3_11_210basic_jsonINSt3__13mapENS2_6vectorENS2_12basic_stringIcNS2_11char_traitsIcEENS2_9allocatorIcEEEEbxydS8_NS0_14adl_serializerENS4_IhNS8_IhEEEEE10json_valueC1ERKNS3_ISA_SE_NS2_4lessIvEENS8_INS2_4pairIKSA_SE_EEEEEE, symObjAddr: 0x20400, symBinAddr: 0x26AD0, symSize: 0x30 }
  - { offset: 0x136B7A, size: 0x8, addend: 0x0, symName: __ZN8nlohmann16json_abi_v3_11_210basic_jsonINSt3__13mapENS2_6vectorENS2_12basic_stringIcNS2_11char_traitsIcEENS2_9allocatorIcEEEEbxydS8_NS0_14adl_serializerENS4_IhNS8_IhEEEEE10json_valueC1ERKNS4_ISE_NS8_ISE_EEEE, symObjAddr: 0x20430, symBinAddr: 0x26B00, symSize: 0x30 }
  - { offset: 0x136BB4, size: 0x8, addend: 0x0, symName: __ZN8nlohmann16json_abi_v3_11_210basic_jsonINSt3__13mapENS2_6vectorENS2_12basic_stringIcNS2_11char_traitsIcEENS2_9allocatorIcEEEEbxydS8_NS0_14adl_serializerENS4_IhNS8_IhEEEEE10json_valueC1ERKSA_, symObjAddr: 0x20460, symBinAddr: 0x26B30, symSize: 0x30 }
  - { offset: 0x136BEE, size: 0x8, addend: 0x0, symName: __ZN8nlohmann16json_abi_v3_11_210basic_jsonINSt3__13mapENS2_6vectorENS2_12basic_stringIcNS2_11char_traitsIcEENS2_9allocatorIcEEEEbxydS8_NS0_14adl_serializerENS4_IhNS8_IhEEEEE10json_valueC1Eb, symObjAddr: 0x20490, symBinAddr: 0x26B60, symSize: 0x30 }
  - { offset: 0x136C28, size: 0x8, addend: 0x0, symName: __ZN8nlohmann16json_abi_v3_11_210basic_jsonINSt3__13mapENS2_6vectorENS2_12basic_stringIcNS2_11char_traitsIcEENS2_9allocatorIcEEEEbxydS8_NS0_14adl_serializerENS4_IhNS8_IhEEEEE10json_valueC1Ex, symObjAddr: 0x204C0, symBinAddr: 0x26B90, symSize: 0x30 }
  - { offset: 0x136C62, size: 0x8, addend: 0x0, symName: __ZN8nlohmann16json_abi_v3_11_210basic_jsonINSt3__13mapENS2_6vectorENS2_12basic_stringIcNS2_11char_traitsIcEENS2_9allocatorIcEEEEbxydS8_NS0_14adl_serializerENS4_IhNS8_IhEEEEE10json_valueC1Ey, symObjAddr: 0x204F0, symBinAddr: 0x26BC0, symSize: 0x30 }
  - { offset: 0x136C9C, size: 0x8, addend: 0x0, symName: __ZN8nlohmann16json_abi_v3_11_210basic_jsonINSt3__13mapENS2_6vectorENS2_12basic_stringIcNS2_11char_traitsIcEENS2_9allocatorIcEEEEbxydS8_NS0_14adl_serializerENS4_IhNS8_IhEEEEE10json_valueC1Ed, symObjAddr: 0x20520, symBinAddr: 0x26BF0, symSize: 0x30 }
  - { offset: 0x136CD6, size: 0x8, addend: 0x0, symName: __ZN8nlohmann16json_abi_v3_11_210basic_jsonINSt3__13mapENS2_6vectorENS2_12basic_stringIcNS2_11char_traitsIcEENS2_9allocatorIcEEEEbxydS8_NS0_14adl_serializerENS4_IhNS8_IhEEEEE10json_valueC1ERKNS0_27byte_container_with_subtypeISD_EE, symObjAddr: 0x20550, symBinAddr: 0x26C20, symSize: 0x30 }
  - { offset: 0x136D10, size: 0x8, addend: 0x0, symName: __ZN8nlohmann16json_abi_v3_11_210basic_jsonINSt3__13mapENS2_6vectorENS2_12basic_stringIcNS2_11char_traitsIcEENS2_9allocatorIcEEEEbxydS8_NS0_14adl_serializerENS4_IhNS8_IhEEEEE10json_valueC2ERKNS3_ISA_SE_NS2_4lessIvEENS8_INS2_4pairIKSA_SE_EEEEEE, symObjAddr: 0x20580, symBinAddr: 0x26C50, symSize: 0x40 }
  - { offset: 0x136D4A, size: 0x8, addend: 0x0, symName: __ZN8nlohmann16json_abi_v3_11_210basic_jsonINSt3__13mapENS2_6vectorENS2_12basic_stringIcNS2_11char_traitsIcEENS2_9allocatorIcEEEEbxydS8_NS0_14adl_serializerENS4_IhNS8_IhEEEEE6createINS3_ISA_SE_NS2_4lessIvEENS8_INS2_4pairIKSA_SE_EEEEEEJRKSM_EEEPT_DpOT0_, symObjAddr: 0x205C0, symBinAddr: 0x26C90, symSize: 0xF0 }
  - { offset: 0x136E49, size: 0x8, addend: 0x0, symName: __ZNSt3__110unique_ptrINS_3mapINS_12basic_stringIcNS_11char_traitsIcEENS_9allocatorIcEEEEN8nlohmann16json_abi_v3_11_210basic_jsonIS1_NS_6vectorES7_bxydS5_NS9_14adl_serializerENSB_IhNS5_IhEEEEEENS_4lessIvEENS5_INS_4pairIKS7_SF_EEEEEEZNSF_6createISM_JRKSM_EEEPT_DpOT0_EUlPSM_E_EC1B8de180100ILb1EvEESV_NS_16__dependent_typeINS_27__unique_ptr_deleter_sfinaeISW_EEXT_EE15__lval_ref_typeE, symObjAddr: 0x206B0, symBinAddr: 0x26D80, symSize: 0x30 }
  - { offset: 0x136E9E, size: 0x8, addend: 0x0, symName: __ZNSt3__116allocator_traitsINS_9allocatorINS_3mapINS_12basic_stringIcNS_11char_traitsIcEENS1_IcEEEEN8nlohmann16json_abi_v3_11_210basic_jsonIS2_NS_6vectorES7_bxydS1_NS9_14adl_serializerENSB_IhNS1_IhEEEEEENS_4lessIvEENS1_INS_4pairIKS7_SF_EEEEEEEEE9constructB8de180100ISM_JRKSM_EvEEvRSN_PT_DpOT0_, symObjAddr: 0x206E0, symBinAddr: 0x26DB0, symSize: 0x30 }
  - { offset: 0x136EFB, size: 0x8, addend: 0x0, symName: __ZNKSt3__110unique_ptrINS_3mapINS_12basic_stringIcNS_11char_traitsIcEENS_9allocatorIcEEEEN8nlohmann16json_abi_v3_11_210basic_jsonIS1_NS_6vectorES7_bxydS5_NS9_14adl_serializerENSB_IhNS5_IhEEEEEENS_4lessIvEENS5_INS_4pairIKS7_SF_EEEEEEZNSF_6createISM_JRKSM_EEEPT_DpOT0_EUlPSM_E_E3getB8de180100Ev, symObjAddr: 0x20710, symBinAddr: 0x26DE0, symSize: 0x20 }
  - { offset: 0x136F21, size: 0x8, addend: 0x0, symName: __ZNSt3__110unique_ptrINS_3mapINS_12basic_stringIcNS_11char_traitsIcEENS_9allocatorIcEEEEN8nlohmann16json_abi_v3_11_210basic_jsonIS1_NS_6vectorES7_bxydS5_NS9_14adl_serializerENSB_IhNS5_IhEEEEEENS_4lessIvEENS5_INS_4pairIKS7_SF_EEEEEEZNSF_6createISM_JRKSM_EEEPT_DpOT0_EUlPSM_E_E7releaseB8de180100Ev, symObjAddr: 0x20760, symBinAddr: 0x26E30, symSize: 0x40 }
  - { offset: 0x136F57, size: 0x8, addend: 0x0, symName: __ZNSt3__110unique_ptrINS_3mapINS_12basic_stringIcNS_11char_traitsIcEENS_9allocatorIcEEEEN8nlohmann16json_abi_v3_11_210basic_jsonIS1_NS_6vectorES7_bxydS5_NS9_14adl_serializerENSB_IhNS5_IhEEEEEENS_4lessIvEENS5_INS_4pairIKS7_SF_EEEEEEZNSF_6createISM_JRKSM_EEEPT_DpOT0_EUlPSM_E_ED1B8de180100Ev, symObjAddr: 0x207A0, symBinAddr: 0x26E70, symSize: 0x20 }
  - { offset: 0x136F81, size: 0x8, addend: 0x0, symName: __ZNSt3__110unique_ptrINS_3mapINS_12basic_stringIcNS_11char_traitsIcEENS_9allocatorIcEEEEN8nlohmann16json_abi_v3_11_210basic_jsonIS1_NS_6vectorES7_bxydS5_NS9_14adl_serializerENSB_IhNS5_IhEEEEEENS_4lessIvEENS5_INS_4pairIKS7_SF_EEEEEEZNSF_6createISM_JRKSM_EEEPT_DpOT0_EUlPSM_E_EC2B8de180100ILb1EvEESV_NS_16__dependent_typeINS_27__unique_ptr_deleter_sfinaeISW_EEXT_EE15__lval_ref_typeE, symObjAddr: 0x207C0, symBinAddr: 0x26E90, symSize: 0x40 }
  - { offset: 0x136FD6, size: 0x8, addend: 0x0, symName: __ZNSt3__117__compressed_pairIPNS_3mapINS_12basic_stringIcNS_11char_traitsIcEENS_9allocatorIcEEEEN8nlohmann16json_abi_v3_11_210basic_jsonIS1_NS_6vectorES7_bxydS5_NS9_14adl_serializerENSB_IhNS5_IhEEEEEENS_4lessIvEENS5_INS_4pairIKS7_SF_EEEEEEZNSF_6createISM_JRKSM_EEEPT_DpOT0_EUlSN_E_EC1B8de180100IRSN_RKSW_EEOSR_OT0_, symObjAddr: 0x20800, symBinAddr: 0x26ED0, symSize: 0x30 }
  - { offset: 0x137030, size: 0x8, addend: 0x0, symName: __ZNSt3__117__compressed_pairIPNS_3mapINS_12basic_stringIcNS_11char_traitsIcEENS_9allocatorIcEEEEN8nlohmann16json_abi_v3_11_210basic_jsonIS1_NS_6vectorES7_bxydS5_NS9_14adl_serializerENSB_IhNS5_IhEEEEEENS_4lessIvEENS5_INS_4pairIKS7_SF_EEEEEEZNSF_6createISM_JRKSM_EEEPT_DpOT0_EUlSN_E_EC2B8de180100IRSN_RKSW_EEOSR_OT0_, symObjAddr: 0x20830, symBinAddr: 0x26F00, symSize: 0x40 }
  - { offset: 0x13708A, size: 0x8, addend: 0x0, symName: __ZNSt3__122__compressed_pair_elemIZN8nlohmann16json_abi_v3_11_210basic_jsonINS_3mapENS_6vectorENS_12basic_stringIcNS_11char_traitsIcEENS_9allocatorIcEEEEbxydS9_NS2_14adl_serializerENS5_IhNS9_IhEEEEE6createINS4_ISB_SF_NS_4lessIvEENS9_INS_4pairIKSB_SF_EEEEEEJRKSN_EEEPT_DpOT0_EUlPSN_E_Li1ELb0EEC2B8de180100IRKSW_vEEOSQ_, symObjAddr: 0x20870, symBinAddr: 0x26F40, symSize: 0x20 }
  - { offset: 0x1370CE, size: 0x8, addend: 0x0, symName: __ZNSt3__19allocatorINS_3mapINS_12basic_stringIcNS_11char_traitsIcEENS0_IcEEEEN8nlohmann16json_abi_v3_11_210basic_jsonIS1_NS_6vectorES6_bxydS0_NS8_14adl_serializerENSA_IhNS0_IhEEEEEENS_4lessIvEENS0_INS_4pairIKS6_SE_EEEEEEE9constructB8de180100ISL_JRKSL_EEEvPT_DpOT0_, symObjAddr: 0x20890, symBinAddr: 0x26F60, symSize: 0x30 }
  - { offset: 0x137128, size: 0x8, addend: 0x0, symName: __ZNSt3__13mapINS_12basic_stringIcNS_11char_traitsIcEENS_9allocatorIcEEEEN8nlohmann16json_abi_v3_11_210basic_jsonIS0_NS_6vectorES6_bxydS4_NS8_14adl_serializerENSA_IhNS4_IhEEEEEENS_4lessIvEENS4_INS_4pairIKS6_SE_EEEEEC1B8de180100ERKSL_, symObjAddr: 0x208C0, symBinAddr: 0x26F90, symSize: 0x30 }
  - { offset: 0x137162, size: 0x8, addend: 0x0, symName: __ZNSt3__13mapINS_12basic_stringIcNS_11char_traitsIcEENS_9allocatorIcEEEEN8nlohmann16json_abi_v3_11_210basic_jsonIS0_NS_6vectorES6_bxydS4_NS8_14adl_serializerENSA_IhNS4_IhEEEEEENS_4lessIvEENS4_INS_4pairIKS6_SE_EEEEEC2B8de180100ERKSL_, symObjAddr: 0x208F0, symBinAddr: 0x26FC0, symSize: 0x80 }
  - { offset: 0x13719C, size: 0x8, addend: 0x0, symName: __ZNSt3__16__treeINS_12__value_typeINS_12basic_stringIcNS_11char_traitsIcEENS_9allocatorIcEEEEN8nlohmann16json_abi_v3_11_210basic_jsonINS_3mapENS_6vectorES7_bxydS5_NS9_14adl_serializerENSC_IhNS5_IhEEEEEEEENS_19__map_value_compareIS7_SH_NS_4lessIvEELb1EEENS5_ISH_EEEC1ERKSN_, symObjAddr: 0x20970, symBinAddr: 0x27040, symSize: 0x30 }
  - { offset: 0x1371D8, size: 0x8, addend: 0x0, symName: __ZNSt3__13mapINS_12basic_stringIcNS_11char_traitsIcEENS_9allocatorIcEEEEN8nlohmann16json_abi_v3_11_210basic_jsonIS0_NS_6vectorES6_bxydS4_NS8_14adl_serializerENSA_IhNS4_IhEEEEEENS_4lessIvEENS4_INS_4pairIKS6_SE_EEEEE6insertB8de180100INS_20__map_const_iteratorINS_21__tree_const_iteratorINS_12__value_typeIS6_SE_EEPNS_11__tree_nodeISQ_PvEElEEEEEEvT_SX_, symObjAddr: 0x209A0, symBinAddr: 0x27070, symSize: 0x90 }
  - { offset: 0x137246, size: 0x8, addend: 0x0, symName: __ZNSt3__16__treeINS_12__value_typeINS_12basic_stringIcNS_11char_traitsIcEENS_9allocatorIcEEEEN8nlohmann16json_abi_v3_11_210basic_jsonINS_3mapENS_6vectorES7_bxydS5_NS9_14adl_serializerENSC_IhNS5_IhEEEEEEEENS_19__map_value_compareIS7_SH_NS_4lessIvEELb1EEENS5_ISH_EEEC2ERKSN_, symObjAddr: 0x20A30, symBinAddr: 0x27100, symSize: 0xA0 }
  - { offset: 0x137282, size: 0x8, addend: 0x0, symName: __ZNSt3__116allocator_traitsINS_9allocatorINS_11__tree_nodeINS_12__value_typeINS_12basic_stringIcNS_11char_traitsIcEENS1_IcEEEEN8nlohmann16json_abi_v3_11_210basic_jsonINS_3mapENS_6vectorES8_bxydS1_NSA_14adl_serializerENSD_IhNS1_IhEEEEEEEEPvEEEEE37select_on_container_copy_constructionB8de180100ISL_vvEESL_RKSL_, symObjAddr: 0x20AD0, symBinAddr: 0x271A0, symSize: 0x10 }
  - { offset: 0x1372BA, size: 0x8, addend: 0x0, symName: __ZNSt3__117__compressed_pairINS_15__tree_end_nodeIPNS_16__tree_node_baseIPvEEEENS_9allocatorINS_11__tree_nodeINS_12__value_typeINS_12basic_stringIcNS_11char_traitsIcEENS7_IcEEEEN8nlohmann16json_abi_v3_11_210basic_jsonINS_3mapENS_6vectorESE_bxydS7_NSG_14adl_serializerENSJ_IhNS7_IhEEEEEEEES3_EEEEEC1B8de180100INS_18__default_init_tagESQ_EEOT_OT0_, symObjAddr: 0x20AE0, symBinAddr: 0x271B0, symSize: 0x30 }
  - { offset: 0x137314, size: 0x8, addend: 0x0, symName: __ZNKSt3__16__treeINS_12__value_typeINS_12basic_stringIcNS_11char_traitsIcEENS_9allocatorIcEEEEN8nlohmann16json_abi_v3_11_210basic_jsonINS_3mapENS_6vectorES7_bxydS5_NS9_14adl_serializerENSC_IhNS5_IhEEEEEEEENS_19__map_value_compareIS7_SH_NS_4lessIvEELb1EEENS5_ISH_EEE10value_compB8de180100Ev, symObjAddr: 0x20B10, symBinAddr: 0x271E0, symSize: 0x20 }
  - { offset: 0x13733A, size: 0x8, addend: 0x0, symName: __ZNSt3__117__compressed_pairINS_15__tree_end_nodeIPNS_16__tree_node_baseIPvEEEENS_9allocatorINS_11__tree_nodeINS_12__value_typeINS_12basic_stringIcNS_11char_traitsIcEENS7_IcEEEEN8nlohmann16json_abi_v3_11_210basic_jsonINS_3mapENS_6vectorESE_bxydS7_NSG_14adl_serializerENSJ_IhNS7_IhEEEEEEEES3_EEEEEC2B8de180100INS_18__default_init_tagESQ_EEOT_OT0_, symObjAddr: 0x20B30, symBinAddr: 0x27200, symSize: 0x40 }
  - { offset: 0x137394, size: 0x8, addend: 0x0, symName: __ZNSt3__122__compressed_pair_elemINS_15__tree_end_nodeIPNS_16__tree_node_baseIPvEEEELi0ELb0EEC2B8de180100ENS_18__default_init_tagE, symObjAddr: 0x20B70, symBinAddr: 0x27240, symSize: 0x20 }
  - { offset: 0x1373C9, size: 0x8, addend: 0x0, symName: __ZNSt3__122__compressed_pair_elemINS_9allocatorINS_11__tree_nodeINS_12__value_typeINS_12basic_stringIcNS_11char_traitsIcEENS1_IcEEEEN8nlohmann16json_abi_v3_11_210basic_jsonINS_3mapENS_6vectorES8_bxydS1_NSA_14adl_serializerENSD_IhNS1_IhEEEEEEEEPvEEEELi1ELb1EEC2B8de180100ISL_vEEOT_, symObjAddr: 0x20B90, symBinAddr: 0x27260, symSize: 0x10 }
  - { offset: 0x13740D, size: 0x8, addend: 0x0, symName: __ZNKSt3__117__compressed_pairImNS_19__map_value_compareINS_12basic_stringIcNS_11char_traitsIcEENS_9allocatorIcEEEENS_12__value_typeIS7_N8nlohmann16json_abi_v3_11_210basic_jsonINS_3mapENS_6vectorES7_bxydS5_NSA_14adl_serializerENSD_IhNS5_IhEEEEEEEENS_4lessIvEELb1EEEE6secondB8de180100Ev, symObjAddr: 0x20BA0, symBinAddr: 0x27270, symSize: 0x20 }
  - { offset: 0x137433, size: 0x8, addend: 0x0, symName: __ZNKSt3__122__compressed_pair_elemINS_19__map_value_compareINS_12basic_stringIcNS_11char_traitsIcEENS_9allocatorIcEEEENS_12__value_typeIS7_N8nlohmann16json_abi_v3_11_210basic_jsonINS_3mapENS_6vectorES7_bxydS5_NSA_14adl_serializerENSD_IhNS5_IhEEEEEEEENS_4lessIvEELb1EEELi1ELb1EE5__getB8de180100Ev, symObjAddr: 0x20BC0, symBinAddr: 0x27290, symSize: 0x10 }
  - { offset: 0x137459, size: 0x8, addend: 0x0, symName: __ZNSt3__13mapINS_12basic_stringIcNS_11char_traitsIcEENS_9allocatorIcEEEEN8nlohmann16json_abi_v3_11_210basic_jsonIS0_NS_6vectorES6_bxydS4_NS8_14adl_serializerENSA_IhNS4_IhEEEEEENS_4lessIvEENS4_INS_4pairIKS6_SE_EEEEE6insertB8de180100ENS_20__map_const_iteratorINS_21__tree_const_iteratorINS_12__value_typeIS6_SE_EEPNS_11__tree_nodeISP_PvEElEEEERKSJ_, symObjAddr: 0x20BD0, symBinAddr: 0x272A0, symSize: 0x50 }
  - { offset: 0x13749F, size: 0x8, addend: 0x0, symName: __ZNKSt3__120__map_const_iteratorINS_21__tree_const_iteratorINS_12__value_typeINS_12basic_stringIcNS_11char_traitsIcEENS_9allocatorIcEEEEN8nlohmann16json_abi_v3_11_210basic_jsonINS_3mapENS_6vectorES8_bxydS6_NSA_14adl_serializerENSD_IhNS6_IhEEEEEEEEPNS_11__tree_nodeISI_PvEElEEEdeB8de180100Ev, symObjAddr: 0x20C20, symBinAddr: 0x272F0, symSize: 0x30 }
  - { offset: 0x1374C5, size: 0x8, addend: 0x0, symName: __ZNSt3__16__treeINS_12__value_typeINS_12basic_stringIcNS_11char_traitsIcEENS_9allocatorIcEEEEN8nlohmann16json_abi_v3_11_210basic_jsonINS_3mapENS_6vectorES7_bxydS5_NS9_14adl_serializerENSC_IhNS5_IhEEEEEEEENS_19__map_value_compareIS7_SH_NS_4lessIvEELb1EEENS5_ISH_EEE15__insert_uniqueB8de180100ENS_21__tree_const_iteratorISH_PNS_11__tree_nodeISH_PvEElEERKNS_4pairIKS7_SG_EE, symObjAddr: 0x20C50, symBinAddr: 0x27320, symSize: 0x60 }
  - { offset: 0x13750B, size: 0x8, addend: 0x0, symName: __ZNSt3__16__treeINS_12__value_typeINS_12basic_stringIcNS_11char_traitsIcEENS_9allocatorIcEEEEN8nlohmann16json_abi_v3_11_210basic_jsonINS_3mapENS_6vectorES7_bxydS5_NS9_14adl_serializerENSC_IhNS5_IhEEEEEEEENS_19__map_value_compareIS7_SH_NS_4lessIvEELb1EEENS5_ISH_EEE30__emplace_hint_unique_key_argsIS7_JRKNS_4pairIKS7_SG_EEEEENSP_INS_15__tree_iteratorISH_PNS_11__tree_nodeISH_PvEElEEbEENS_21__tree_const_iteratorISH_SY_lEERKT_DpOT0_, symObjAddr: 0x20CB0, symBinAddr: 0x27380, symSize: 0x110 }
  - { offset: 0x1375EC, size: 0x8, addend: 0x0, symName: __ZNSt3__122__tree_key_value_typesINS_12__value_typeINS_12basic_stringIcNS_11char_traitsIcEENS_9allocatorIcEEEEN8nlohmann16json_abi_v3_11_210basic_jsonINS_3mapENS_6vectorES7_bxydS5_NS9_14adl_serializerENSC_IhNS5_IhEEEEEEEEE9__get_keyB8de180100IKNS_4pairIKS7_SG_EELi0EEERSL_RT_, symObjAddr: 0x20DC0, symBinAddr: 0x27490, symSize: 0x10 }
  - { offset: 0x137621, size: 0x8, addend: 0x0, symName: __ZNSt3__16__treeINS_12__value_typeINS_12basic_stringIcNS_11char_traitsIcEENS_9allocatorIcEEEEN8nlohmann16json_abi_v3_11_210basic_jsonINS_3mapENS_6vectorES7_bxydS5_NS9_14adl_serializerENSC_IhNS5_IhEEEEEEEENS_19__map_value_compareIS7_SH_NS_4lessIvEELb1EEENS5_ISH_EEE12__find_equalIS7_EERPNS_16__tree_node_baseIPvEENS_21__tree_const_iteratorISH_PNS_11__tree_nodeISH_SQ_EElEERPNS_15__tree_end_nodeISS_EEST_RKT_, symObjAddr: 0x20DD0, symBinAddr: 0x274A0, symSize: 0x330 }
  - { offset: 0x1376D2, size: 0x8, addend: 0x0, symName: __ZNSt3__16__treeINS_12__value_typeINS_12basic_stringIcNS_11char_traitsIcEENS_9allocatorIcEEEEN8nlohmann16json_abi_v3_11_210basic_jsonINS_3mapENS_6vectorES7_bxydS5_NS9_14adl_serializerENSC_IhNS5_IhEEEEEEEENS_19__map_value_compareIS7_SH_NS_4lessIvEELb1EEENS5_ISH_EEE16__construct_nodeIJRKNS_4pairIKS7_SG_EEEEENS_10unique_ptrINS_11__tree_nodeISH_PvEENS_22__tree_node_destructorINS5_ISX_EEEEEEDpOT_, symObjAddr: 0x21100, symBinAddr: 0x277D0, symSize: 0xF0 }
  - { offset: 0x137738, size: 0x8, addend: 0x0, symName: __ZNSt3__16__treeINS_12__value_typeINS_12basic_stringIcNS_11char_traitsIcEENS_9allocatorIcEEEEN8nlohmann16json_abi_v3_11_210basic_jsonINS_3mapENS_6vectorES7_bxydS5_NS9_14adl_serializerENSC_IhNS5_IhEEEEEEEENS_19__map_value_compareIS7_SH_NS_4lessIvEELb1EEENS5_ISH_EEE16__insert_node_atEPNS_15__tree_end_nodeIPNS_16__tree_node_baseIPvEEEERSS_SS_, symObjAddr: 0x211F0, symBinAddr: 0x278C0, symSize: 0xC0 }
  - { offset: 0x137790, size: 0x8, addend: 0x0, symName: __ZNKSt3__110unique_ptrINS_11__tree_nodeINS_12__value_typeINS_12basic_stringIcNS_11char_traitsIcEENS_9allocatorIcEEEEN8nlohmann16json_abi_v3_11_210basic_jsonINS_3mapENS_6vectorES8_bxydS6_NSA_14adl_serializerENSD_IhNS6_IhEEEEEEEEPvEENS_22__tree_node_destructorINS6_ISK_EEEEE3getB8de180100Ev, symObjAddr: 0x212B0, symBinAddr: 0x27980, symSize: 0x20 }
  - { offset: 0x1377B6, size: 0x8, addend: 0x0, symName: __ZNSt3__110unique_ptrINS_11__tree_nodeINS_12__value_typeINS_12basic_stringIcNS_11char_traitsIcEENS_9allocatorIcEEEEN8nlohmann16json_abi_v3_11_210basic_jsonINS_3mapENS_6vectorES8_bxydS6_NSA_14adl_serializerENSD_IhNS6_IhEEEEEEEEPvEENS_22__tree_node_destructorINS6_ISK_EEEEE7releaseB8de180100Ev, symObjAddr: 0x212D0, symBinAddr: 0x279A0, symSize: 0x40 }
  - { offset: 0x1377EC, size: 0x8, addend: 0x0, symName: __ZNSt3__110unique_ptrINS_11__tree_nodeINS_12__value_typeINS_12basic_stringIcNS_11char_traitsIcEENS_9allocatorIcEEEEN8nlohmann16json_abi_v3_11_210basic_jsonINS_3mapENS_6vectorES8_bxydS6_NSA_14adl_serializerENSD_IhNS6_IhEEEEEEEEPvEENS_22__tree_node_destructorINS6_ISK_EEEEED1B8de180100Ev, symObjAddr: 0x21310, symBinAddr: 0x279E0, symSize: 0x20 }
  - { offset: 0x137816, size: 0x8, addend: 0x0, symName: __ZNSt3__115__tree_iteratorINS_12__value_typeINS_12basic_stringIcNS_11char_traitsIcEENS_9allocatorIcEEEEN8nlohmann16json_abi_v3_11_210basic_jsonINS_3mapENS_6vectorES7_bxydS5_NS9_14adl_serializerENSC_IhNS5_IhEEEEEEEEPNS_11__tree_nodeISH_PvEElEC1B8de180100ESL_, symObjAddr: 0x21330, symBinAddr: 0x27A00, symSize: 0x30 }
  - { offset: 0x137856, size: 0x8, addend: 0x0, symName: __ZNSt3__14pairINS_15__tree_iteratorINS_12__value_typeINS_12basic_stringIcNS_11char_traitsIcEENS_9allocatorIcEEEEN8nlohmann16json_abi_v3_11_210basic_jsonINS_3mapENS_6vectorES8_bxydS6_NSA_14adl_serializerENSD_IhNS6_IhEEEEEEEEPNS_11__tree_nodeISI_PvEElEEbEC1B8de180100ISN_RbLi0EEEOT_OT0_, symObjAddr: 0x21360, symBinAddr: 0x27A30, symSize: 0x30 }
  - { offset: 0x1378B7, size: 0x8, addend: 0x0, symName: __ZNSt3__121__tree_const_iteratorINS_12__value_typeINS_12basic_stringIcNS_11char_traitsIcEENS_9allocatorIcEEEEN8nlohmann16json_abi_v3_11_210basic_jsonINS_3mapENS_6vectorES7_bxydS5_NS9_14adl_serializerENSC_IhNS5_IhEEEEEEEEPNS_11__tree_nodeISH_PvEElEC1B8de180100ENS_15__tree_iteratorISH_SL_lEE, symObjAddr: 0x21390, symBinAddr: 0x27A60, symSize: 0x30 }
  - { offset: 0x1378F1, size: 0x8, addend: 0x0, symName: __ZNSt3__16__treeINS_12__value_typeINS_12basic_stringIcNS_11char_traitsIcEENS_9allocatorIcEEEEN8nlohmann16json_abi_v3_11_210basic_jsonINS_3mapENS_6vectorES7_bxydS5_NS9_14adl_serializerENSC_IhNS5_IhEEEEEEEENS_19__map_value_compareIS7_SH_NS_4lessIvEELb1EEENS5_ISH_EEE10value_compB8de180100Ev, symObjAddr: 0x213C0, symBinAddr: 0x27A90, symSize: 0x20 }
  - { offset: 0x137917, size: 0x8, addend: 0x0, symName: __ZNKSt3__119__map_value_compareINS_12basic_stringIcNS_11char_traitsIcEENS_9allocatorIcEEEENS_12__value_typeIS6_N8nlohmann16json_abi_v3_11_210basic_jsonINS_3mapENS_6vectorES6_bxydS4_NS9_14adl_serializerENSC_IhNS4_IhEEEEEEEENS_4lessIvEELb1EEclB8de180100ERKS6_RKSH_, symObjAddr: 0x213E0, symBinAddr: 0x27AB0, symSize: 0x50 }
  - { offset: 0x13795D, size: 0x8, addend: 0x0, symName: __ZNKSt3__121__tree_const_iteratorINS_12__value_typeINS_12basic_stringIcNS_11char_traitsIcEENS_9allocatorIcEEEEN8nlohmann16json_abi_v3_11_210basic_jsonINS_3mapENS_6vectorES7_bxydS5_NS9_14adl_serializerENSC_IhNS5_IhEEEEEEEEPNS_11__tree_nodeISH_PvEElEdeB8de180100Ev, symObjAddr: 0x21430, symBinAddr: 0x27B00, symSize: 0x20 }
  - { offset: 0x137983, size: 0x8, addend: 0x0, symName: __ZNKSt3__119__map_value_compareINS_12basic_stringIcNS_11char_traitsIcEENS_9allocatorIcEEEENS_12__value_typeIS6_N8nlohmann16json_abi_v3_11_210basic_jsonINS_3mapENS_6vectorES6_bxydS4_NS9_14adl_serializerENSC_IhNS4_IhEEEEEEEENS_4lessIvEELb1EEclB8de180100ERKSH_RKS6_, symObjAddr: 0x21450, symBinAddr: 0x27B20, symSize: 0x40 }
  - { offset: 0x1379C9, size: 0x8, addend: 0x0, symName: __ZNSt3__16__treeINS_12__value_typeINS_12basic_stringIcNS_11char_traitsIcEENS_9allocatorIcEEEEN8nlohmann16json_abi_v3_11_210basic_jsonINS_3mapENS_6vectorES7_bxydS5_NS9_14adl_serializerENSC_IhNS5_IhEEEEEEEENS_19__map_value_compareIS7_SH_NS_4lessIvEELb1EEENS5_ISH_EEE12__find_equalIS7_EERPNS_16__tree_node_baseIPvEERPNS_15__tree_end_nodeISS_EERKT_, symObjAddr: 0x21490, symBinAddr: 0x27B60, symSize: 0x180 }
  - { offset: 0x137A3A, size: 0x8, addend: 0x0, symName: __ZNSt3__121__tree_const_iteratorINS_12__value_typeINS_12basic_stringIcNS_11char_traitsIcEENS_9allocatorIcEEEEN8nlohmann16json_abi_v3_11_210basic_jsonINS_3mapENS_6vectorES7_bxydS5_NS9_14adl_serializerENSC_IhNS5_IhEEEEEEEEPNS_11__tree_nodeISH_PvEElEC2B8de180100ENS_15__tree_iteratorISH_SL_lEE, symObjAddr: 0x21680, symBinAddr: 0x27D50, symSize: 0x20 }
  - { offset: 0x137A74, size: 0x8, addend: 0x0, symName: __ZNSt3__117__compressed_pairImNS_19__map_value_compareINS_12basic_stringIcNS_11char_traitsIcEENS_9allocatorIcEEEENS_12__value_typeIS7_N8nlohmann16json_abi_v3_11_210basic_jsonINS_3mapENS_6vectorES7_bxydS5_NSA_14adl_serializerENSD_IhNS5_IhEEEEEEEENS_4lessIvEELb1EEEE6secondB8de180100Ev, symObjAddr: 0x216A0, symBinAddr: 0x27D70, symSize: 0x20 }
  - { offset: 0x137A9A, size: 0x8, addend: 0x0, symName: __ZNSt3__122__compressed_pair_elemINS_19__map_value_compareINS_12basic_stringIcNS_11char_traitsIcEENS_9allocatorIcEEEENS_12__value_typeIS7_N8nlohmann16json_abi_v3_11_210basic_jsonINS_3mapENS_6vectorES7_bxydS5_NSA_14adl_serializerENSD_IhNS5_IhEEEEEEEENS_4lessIvEELb1EEELi1ELb1EE5__getB8de180100Ev, symObjAddr: 0x216C0, symBinAddr: 0x27D90, symSize: 0x10 }
  - { offset: 0x137AC5, size: 0x8, addend: 0x0, symName: __ZNKSt3__14lessIvEclB8de180100IRKNS_12basic_stringIcNS_11char_traitsIcEENS_9allocatorIcEEEESA_EEDTltclsr3stdE7forwardIT_Efp_Eclsr3stdE7forwardIT0_Efp0_EEOSB_OSC_, symObjAddr: 0x216D0, symBinAddr: 0x27DA0, symSize: 0x30 }
  - { offset: 0x137B1D, size: 0x8, addend: 0x0, symName: __ZNKSt3__112basic_stringIcNS_11char_traitsIcEENS_9allocatorIcEEE7compareB8de180100ERKS5_, symObjAddr: 0x21730, symBinAddr: 0x27E00, symSize: 0x40 }
  - { offset: 0x137B55, size: 0x8, addend: 0x0, symName: __ZNKSt3__112basic_stringIcNS_11char_traitsIcEENS_9allocatorIcEEE7compareINS_17basic_string_viewIcS2_EELi0EEEiRKT_, symObjAddr: 0x21770, symBinAddr: 0x27E40, symSize: 0xF0 }
  - { offset: 0x137BDE, size: 0x8, addend: 0x0, symName: __ZNKSt3__112basic_stringIcNS_11char_traitsIcEENS_9allocatorIcEEEcvNS_17basic_string_viewIcS2_EEB8de180100Ev, symObjAddr: 0x21860, symBinAddr: 0x27F30, symSize: 0x50 }
  - { offset: 0x137C04, size: 0x8, addend: 0x0, symName: __ZNKSt3__117basic_string_viewIcNS_11char_traitsIcEEE4sizeB8de180100Ev, symObjAddr: 0x218B0, symBinAddr: 0x27F80, symSize: 0x20 }
  - { offset: 0x137C2A, size: 0x8, addend: 0x0, symName: __ZNSt3__111char_traitsIcE7compareB8de180100EPKcS3_m, symObjAddr: 0x218D0, symBinAddr: 0x27FA0, symSize: 0x30 }
  - { offset: 0x137C6C, size: 0x8, addend: 0x0, symName: __ZNKSt3__117basic_string_viewIcNS_11char_traitsIcEEE4dataB8de180100Ev, symObjAddr: 0x21900, symBinAddr: 0x27FD0, symSize: 0x20 }
  - { offset: 0x137C92, size: 0x8, addend: 0x0, symName: __ZNSt3__117basic_string_viewIcNS_11char_traitsIcEEEC1B8de180100EPKcm, symObjAddr: 0x21920, symBinAddr: 0x27FF0, symSize: 0x30 }
  - { offset: 0x137CDC, size: 0x8, addend: 0x0, symName: __ZNSt3__117basic_string_viewIcNS_11char_traitsIcEEEC2B8de180100EPKcm, symObjAddr: 0x21950, symBinAddr: 0x28020, symSize: 0x90 }
  - { offset: 0x137D26, size: 0x8, addend: 0x0, symName: __ZNKSt3__16__treeINS_12__value_typeINS_12basic_stringIcNS_11char_traitsIcEENS_9allocatorIcEEEEN8nlohmann16json_abi_v3_11_210basic_jsonINS_3mapENS_6vectorES7_bxydS5_NS9_14adl_serializerENSC_IhNS5_IhEEEEEEEENS_19__map_value_compareIS7_SH_NS_4lessIvEELb1EEENS5_ISH_EEE10__root_ptrB8de180100Ev, symObjAddr: 0x219E0, symBinAddr: 0x280B0, symSize: 0x20 }
  - { offset: 0x137D4C, size: 0x8, addend: 0x0, symName: __ZNSt3__116allocator_traitsINS_9allocatorINS_11__tree_nodeINS_12__value_typeINS_12basic_stringIcNS_11char_traitsIcEENS1_IcEEEEN8nlohmann16json_abi_v3_11_210basic_jsonINS_3mapENS_6vectorES8_bxydS1_NSA_14adl_serializerENSD_IhNS1_IhEEEEEEEEPvEEEEE8allocateB8de180100ERSL_m, symObjAddr: 0x21AF0, symBinAddr: 0x281C0, symSize: 0x30 }
  - { offset: 0x137D81, size: 0x8, addend: 0x0, symName: __ZNSt3__122__tree_node_destructorINS_9allocatorINS_11__tree_nodeINS_12__value_typeINS_12basic_stringIcNS_11char_traitsIcEENS1_IcEEEEN8nlohmann16json_abi_v3_11_210basic_jsonINS_3mapENS_6vectorES8_bxydS1_NSA_14adl_serializerENSD_IhNS1_IhEEEEEEEEPvEEEEEC1B8de180100ERSL_b, symObjAddr: 0x21B20, symBinAddr: 0x281F0, symSize: 0x40 }
  - { offset: 0x137DD1, size: 0x8, addend: 0x0, symName: __ZNSt3__110unique_ptrINS_11__tree_nodeINS_12__value_typeINS_12basic_stringIcNS_11char_traitsIcEENS_9allocatorIcEEEEN8nlohmann16json_abi_v3_11_210basic_jsonINS_3mapENS_6vectorES8_bxydS6_NSA_14adl_serializerENSD_IhNS6_IhEEEEEEEEPvEENS_22__tree_node_destructorINS6_ISK_EEEEEC1B8de180100ILb1EvEEPSK_NS_16__dependent_typeINS_27__unique_ptr_deleter_sfinaeISN_EEXT_EE20__good_rval_ref_typeE, symObjAddr: 0x21B60, symBinAddr: 0x28230, symSize: 0x30 }
  - { offset: 0x137E26, size: 0x8, addend: 0x0, symName: __ZNSt3__116allocator_traitsINS_9allocatorINS_11__tree_nodeINS_12__value_typeINS_12basic_stringIcNS_11char_traitsIcEENS1_IcEEEEN8nlohmann16json_abi_v3_11_210basic_jsonINS_3mapENS_6vectorES8_bxydS1_NSA_14adl_serializerENSD_IhNS1_IhEEEEEEEEPvEEEEE9constructB8de180100INS_4pairIKS8_SH_EEJRKSQ_EvEEvRSL_PT_DpOT0_, symObjAddr: 0x21B90, symBinAddr: 0x28260, symSize: 0x30 }
  - { offset: 0x137E83, size: 0x8, addend: 0x0, symName: __ZNKSt3__110unique_ptrINS_11__tree_nodeINS_12__value_typeINS_12basic_stringIcNS_11char_traitsIcEENS_9allocatorIcEEEEN8nlohmann16json_abi_v3_11_210basic_jsonINS_3mapENS_6vectorES8_bxydS6_NSA_14adl_serializerENSD_IhNS6_IhEEEEEEEEPvEENS_22__tree_node_destructorINS6_ISK_EEEEEptB8de180100Ev, symObjAddr: 0x21BC0, symBinAddr: 0x28290, symSize: 0x20 }
  - { offset: 0x137EA9, size: 0x8, addend: 0x0, symName: __ZNSt3__110unique_ptrINS_11__tree_nodeINS_12__value_typeINS_12basic_stringIcNS_11char_traitsIcEENS_9allocatorIcEEEEN8nlohmann16json_abi_v3_11_210basic_jsonINS_3mapENS_6vectorES8_bxydS6_NSA_14adl_serializerENSD_IhNS6_IhEEEEEEEEPvEENS_22__tree_node_destructorINS6_ISK_EEEEE11get_deleterB8de180100Ev, symObjAddr: 0x21BE0, symBinAddr: 0x282B0, symSize: 0x20 }
  - { offset: 0x137ECF, size: 0x8, addend: 0x0, symName: __ZNSt3__19allocatorINS_11__tree_nodeINS_12__value_typeINS_12basic_stringIcNS_11char_traitsIcEENS0_IcEEEEN8nlohmann16json_abi_v3_11_210basic_jsonINS_3mapENS_6vectorES7_bxydS0_NS9_14adl_serializerENSC_IhNS0_IhEEEEEEEEPvEEE8allocateB8de180100Em, symObjAddr: 0x21C00, symBinAddr: 0x282D0, symSize: 0x50 }
  - { offset: 0x137F04, size: 0x8, addend: 0x0, symName: __ZNSt3__122__tree_node_destructorINS_9allocatorINS_11__tree_nodeINS_12__value_typeINS_12basic_stringIcNS_11char_traitsIcEENS1_IcEEEEN8nlohmann16json_abi_v3_11_210basic_jsonINS_3mapENS_6vectorES8_bxydS1_NSA_14adl_serializerENSD_IhNS1_IhEEEEEEEEPvEEEEEC2B8de180100ERSL_b, symObjAddr: 0x21C50, symBinAddr: 0x28320, symSize: 0x30 }
  - { offset: 0x137F4E, size: 0x8, addend: 0x0, symName: __ZNSt3__110unique_ptrINS_11__tree_nodeINS_12__value_typeINS_12basic_stringIcNS_11char_traitsIcEENS_9allocatorIcEEEEN8nlohmann16json_abi_v3_11_210basic_jsonINS_3mapENS_6vectorES8_bxydS6_NSA_14adl_serializerENSD_IhNS6_IhEEEEEEEEPvEENS_22__tree_node_destructorINS6_ISK_EEEEEC2B8de180100ILb1EvEEPSK_NS_16__dependent_typeINS_27__unique_ptr_deleter_sfinaeISN_EEXT_EE20__good_rval_ref_typeE, symObjAddr: 0x21C80, symBinAddr: 0x28350, symSize: 0x40 }
  - { offset: 0x137FA3, size: 0x8, addend: 0x0, symName: __ZNSt3__117__compressed_pairIPNS_11__tree_nodeINS_12__value_typeINS_12basic_stringIcNS_11char_traitsIcEENS_9allocatorIcEEEEN8nlohmann16json_abi_v3_11_210basic_jsonINS_3mapENS_6vectorES8_bxydS6_NSA_14adl_serializerENSD_IhNS6_IhEEEEEEEEPvEENS_22__tree_node_destructorINS6_ISK_EEEEEC1B8de180100IRSL_SO_EEOT_OT0_, symObjAddr: 0x21CC0, symBinAddr: 0x28390, symSize: 0x30 }
  - { offset: 0x137FFD, size: 0x8, addend: 0x0, symName: __ZNSt3__117__compressed_pairIPNS_11__tree_nodeINS_12__value_typeINS_12basic_stringIcNS_11char_traitsIcEENS_9allocatorIcEEEEN8nlohmann16json_abi_v3_11_210basic_jsonINS_3mapENS_6vectorES8_bxydS6_NSA_14adl_serializerENSD_IhNS6_IhEEEEEEEEPvEENS_22__tree_node_destructorINS6_ISK_EEEEEC2B8de180100IRSL_SO_EEOT_OT0_, symObjAddr: 0x21CF0, symBinAddr: 0x283C0, symSize: 0x40 }
  - { offset: 0x138057, size: 0x8, addend: 0x0, symName: __ZNSt3__122__compressed_pair_elemIPNS_11__tree_nodeINS_12__value_typeINS_12basic_stringIcNS_11char_traitsIcEENS_9allocatorIcEEEEN8nlohmann16json_abi_v3_11_210basic_jsonINS_3mapENS_6vectorES8_bxydS6_NSA_14adl_serializerENSD_IhNS6_IhEEEEEEEEPvEELi0ELb0EEC2B8de180100IRSL_vEEOT_, symObjAddr: 0x21D30, symBinAddr: 0x28400, symSize: 0x20 }
  - { offset: 0x13809B, size: 0x8, addend: 0x0, symName: __ZNSt3__122__compressed_pair_elemINS_22__tree_node_destructorINS_9allocatorINS_11__tree_nodeINS_12__value_typeINS_12basic_stringIcNS_11char_traitsIcEENS2_IcEEEEN8nlohmann16json_abi_v3_11_210basic_jsonINS_3mapENS_6vectorES9_bxydS2_NSB_14adl_serializerENSE_IhNS2_IhEEEEEEEEPvEEEEEELi1ELb0EEC2B8de180100ISN_vEEOT_, symObjAddr: 0x21D50, symBinAddr: 0x28420, symSize: 0x30 }
  - { offset: 0x1380DF, size: 0x8, addend: 0x0, symName: __ZNSt3__19allocatorINS_11__tree_nodeINS_12__value_typeINS_12basic_stringIcNS_11char_traitsIcEENS0_IcEEEEN8nlohmann16json_abi_v3_11_210basic_jsonINS_3mapENS_6vectorES7_bxydS0_NS9_14adl_serializerENSC_IhNS0_IhEEEEEEEEPvEEE9constructB8de180100INS_4pairIKS7_SG_EEJRKSO_EEEvPT_DpOT0_, symObjAddr: 0x21D80, symBinAddr: 0x28450, symSize: 0x30 }
  - { offset: 0x138139, size: 0x8, addend: 0x0, symName: __ZNSt3__14pairIKNS_12basic_stringIcNS_11char_traitsIcEENS_9allocatorIcEEEEN8nlohmann16json_abi_v3_11_210basic_jsonINS_3mapENS_6vectorES6_bxydS4_NS9_14adl_serializerENSC_IhNS4_IhEEEEEEEC1B8de180100ERKSH_, symObjAddr: 0x21DB0, symBinAddr: 0x28480, symSize: 0x30 }
  - { offset: 0x13816E, size: 0x8, addend: 0x0, symName: __ZNSt3__14pairIKNS_12basic_stringIcNS_11char_traitsIcEENS_9allocatorIcEEEEN8nlohmann16json_abi_v3_11_210basic_jsonINS_3mapENS_6vectorES6_bxydS4_NS9_14adl_serializerENSC_IhNS4_IhEEEEEEEC2B8de180100ERKSH_, symObjAddr: 0x21DE0, symBinAddr: 0x284B0, symSize: 0x60 }
  - { offset: 0x1381A3, size: 0x8, addend: 0x0, symName: __ZNKSt3__117__compressed_pairIPNS_11__tree_nodeINS_12__value_typeINS_12basic_stringIcNS_11char_traitsIcEENS_9allocatorIcEEEEN8nlohmann16json_abi_v3_11_210basic_jsonINS_3mapENS_6vectorES8_bxydS6_NSA_14adl_serializerENSD_IhNS6_IhEEEEEEEEPvEENS_22__tree_node_destructorINS6_ISK_EEEEE5firstB8de180100Ev, symObjAddr: 0x21E40, symBinAddr: 0x28510, symSize: 0x20 }
  - { offset: 0x1381C9, size: 0x8, addend: 0x0, symName: __ZNKSt3__122__compressed_pair_elemIPNS_11__tree_nodeINS_12__value_typeINS_12basic_stringIcNS_11char_traitsIcEENS_9allocatorIcEEEEN8nlohmann16json_abi_v3_11_210basic_jsonINS_3mapENS_6vectorES8_bxydS6_NSA_14adl_serializerENSD_IhNS6_IhEEEEEEEEPvEELi0ELb0EE5__getB8de180100Ev, symObjAddr: 0x21E60, symBinAddr: 0x28530, symSize: 0x10 }
  - { offset: 0x1381EF, size: 0x8, addend: 0x0, symName: __ZNSt3__117__compressed_pairIPNS_11__tree_nodeINS_12__value_typeINS_12basic_stringIcNS_11char_traitsIcEENS_9allocatorIcEEEEN8nlohmann16json_abi_v3_11_210basic_jsonINS_3mapENS_6vectorES8_bxydS6_NSA_14adl_serializerENSD_IhNS6_IhEEEEEEEEPvEENS_22__tree_node_destructorINS6_ISK_EEEEE6secondB8de180100Ev, symObjAddr: 0x21E70, symBinAddr: 0x28540, symSize: 0x20 }
  - { offset: 0x138215, size: 0x8, addend: 0x0, symName: __ZNSt3__122__compressed_pair_elemINS_22__tree_node_destructorINS_9allocatorINS_11__tree_nodeINS_12__value_typeINS_12basic_stringIcNS_11char_traitsIcEENS2_IcEEEEN8nlohmann16json_abi_v3_11_210basic_jsonINS_3mapENS_6vectorES9_bxydS2_NSB_14adl_serializerENSE_IhNS2_IhEEEEEEEEPvEEEEEELi1ELb0EE5__getB8de180100Ev, symObjAddr: 0x21E90, symBinAddr: 0x28560, symSize: 0x10 }
  - { offset: 0x13823B, size: 0x8, addend: 0x0, symName: __ZNSt3__116__tree_node_baseIPvE12__set_parentB8de180100EPS2_, symObjAddr: 0x222F0, symBinAddr: 0x289C0, symSize: 0x20 }
  - { offset: 0x138271, size: 0x8, addend: 0x0, symName: __ZNSt3__117__compressed_pairIPNS_11__tree_nodeINS_12__value_typeINS_12basic_stringIcNS_11char_traitsIcEENS_9allocatorIcEEEEN8nlohmann16json_abi_v3_11_210basic_jsonINS_3mapENS_6vectorES8_bxydS6_NSA_14adl_serializerENSD_IhNS6_IhEEEEEEEEPvEENS_22__tree_node_destructorINS6_ISK_EEEEE5firstB8de180100Ev, symObjAddr: 0x22310, symBinAddr: 0x289E0, symSize: 0x20 }
  - { offset: 0x138297, size: 0x8, addend: 0x0, symName: __ZNSt3__122__compressed_pair_elemIPNS_11__tree_nodeINS_12__value_typeINS_12basic_stringIcNS_11char_traitsIcEENS_9allocatorIcEEEEN8nlohmann16json_abi_v3_11_210basic_jsonINS_3mapENS_6vectorES8_bxydS6_NSA_14adl_serializerENSD_IhNS6_IhEEEEEEEEPvEELi0ELb0EE5__getB8de180100Ev, symObjAddr: 0x22330, symBinAddr: 0x28A00, symSize: 0x10 }
  - { offset: 0x1382BD, size: 0x8, addend: 0x0, symName: __ZNSt3__110unique_ptrINS_11__tree_nodeINS_12__value_typeINS_12basic_stringIcNS_11char_traitsIcEENS_9allocatorIcEEEEN8nlohmann16json_abi_v3_11_210basic_jsonINS_3mapENS_6vectorES8_bxydS6_NSA_14adl_serializerENSD_IhNS6_IhEEEEEEEEPvEENS_22__tree_node_destructorINS6_ISK_EEEEED2B8de180100Ev, symObjAddr: 0x22340, symBinAddr: 0x28A10, symSize: 0x20 }
  - { offset: 0x1382E7, size: 0x8, addend: 0x0, symName: __ZNSt3__110unique_ptrINS_11__tree_nodeINS_12__value_typeINS_12basic_stringIcNS_11char_traitsIcEENS_9allocatorIcEEEEN8nlohmann16json_abi_v3_11_210basic_jsonINS_3mapENS_6vectorES8_bxydS6_NSA_14adl_serializerENSD_IhNS6_IhEEEEEEEEPvEENS_22__tree_node_destructorINS6_ISK_EEEEE5resetB8de180100EPSK_, symObjAddr: 0x22360, symBinAddr: 0x28A30, symSize: 0x70 }
  - { offset: 0x13832D, size: 0x8, addend: 0x0, symName: __ZNSt3__122__tree_node_destructorINS_9allocatorINS_11__tree_nodeINS_12__value_typeINS_12basic_stringIcNS_11char_traitsIcEENS1_IcEEEEN8nlohmann16json_abi_v3_11_210basic_jsonINS_3mapENS_6vectorES8_bxydS1_NSA_14adl_serializerENSD_IhNS1_IhEEEEEEEEPvEEEEEclB8de180100EPSK_, symObjAddr: 0x223D0, symBinAddr: 0x28AA0, symSize: 0x80 }
  - { offset: 0x138363, size: 0x8, addend: 0x0, symName: __ZNSt3__115__tree_iteratorINS_12__value_typeINS_12basic_stringIcNS_11char_traitsIcEENS_9allocatorIcEEEEN8nlohmann16json_abi_v3_11_210basic_jsonINS_3mapENS_6vectorES7_bxydS5_NS9_14adl_serializerENSC_IhNS5_IhEEEEEEEEPNS_11__tree_nodeISH_PvEElEC2B8de180100ESL_, symObjAddr: 0x22450, symBinAddr: 0x28B20, symSize: 0x20 }
  - { offset: 0x13839D, size: 0x8, addend: 0x0, symName: __ZNSt3__14pairINS_15__tree_iteratorINS_12__value_typeINS_12basic_stringIcNS_11char_traitsIcEENS_9allocatorIcEEEEN8nlohmann16json_abi_v3_11_210basic_jsonINS_3mapENS_6vectorES8_bxydS6_NSA_14adl_serializerENSD_IhNS6_IhEEEEEEEEPNS_11__tree_nodeISI_PvEElEEbEC2B8de180100ISN_RbLi0EEEOT_OT0_, symObjAddr: 0x22470, symBinAddr: 0x28B40, symSize: 0x30 }
  - { offset: 0x1383FE, size: 0x8, addend: 0x0, symName: __ZNKSt3__117__compressed_pairIPNS_3mapINS_12basic_stringIcNS_11char_traitsIcEENS_9allocatorIcEEEEN8nlohmann16json_abi_v3_11_210basic_jsonIS1_NS_6vectorES7_bxydS5_NS9_14adl_serializerENSB_IhNS5_IhEEEEEENS_4lessIvEENS5_INS_4pairIKS7_SF_EEEEEEZNSF_6createISM_JRKSM_EEEPT_DpOT0_EUlSN_E_E5firstB8de180100Ev, symObjAddr: 0x224A0, symBinAddr: 0x28B70, symSize: 0x20 }
  - { offset: 0x138424, size: 0x8, addend: 0x0, symName: __ZNKSt3__110unique_ptrINS_3mapINS_12basic_stringIcNS_11char_traitsIcEENS_9allocatorIcEEEEN8nlohmann16json_abi_v3_11_210basic_jsonIS1_NS_6vectorES7_bxydS5_NS9_14adl_serializerENSB_IhNS5_IhEEEEEENS_4lessIvEENS5_INS_4pairIKS7_SF_EEEEEEZNSF_6createISM_JRKSM_EEEPT_DpOT0_EUlPSM_E_EcvbB8de180100Ev, symObjAddr: 0x224C0, symBinAddr: 0x28B90, symSize: 0x30 }
  - { offset: 0x13844A, size: 0x8, addend: 0x0, symName: __ZNSt3__117__compressed_pairIPNS_3mapINS_12basic_stringIcNS_11char_traitsIcEENS_9allocatorIcEEEEN8nlohmann16json_abi_v3_11_210basic_jsonIS1_NS_6vectorES7_bxydS5_NS9_14adl_serializerENSB_IhNS5_IhEEEEEENS_4lessIvEENS5_INS_4pairIKS7_SF_EEEEEEZNSF_6createISM_JRKSM_EEEPT_DpOT0_EUlSN_E_E5firstB8de180100Ev, symObjAddr: 0x224F0, symBinAddr: 0x28BC0, symSize: 0x20 }
  - { offset: 0x138470, size: 0x8, addend: 0x0, symName: __ZNSt3__110unique_ptrINS_3mapINS_12basic_stringIcNS_11char_traitsIcEENS_9allocatorIcEEEEN8nlohmann16json_abi_v3_11_210basic_jsonIS1_NS_6vectorES7_bxydS5_NS9_14adl_serializerENSB_IhNS5_IhEEEEEENS_4lessIvEENS5_INS_4pairIKS7_SF_EEEEEEZNSF_6createISM_JRKSM_EEEPT_DpOT0_EUlPSM_E_ED2B8de180100Ev, symObjAddr: 0x22510, symBinAddr: 0x28BE0, symSize: 0x20 }
  - { offset: 0x13849A, size: 0x8, addend: 0x0, symName: __ZNSt3__110unique_ptrINS_3mapINS_12basic_stringIcNS_11char_traitsIcEENS_9allocatorIcEEEEN8nlohmann16json_abi_v3_11_210basic_jsonIS1_NS_6vectorES7_bxydS5_NS9_14adl_serializerENSB_IhNS5_IhEEEEEENS_4lessIvEENS5_INS_4pairIKS7_SF_EEEEEEZNSF_6createISM_JRKSM_EEEPT_DpOT0_EUlPSM_E_E5resetB8de180100ESV_, symObjAddr: 0x22530, symBinAddr: 0x28C00, symSize: 0x80 }
  - { offset: 0x1384E0, size: 0x8, addend: 0x0, symName: __ZNSt3__117__compressed_pairIPNS_3mapINS_12basic_stringIcNS_11char_traitsIcEENS_9allocatorIcEEEEN8nlohmann16json_abi_v3_11_210basic_jsonIS1_NS_6vectorES7_bxydS5_NS9_14adl_serializerENSB_IhNS5_IhEEEEEENS_4lessIvEENS5_INS_4pairIKS7_SF_EEEEEEZNSF_6createISM_JRKSM_EEEPT_DpOT0_EUlSN_E_E6secondB8de180100Ev, symObjAddr: 0x225B0, symBinAddr: 0x28C80, symSize: 0x20 }
  - { offset: 0x13850B, size: 0x8, addend: 0x0, symName: __ZZN8nlohmann16json_abi_v3_11_210basic_jsonINSt3__13mapENS2_6vectorENS2_12basic_stringIcNS2_11char_traitsIcEENS2_9allocatorIcEEEEbxydS8_NS0_14adl_serializerENS4_IhNS8_IhEEEEE6createINS3_ISA_SE_NS2_4lessIvEENS8_INS2_4pairIKSA_SE_EEEEEEJRKSM_EEEPT_DpOT0_ENKUlPSM_E_clESU_, symObjAddr: 0x225D0, symBinAddr: 0x28CA0, symSize: 0x30 }
  - { offset: 0x138545, size: 0x8, addend: 0x0, symName: __ZNSt3__122__compressed_pair_elemIZN8nlohmann16json_abi_v3_11_210basic_jsonINS_3mapENS_6vectorENS_12basic_stringIcNS_11char_traitsIcEENS_9allocatorIcEEEEbxydS9_NS2_14adl_serializerENS5_IhNS9_IhEEEEE6createINS4_ISB_SF_NS_4lessIvEENS9_INS_4pairIKSB_SF_EEEEEEJRKSN_EEEPT_DpOT0_EUlPSN_E_Li1ELb0EE5__getB8de180100Ev, symObjAddr: 0x22600, symBinAddr: 0x28CD0, symSize: 0x10 }
  - { offset: 0x13856B, size: 0x8, addend: 0x0, symName: __ZN8nlohmann16json_abi_v3_11_210basic_jsonINSt3__13mapENS2_6vectorENS2_12basic_stringIcNS2_11char_traitsIcEENS2_9allocatorIcEEEEbxydS8_NS0_14adl_serializerENS4_IhNS8_IhEEEEE10json_valueC2ERKNS4_ISE_NS8_ISE_EEEE, symObjAddr: 0x22610, symBinAddr: 0x28CE0, symSize: 0x40 }
  - { offset: 0x1385A5, size: 0x8, addend: 0x0, symName: __ZN8nlohmann16json_abi_v3_11_210basic_jsonINSt3__13mapENS2_6vectorENS2_12basic_stringIcNS2_11char_traitsIcEENS2_9allocatorIcEEEEbxydS8_NS0_14adl_serializerENS4_IhNS8_IhEEEEE6createINS4_ISE_NS8_ISE_EEEEJRKSH_EEEPT_DpOT0_, symObjAddr: 0x22650, symBinAddr: 0x28D20, symSize: 0xF0 }
  - { offset: 0x1386A4, size: 0x8, addend: 0x0, symName: __ZNSt3__110unique_ptrINS_6vectorIN8nlohmann16json_abi_v3_11_210basic_jsonINS_3mapES1_NS_12basic_stringIcNS_11char_traitsIcEENS_9allocatorIcEEEEbxydS9_NS3_14adl_serializerENS1_IhNS9_IhEEEEEENS9_ISF_EEEEZNSF_6createISH_JRKSH_EEEPT_DpOT0_EUlPSH_E_EC1B8de180100ILb1EvEESQ_NS_16__dependent_typeINS_27__unique_ptr_deleter_sfinaeISR_EEXT_EE15__lval_ref_typeE, symObjAddr: 0x22740, symBinAddr: 0x28E10, symSize: 0x30 }
  - { offset: 0x1386F9, size: 0x8, addend: 0x0, symName: __ZNSt3__116allocator_traitsINS_9allocatorINS_6vectorIN8nlohmann16json_abi_v3_11_210basic_jsonINS_3mapES2_NS_12basic_stringIcNS_11char_traitsIcEENS1_IcEEEEbxydS1_NS4_14adl_serializerENS2_IhNS1_IhEEEEEENS1_ISF_EEEEEEE9constructB8de180100ISH_JRKSH_EvEEvRSI_PT_DpOT0_, symObjAddr: 0x22770, symBinAddr: 0x28E40, symSize: 0x30 }
  - { offset: 0x138756, size: 0x8, addend: 0x0, symName: __ZNKSt3__110unique_ptrINS_6vectorIN8nlohmann16json_abi_v3_11_210basic_jsonINS_3mapES1_NS_12basic_stringIcNS_11char_traitsIcEENS_9allocatorIcEEEEbxydS9_NS3_14adl_serializerENS1_IhNS9_IhEEEEEENS9_ISF_EEEEZNSF_6createISH_JRKSH_EEEPT_DpOT0_EUlPSH_E_E3getB8de180100Ev, symObjAddr: 0x227A0, symBinAddr: 0x28E70, symSize: 0x20 }
  - { offset: 0x13877C, size: 0x8, addend: 0x0, symName: __ZNSt3__110unique_ptrINS_6vectorIN8nlohmann16json_abi_v3_11_210basic_jsonINS_3mapES1_NS_12basic_stringIcNS_11char_traitsIcEENS_9allocatorIcEEEEbxydS9_NS3_14adl_serializerENS1_IhNS9_IhEEEEEENS9_ISF_EEEEZNSF_6createISH_JRKSH_EEEPT_DpOT0_EUlPSH_E_E7releaseB8de180100Ev, symObjAddr: 0x227F0, symBinAddr: 0x28EC0, symSize: 0x40 }
  - { offset: 0x1387B2, size: 0x8, addend: 0x0, symName: __ZNSt3__110unique_ptrINS_6vectorIN8nlohmann16json_abi_v3_11_210basic_jsonINS_3mapES1_NS_12basic_stringIcNS_11char_traitsIcEENS_9allocatorIcEEEEbxydS9_NS3_14adl_serializerENS1_IhNS9_IhEEEEEENS9_ISF_EEEEZNSF_6createISH_JRKSH_EEEPT_DpOT0_EUlPSH_E_ED1B8de180100Ev, symObjAddr: 0x22830, symBinAddr: 0x28F00, symSize: 0x20 }
  - { offset: 0x1387DC, size: 0x8, addend: 0x0, symName: __ZNSt3__110unique_ptrINS_6vectorIN8nlohmann16json_abi_v3_11_210basic_jsonINS_3mapES1_NS_12basic_stringIcNS_11char_traitsIcEENS_9allocatorIcEEEEbxydS9_NS3_14adl_serializerENS1_IhNS9_IhEEEEEENS9_ISF_EEEEZNSF_6createISH_JRKSH_EEEPT_DpOT0_EUlPSH_E_EC2B8de180100ILb1EvEESQ_NS_16__dependent_typeINS_27__unique_ptr_deleter_sfinaeISR_EEXT_EE15__lval_ref_typeE, symObjAddr: 0x22850, symBinAddr: 0x28F20, symSize: 0x40 }
  - { offset: 0x138831, size: 0x8, addend: 0x0, symName: __ZNSt3__117__compressed_pairIPNS_6vectorIN8nlohmann16json_abi_v3_11_210basic_jsonINS_3mapES1_NS_12basic_stringIcNS_11char_traitsIcEENS_9allocatorIcEEEEbxydS9_NS3_14adl_serializerENS1_IhNS9_IhEEEEEENS9_ISF_EEEEZNSF_6createISH_JRKSH_EEEPT_DpOT0_EUlSI_E_EC1B8de180100IRSI_RKSR_EEOSM_OT0_, symObjAddr: 0x22890, symBinAddr: 0x28F60, symSize: 0x30 }
  - { offset: 0x13888B, size: 0x8, addend: 0x0, symName: __ZNSt3__117__compressed_pairIPNS_6vectorIN8nlohmann16json_abi_v3_11_210basic_jsonINS_3mapES1_NS_12basic_stringIcNS_11char_traitsIcEENS_9allocatorIcEEEEbxydS9_NS3_14adl_serializerENS1_IhNS9_IhEEEEEENS9_ISF_EEEEZNSF_6createISH_JRKSH_EEEPT_DpOT0_EUlSI_E_EC2B8de180100IRSI_RKSR_EEOSM_OT0_, symObjAddr: 0x228C0, symBinAddr: 0x28F90, symSize: 0x40 }
  - { offset: 0x1388E5, size: 0x8, addend: 0x0, symName: __ZNSt3__122__compressed_pair_elemIZN8nlohmann16json_abi_v3_11_210basic_jsonINS_3mapENS_6vectorENS_12basic_stringIcNS_11char_traitsIcEENS_9allocatorIcEEEEbxydS9_NS2_14adl_serializerENS5_IhNS9_IhEEEEE6createINS5_ISF_NS9_ISF_EEEEJRKSI_EEEPT_DpOT0_EUlPSI_E_Li1ELb0EEC2B8de180100IRKSR_vEEOSL_, symObjAddr: 0x22900, symBinAddr: 0x28FD0, symSize: 0x20 }
  - { offset: 0x138929, size: 0x8, addend: 0x0, symName: __ZNSt3__19allocatorINS_6vectorIN8nlohmann16json_abi_v3_11_210basic_jsonINS_3mapES1_NS_12basic_stringIcNS_11char_traitsIcEENS0_IcEEEEbxydS0_NS3_14adl_serializerENS1_IhNS0_IhEEEEEENS0_ISE_EEEEE9constructB8de180100ISG_JRKSG_EEEvPT_DpOT0_, symObjAddr: 0x22920, symBinAddr: 0x28FF0, symSize: 0x30 }
  - { offset: 0x138983, size: 0x8, addend: 0x0, symName: __ZNSt3__16vectorIN8nlohmann16json_abi_v3_11_210basic_jsonINS_3mapES0_NS_12basic_stringIcNS_11char_traitsIcEENS_9allocatorIcEEEEbxydS8_NS2_14adl_serializerENS0_IhNS8_IhEEEEEENS8_ISE_EEEC1ERKSG_, symObjAddr: 0x22950, symBinAddr: 0x29020, symSize: 0x30 }
  - { offset: 0x1389BF, size: 0x8, addend: 0x0, symName: __ZNSt3__16vectorIN8nlohmann16json_abi_v3_11_210basic_jsonINS_3mapES0_NS_12basic_stringIcNS_11char_traitsIcEENS_9allocatorIcEEEEbxydS8_NS2_14adl_serializerENS0_IhNS8_IhEEEEEENS8_ISE_EEEC2ERKSG_, symObjAddr: 0x22980, symBinAddr: 0x29050, symSize: 0xA0 }
  - { offset: 0x1389FB, size: 0x8, addend: 0x0, symName: __ZNSt3__116allocator_traitsINS_9allocatorIN8nlohmann16json_abi_v3_11_210basic_jsonINS_3mapENS_6vectorENS_12basic_stringIcNS_11char_traitsIcEENS1_IcEEEEbxydS1_NS3_14adl_serializerENS6_IhNS1_IhEEEEEEEEE37select_on_container_copy_constructionB8de180100ISG_vvEESG_RKSG_, symObjAddr: 0x22A20, symBinAddr: 0x290F0, symSize: 0x10 }
  - { offset: 0x138A33, size: 0x8, addend: 0x0, symName: __ZNSt3__117__compressed_pairIPN8nlohmann16json_abi_v3_11_210basic_jsonINS_3mapENS_6vectorENS_12basic_stringIcNS_11char_traitsIcEENS_9allocatorIcEEEEbxydS9_NS2_14adl_serializerENS5_IhNS9_IhEEEEEENS9_ISF_EEEC1B8de180100IDnSH_EEOT_OT0_, symObjAddr: 0x22A30, symBinAddr: 0x29100, symSize: 0x30 }
  - { offset: 0x138A8D, size: 0x8, addend: 0x0, symName: __ZNSt3__16vectorIN8nlohmann16json_abi_v3_11_210basic_jsonINS_3mapES0_NS_12basic_stringIcNS_11char_traitsIcEENS_9allocatorIcEEEEbxydS8_NS2_14adl_serializerENS0_IhNS8_IhEEEEEENS8_ISE_EEE16__init_with_sizeB8de180100IPSE_SI_EEvT_T0_m, symObjAddr: 0x22A60, symBinAddr: 0x29130, symSize: 0xB0 }
  - { offset: 0x138B05, size: 0x8, addend: 0x0, symName: __ZNSt3__117__compressed_pairIPN8nlohmann16json_abi_v3_11_210basic_jsonINS_3mapENS_6vectorENS_12basic_stringIcNS_11char_traitsIcEENS_9allocatorIcEEEEbxydS9_NS2_14adl_serializerENS5_IhNS9_IhEEEEEENS9_ISF_EEEC2B8de180100IDnSH_EEOT_OT0_, symObjAddr: 0x22B10, symBinAddr: 0x291E0, symSize: 0x40 }
  - { offset: 0x138B5F, size: 0x8, addend: 0x0, symName: __ZNSt3__122__compressed_pair_elemINS_9allocatorIN8nlohmann16json_abi_v3_11_210basic_jsonINS_3mapENS_6vectorENS_12basic_stringIcNS_11char_traitsIcEENS1_IcEEEEbxydS1_NS3_14adl_serializerENS6_IhNS1_IhEEEEEEEELi1ELb1EEC2B8de180100ISG_vEEOT_, symObjAddr: 0x22B50, symBinAddr: 0x29220, symSize: 0x10 }
  - { offset: 0x138BA3, size: 0x8, addend: 0x0, symName: __ZNSt3__16vectorIN8nlohmann16json_abi_v3_11_210basic_jsonINS_3mapES0_NS_12basic_stringIcNS_11char_traitsIcEENS_9allocatorIcEEEEbxydS8_NS2_14adl_serializerENS0_IhNS8_IhEEEEEENS8_ISE_EEE11__vallocateB8de180100Em, symObjAddr: 0x22BA0, symBinAddr: 0x29270, symSize: 0xA0 }
  - { offset: 0x138BE9, size: 0x8, addend: 0x0, symName: __ZNSt3__16vectorIN8nlohmann16json_abi_v3_11_210basic_jsonINS_3mapES0_NS_12basic_stringIcNS_11char_traitsIcEENS_9allocatorIcEEEEbxydS8_NS2_14adl_serializerENS0_IhNS8_IhEEEEEENS8_ISE_EEE18__construct_at_endIPSE_SI_EEvT_T0_m, symObjAddr: 0x22C40, symBinAddr: 0x29310, symSize: 0x90 }
  - { offset: 0x138C63, size: 0x8, addend: 0x0, symName: __ZNSt3__128__exception_guard_exceptionsINS_6vectorIN8nlohmann16json_abi_v3_11_210basic_jsonINS_3mapES1_NS_12basic_stringIcNS_11char_traitsIcEENS_9allocatorIcEEEEbxydS9_NS3_14adl_serializerENS1_IhNS9_IhEEEEEENS9_ISF_EEE16__destroy_vectorEE10__completeB8de180100Ev, symObjAddr: 0x22CD0, symBinAddr: 0x293A0, symSize: 0x20 }
  - { offset: 0x138C89, size: 0x8, addend: 0x0, symName: __ZNSt3__128__exception_guard_exceptionsINS_6vectorIN8nlohmann16json_abi_v3_11_210basic_jsonINS_3mapES1_NS_12basic_stringIcNS_11char_traitsIcEENS_9allocatorIcEEEEbxydS9_NS3_14adl_serializerENS1_IhNS9_IhEEEEEENS9_ISF_EEE16__destroy_vectorEED1B8de180100Ev, symObjAddr: 0x22CF0, symBinAddr: 0x293C0, symSize: 0x20 }
  - { offset: 0x138CB3, size: 0x8, addend: 0x0, symName: __ZNSt3__128__exception_guard_exceptionsINS_6vectorIN8nlohmann16json_abi_v3_11_210basic_jsonINS_3mapES1_NS_12basic_stringIcNS_11char_traitsIcEENS_9allocatorIcEEEEbxydS9_NS3_14adl_serializerENS1_IhNS9_IhEEEEEENS9_ISF_EEE16__destroy_vectorEEC1B8de180100ESI_, symObjAddr: 0x22D10, symBinAddr: 0x293E0, symSize: 0x30 }
  - { offset: 0x138CEC, size: 0x8, addend: 0x0, symName: __ZNSt3__128__exception_guard_exceptionsINS_6vectorIN8nlohmann16json_abi_v3_11_210basic_jsonINS_3mapES1_NS_12basic_stringIcNS_11char_traitsIcEENS_9allocatorIcEEEEbxydS9_NS3_14adl_serializerENS1_IhNS9_IhEEEEEENS9_ISF_EEE16__destroy_vectorEEC2B8de180100ESI_, symObjAddr: 0x22D40, symBinAddr: 0x29410, symSize: 0x20 }
  - { offset: 0x138D25, size: 0x8, addend: 0x0, symName: __ZNSt3__129_AllocatorDestroyRangeReverseINS_9allocatorIN8nlohmann16json_abi_v3_11_210basic_jsonINS_3mapENS_6vectorENS_12basic_stringIcNS_11char_traitsIcEENS1_IcEEEEbxydS1_NS3_14adl_serializerENS6_IhNS1_IhEEEEEEEEPSF_EC1B8de180100ERSG_RSH_SK_, symObjAddr: 0x22FF0, symBinAddr: 0x296C0, symSize: 0x40 }
  - { offset: 0x138D7F, size: 0x8, addend: 0x0, symName: __ZNSt3__116allocator_traitsINS_9allocatorIN8nlohmann16json_abi_v3_11_210basic_jsonINS_3mapENS_6vectorENS_12basic_stringIcNS_11char_traitsIcEENS1_IcEEEEbxydS1_NS3_14adl_serializerENS6_IhNS1_IhEEEEEEEEE9constructB8de180100ISF_JRSF_EvEEvRSG_PT_DpOT0_, symObjAddr: 0x23030, symBinAddr: 0x29700, symSize: 0x30 }
  - { offset: 0x138DDC, size: 0x8, addend: 0x0, symName: __ZNSt3__128__exception_guard_exceptionsINS_29_AllocatorDestroyRangeReverseINS_9allocatorIN8nlohmann16json_abi_v3_11_210basic_jsonINS_3mapENS_6vectorENS_12basic_stringIcNS_11char_traitsIcEENS2_IcEEEEbxydS2_NS4_14adl_serializerENS7_IhNS2_IhEEEEEEEEPSG_EEE10__completeB8de180100Ev, symObjAddr: 0x23060, symBinAddr: 0x29730, symSize: 0x20 }
  - { offset: 0x138E02, size: 0x8, addend: 0x0, symName: __ZNSt3__128__exception_guard_exceptionsINS_29_AllocatorDestroyRangeReverseINS_9allocatorIN8nlohmann16json_abi_v3_11_210basic_jsonINS_3mapENS_6vectorENS_12basic_stringIcNS_11char_traitsIcEENS2_IcEEEEbxydS2_NS4_14adl_serializerENS7_IhNS2_IhEEEEEEEEPSG_EEED1B8de180100Ev, symObjAddr: 0x23080, symBinAddr: 0x29750, symSize: 0x20 }
  - { offset: 0x138E2C, size: 0x8, addend: 0x0, symName: __ZNSt3__128__exception_guard_exceptionsINS_29_AllocatorDestroyRangeReverseINS_9allocatorIN8nlohmann16json_abi_v3_11_210basic_jsonINS_3mapENS_6vectorENS_12basic_stringIcNS_11char_traitsIcEENS2_IcEEEEbxydS2_NS4_14adl_serializerENS7_IhNS2_IhEEEEEEEEPSG_EEEC1B8de180100ESJ_, symObjAddr: 0x230A0, symBinAddr: 0x29770, symSize: 0x40 }
  - { offset: 0x138E65, size: 0x8, addend: 0x0, symName: __ZNSt3__128__exception_guard_exceptionsINS_29_AllocatorDestroyRangeReverseINS_9allocatorIN8nlohmann16json_abi_v3_11_210basic_jsonINS_3mapENS_6vectorENS_12basic_stringIcNS_11char_traitsIcEENS2_IcEEEEbxydS2_NS4_14adl_serializerENS7_IhNS2_IhEEEEEEEEPSG_EEEC2B8de180100ESJ_, symObjAddr: 0x230E0, symBinAddr: 0x297B0, symSize: 0x30 }
  - { offset: 0x138E9E, size: 0x8, addend: 0x0, symName: __ZNSt3__129_AllocatorDestroyRangeReverseINS_9allocatorIN8nlohmann16json_abi_v3_11_210basic_jsonINS_3mapENS_6vectorENS_12basic_stringIcNS_11char_traitsIcEENS1_IcEEEEbxydS1_NS3_14adl_serializerENS6_IhNS1_IhEEEEEEEEPSF_EC2B8de180100ERSG_RSH_SK_, symObjAddr: 0x23110, symBinAddr: 0x297E0, symSize: 0x40 }
  - { offset: 0x138EF8, size: 0x8, addend: 0x0, symName: __ZNSt3__19allocatorIN8nlohmann16json_abi_v3_11_210basic_jsonINS_3mapENS_6vectorENS_12basic_stringIcNS_11char_traitsIcEENS0_IcEEEEbxydS0_NS2_14adl_serializerENS5_IhNS0_IhEEEEEEE9constructB8de180100ISE_JRSE_EEEvPT_DpOT0_, symObjAddr: 0x23150, symBinAddr: 0x29820, symSize: 0x30 }
  - { offset: 0x138F52, size: 0x8, addend: 0x0, symName: __ZNSt3__128__exception_guard_exceptionsINS_29_AllocatorDestroyRangeReverseINS_9allocatorIN8nlohmann16json_abi_v3_11_210basic_jsonINS_3mapENS_6vectorENS_12basic_stringIcNS_11char_traitsIcEENS2_IcEEEEbxydS2_NS4_14adl_serializerENS7_IhNS2_IhEEEEEEEEPSG_EEED2B8de180100Ev, symObjAddr: 0x23180, symBinAddr: 0x29850, symSize: 0x40 }
  - { offset: 0x138F7C, size: 0x8, addend: 0x0, symName: __ZNKSt3__129_AllocatorDestroyRangeReverseINS_9allocatorIN8nlohmann16json_abi_v3_11_210basic_jsonINS_3mapENS_6vectorENS_12basic_stringIcNS_11char_traitsIcEENS1_IcEEEEbxydS1_NS3_14adl_serializerENS6_IhNS1_IhEEEEEEEEPSF_EclB8de180100Ev, symObjAddr: 0x231C0, symBinAddr: 0x29890, symSize: 0x60 }
  - { offset: 0x138FA2, size: 0x8, addend: 0x0, symName: __ZNSt3__118__unwrap_iter_implIPN8nlohmann16json_abi_v3_11_210basic_jsonINS_3mapENS_6vectorENS_12basic_stringIcNS_11char_traitsIcEENS_9allocatorIcEEEEbxydS9_NS2_14adl_serializerENS5_IhNS9_IhEEEEEELb1EE8__unwrapB8de180100ESG_, symObjAddr: 0x23290, symBinAddr: 0x29960, symSize: 0x20 }
  - { offset: 0x138FC7, size: 0x8, addend: 0x0, symName: __ZNSt3__118__unwrap_iter_implIPN8nlohmann16json_abi_v3_11_210basic_jsonINS_3mapENS_6vectorENS_12basic_stringIcNS_11char_traitsIcEENS_9allocatorIcEEEEbxydS9_NS2_14adl_serializerENS5_IhNS9_IhEEEEEELb1EE8__rewrapB8de180100ESG_SG_, symObjAddr: 0x232B0, symBinAddr: 0x29980, symSize: 0x50 }
  - { offset: 0x138FFC, size: 0x8, addend: 0x0, symName: __ZNSt3__128__exception_guard_exceptionsINS_6vectorIN8nlohmann16json_abi_v3_11_210basic_jsonINS_3mapES1_NS_12basic_stringIcNS_11char_traitsIcEENS_9allocatorIcEEEEbxydS9_NS3_14adl_serializerENS1_IhNS9_IhEEEEEENS9_ISF_EEE16__destroy_vectorEED2B8de180100Ev, symObjAddr: 0x23300, symBinAddr: 0x299D0, symSize: 0x30 }
  - { offset: 0x139026, size: 0x8, addend: 0x0, symName: __ZNKSt3__117__compressed_pairIPNS_6vectorIN8nlohmann16json_abi_v3_11_210basic_jsonINS_3mapES1_NS_12basic_stringIcNS_11char_traitsIcEENS_9allocatorIcEEEEbxydS9_NS3_14adl_serializerENS1_IhNS9_IhEEEEEENS9_ISF_EEEEZNSF_6createISH_JRKSH_EEEPT_DpOT0_EUlSI_E_E5firstB8de180100Ev, symObjAddr: 0x23330, symBinAddr: 0x29A00, symSize: 0x20 }
  - { offset: 0x13904C, size: 0x8, addend: 0x0, symName: __ZNKSt3__110unique_ptrINS_6vectorIN8nlohmann16json_abi_v3_11_210basic_jsonINS_3mapES1_NS_12basic_stringIcNS_11char_traitsIcEENS_9allocatorIcEEEEbxydS9_NS3_14adl_serializerENS1_IhNS9_IhEEEEEENS9_ISF_EEEEZNSF_6createISH_JRKSH_EEEPT_DpOT0_EUlPSH_E_EcvbB8de180100Ev, symObjAddr: 0x23350, symBinAddr: 0x29A20, symSize: 0x30 }
  - { offset: 0x139072, size: 0x8, addend: 0x0, symName: __ZNSt3__117__compressed_pairIPNS_6vectorIN8nlohmann16json_abi_v3_11_210basic_jsonINS_3mapES1_NS_12basic_stringIcNS_11char_traitsIcEENS_9allocatorIcEEEEbxydS9_NS3_14adl_serializerENS1_IhNS9_IhEEEEEENS9_ISF_EEEEZNSF_6createISH_JRKSH_EEEPT_DpOT0_EUlSI_E_E5firstB8de180100Ev, symObjAddr: 0x23380, symBinAddr: 0x29A50, symSize: 0x20 }
  - { offset: 0x139098, size: 0x8, addend: 0x0, symName: __ZNSt3__110unique_ptrINS_6vectorIN8nlohmann16json_abi_v3_11_210basic_jsonINS_3mapES1_NS_12basic_stringIcNS_11char_traitsIcEENS_9allocatorIcEEEEbxydS9_NS3_14adl_serializerENS1_IhNS9_IhEEEEEENS9_ISF_EEEEZNSF_6createISH_JRKSH_EEEPT_DpOT0_EUlPSH_E_ED2B8de180100Ev, symObjAddr: 0x233A0, symBinAddr: 0x29A70, symSize: 0x20 }
  - { offset: 0x1390C2, size: 0x8, addend: 0x0, symName: __ZNSt3__110unique_ptrINS_6vectorIN8nlohmann16json_abi_v3_11_210basic_jsonINS_3mapES1_NS_12basic_stringIcNS_11char_traitsIcEENS_9allocatorIcEEEEbxydS9_NS3_14adl_serializerENS1_IhNS9_IhEEEEEENS9_ISF_EEEEZNSF_6createISH_JRKSH_EEEPT_DpOT0_EUlPSH_E_E5resetB8de180100ESQ_, symObjAddr: 0x233C0, symBinAddr: 0x29A90, symSize: 0x80 }
  - { offset: 0x139108, size: 0x8, addend: 0x0, symName: __ZNSt3__117__compressed_pairIPNS_6vectorIN8nlohmann16json_abi_v3_11_210basic_jsonINS_3mapES1_NS_12basic_stringIcNS_11char_traitsIcEENS_9allocatorIcEEEEbxydS9_NS3_14adl_serializerENS1_IhNS9_IhEEEEEENS9_ISF_EEEEZNSF_6createISH_JRKSH_EEEPT_DpOT0_EUlSI_E_E6secondB8de180100Ev, symObjAddr: 0x23440, symBinAddr: 0x29B10, symSize: 0x20 }
  - { offset: 0x139133, size: 0x8, addend: 0x0, symName: __ZZN8nlohmann16json_abi_v3_11_210basic_jsonINSt3__13mapENS2_6vectorENS2_12basic_stringIcNS2_11char_traitsIcEENS2_9allocatorIcEEEEbxydS8_NS0_14adl_serializerENS4_IhNS8_IhEEEEE6createINS4_ISE_NS8_ISE_EEEEJRKSH_EEEPT_DpOT0_ENKUlPSH_E_clESP_, symObjAddr: 0x23460, symBinAddr: 0x29B30, symSize: 0x30 }
  - { offset: 0x13916D, size: 0x8, addend: 0x0, symName: __ZNSt3__122__compressed_pair_elemIZN8nlohmann16json_abi_v3_11_210basic_jsonINS_3mapENS_6vectorENS_12basic_stringIcNS_11char_traitsIcEENS_9allocatorIcEEEEbxydS9_NS2_14adl_serializerENS5_IhNS9_IhEEEEE6createINS5_ISF_NS9_ISF_EEEEJRKSI_EEEPT_DpOT0_EUlPSI_E_Li1ELb0EE5__getB8de180100Ev, symObjAddr: 0x23490, symBinAddr: 0x29B60, symSize: 0x10 }
  - { offset: 0x139193, size: 0x8, addend: 0x0, symName: __ZN8nlohmann16json_abi_v3_11_210basic_jsonINSt3__13mapENS2_6vectorENS2_12basic_stringIcNS2_11char_traitsIcEENS2_9allocatorIcEEEEbxydS8_NS0_14adl_serializerENS4_IhNS8_IhEEEEE10json_valueC2ERKSA_, symObjAddr: 0x234A0, symBinAddr: 0x29B70, symSize: 0x40 }
  - { offset: 0x1391CD, size: 0x8, addend: 0x0, symName: __ZN8nlohmann16json_abi_v3_11_210basic_jsonINSt3__13mapENS2_6vectorENS2_12basic_stringIcNS2_11char_traitsIcEENS2_9allocatorIcEEEEbxydS8_NS0_14adl_serializerENS4_IhNS8_IhEEEEE6createISA_JRKSA_EEEPT_DpOT0_, symObjAddr: 0x234E0, symBinAddr: 0x29BB0, symSize: 0xF0 }
  - { offset: 0x1392CC, size: 0x8, addend: 0x0, symName: __ZNSt3__110unique_ptrINS_12basic_stringIcNS_11char_traitsIcEENS_9allocatorIcEEEEZN8nlohmann16json_abi_v3_11_210basic_jsonINS_3mapENS_6vectorES6_bxydS4_NS8_14adl_serializerENSB_IhNS4_IhEEEEE6createIS6_JRKS6_EEEPT_DpOT0_EUlPS6_E_EC1B8de180100ILb1EvEESO_NS_16__dependent_typeINS_27__unique_ptr_deleter_sfinaeISP_EEXT_EE15__lval_ref_typeE, symObjAddr: 0x235D0, symBinAddr: 0x29CA0, symSize: 0x30 }
  - { offset: 0x139321, size: 0x8, addend: 0x0, symName: __ZNSt3__116allocator_traitsINS_9allocatorINS_12basic_stringIcNS_11char_traitsIcEENS1_IcEEEEEEE9constructB8de180100IS6_JRKS6_EvEEvRS7_PT_DpOT0_, symObjAddr: 0x23600, symBinAddr: 0x29CD0, symSize: 0x30 }
  - { offset: 0x13937E, size: 0x8, addend: 0x0, symName: __ZNKSt3__110unique_ptrINS_12basic_stringIcNS_11char_traitsIcEENS_9allocatorIcEEEEZN8nlohmann16json_abi_v3_11_210basic_jsonINS_3mapENS_6vectorES6_bxydS4_NS8_14adl_serializerENSB_IhNS4_IhEEEEE6createIS6_JRKS6_EEEPT_DpOT0_EUlPS6_E_E3getB8de180100Ev, symObjAddr: 0x23630, symBinAddr: 0x29D00, symSize: 0x20 }
  - { offset: 0x1393A4, size: 0x8, addend: 0x0, symName: __ZNSt3__110unique_ptrINS_12basic_stringIcNS_11char_traitsIcEENS_9allocatorIcEEEEZN8nlohmann16json_abi_v3_11_210basic_jsonINS_3mapENS_6vectorES6_bxydS4_NS8_14adl_serializerENSB_IhNS4_IhEEEEE6createIS6_JRKS6_EEEPT_DpOT0_EUlPS6_E_E7releaseB8de180100Ev, symObjAddr: 0x23680, symBinAddr: 0x29D50, symSize: 0x40 }
  - { offset: 0x1393DA, size: 0x8, addend: 0x0, symName: __ZNSt3__110unique_ptrINS_12basic_stringIcNS_11char_traitsIcEENS_9allocatorIcEEEEZN8nlohmann16json_abi_v3_11_210basic_jsonINS_3mapENS_6vectorES6_bxydS4_NS8_14adl_serializerENSB_IhNS4_IhEEEEE6createIS6_JRKS6_EEEPT_DpOT0_EUlPS6_E_ED1B8de180100Ev, symObjAddr: 0x236C0, symBinAddr: 0x29D90, symSize: 0x20 }
  - { offset: 0x139404, size: 0x8, addend: 0x0, symName: __ZNSt3__110unique_ptrINS_12basic_stringIcNS_11char_traitsIcEENS_9allocatorIcEEEEZN8nlohmann16json_abi_v3_11_210basic_jsonINS_3mapENS_6vectorES6_bxydS4_NS8_14adl_serializerENSB_IhNS4_IhEEEEE6createIS6_JRKS6_EEEPT_DpOT0_EUlPS6_E_EC2B8de180100ILb1EvEESO_NS_16__dependent_typeINS_27__unique_ptr_deleter_sfinaeISP_EEXT_EE15__lval_ref_typeE, symObjAddr: 0x236E0, symBinAddr: 0x29DB0, symSize: 0x40 }
  - { offset: 0x139459, size: 0x8, addend: 0x0, symName: __ZNSt3__117__compressed_pairIPNS_12basic_stringIcNS_11char_traitsIcEENS_9allocatorIcEEEEZN8nlohmann16json_abi_v3_11_210basic_jsonINS_3mapENS_6vectorES6_bxydS4_NS9_14adl_serializerENSC_IhNS4_IhEEEEE6createIS6_JRKS6_EEEPT_DpOT0_EUlS7_E_EC1B8de180100IRS7_RKSP_EEOSK_OT0_, symObjAddr: 0x23720, symBinAddr: 0x29DF0, symSize: 0x30 }
  - { offset: 0x1394B3, size: 0x8, addend: 0x0, symName: __ZNSt3__117__compressed_pairIPNS_12basic_stringIcNS_11char_traitsIcEENS_9allocatorIcEEEEZN8nlohmann16json_abi_v3_11_210basic_jsonINS_3mapENS_6vectorES6_bxydS4_NS9_14adl_serializerENSC_IhNS4_IhEEEEE6createIS6_JRKS6_EEEPT_DpOT0_EUlS7_E_EC2B8de180100IRS7_RKSP_EEOSK_OT0_, symObjAddr: 0x23750, symBinAddr: 0x29E20, symSize: 0x40 }
  - { offset: 0x13950D, size: 0x8, addend: 0x0, symName: __ZNSt3__122__compressed_pair_elemIZN8nlohmann16json_abi_v3_11_210basic_jsonINS_3mapENS_6vectorENS_12basic_stringIcNS_11char_traitsIcEENS_9allocatorIcEEEEbxydS9_NS2_14adl_serializerENS5_IhNS9_IhEEEEE6createISB_JRKSB_EEEPT_DpOT0_EUlPSB_E_Li1ELb0EEC2B8de180100IRKSP_vEEOSJ_, symObjAddr: 0x23790, symBinAddr: 0x29E60, symSize: 0x20 }
  - { offset: 0x139551, size: 0x8, addend: 0x0, symName: __ZNSt3__19allocatorINS_12basic_stringIcNS_11char_traitsIcEENS0_IcEEEEE9constructB8de180100IS5_JRKS5_EEEvPT_DpOT0_, symObjAddr: 0x237B0, symBinAddr: 0x29E80, symSize: 0x30 }
  - { offset: 0x1395AB, size: 0x8, addend: 0x0, symName: __ZNKSt3__117__compressed_pairIPNS_12basic_stringIcNS_11char_traitsIcEENS_9allocatorIcEEEEZN8nlohmann16json_abi_v3_11_210basic_jsonINS_3mapENS_6vectorES6_bxydS4_NS9_14adl_serializerENSC_IhNS4_IhEEEEE6createIS6_JRKS6_EEEPT_DpOT0_EUlS7_E_E5firstB8de180100Ev, symObjAddr: 0x237E0, symBinAddr: 0x29EB0, symSize: 0x20 }
  - { offset: 0x1395D1, size: 0x8, addend: 0x0, symName: __ZNKSt3__110unique_ptrINS_12basic_stringIcNS_11char_traitsIcEENS_9allocatorIcEEEEZN8nlohmann16json_abi_v3_11_210basic_jsonINS_3mapENS_6vectorES6_bxydS4_NS8_14adl_serializerENSB_IhNS4_IhEEEEE6createIS6_JRKS6_EEEPT_DpOT0_EUlPS6_E_EcvbB8de180100Ev, symObjAddr: 0x23800, symBinAddr: 0x29ED0, symSize: 0x30 }
  - { offset: 0x1395F7, size: 0x8, addend: 0x0, symName: __ZNSt3__117__compressed_pairIPNS_12basic_stringIcNS_11char_traitsIcEENS_9allocatorIcEEEEZN8nlohmann16json_abi_v3_11_210basic_jsonINS_3mapENS_6vectorES6_bxydS4_NS9_14adl_serializerENSC_IhNS4_IhEEEEE6createIS6_JRKS6_EEEPT_DpOT0_EUlS7_E_E5firstB8de180100Ev, symObjAddr: 0x23830, symBinAddr: 0x29F00, symSize: 0x20 }
  - { offset: 0x13961D, size: 0x8, addend: 0x0, symName: __ZNSt3__110unique_ptrINS_12basic_stringIcNS_11char_traitsIcEENS_9allocatorIcEEEEZN8nlohmann16json_abi_v3_11_210basic_jsonINS_3mapENS_6vectorES6_bxydS4_NS8_14adl_serializerENSB_IhNS4_IhEEEEE6createIS6_JRKS6_EEEPT_DpOT0_EUlPS6_E_ED2B8de180100Ev, symObjAddr: 0x23850, symBinAddr: 0x29F20, symSize: 0x20 }
  - { offset: 0x139647, size: 0x8, addend: 0x0, symName: __ZNSt3__110unique_ptrINS_12basic_stringIcNS_11char_traitsIcEENS_9allocatorIcEEEEZN8nlohmann16json_abi_v3_11_210basic_jsonINS_3mapENS_6vectorES6_bxydS4_NS8_14adl_serializerENSB_IhNS4_IhEEEEE6createIS6_JRKS6_EEEPT_DpOT0_EUlPS6_E_E5resetB8de180100ESO_, symObjAddr: 0x23870, symBinAddr: 0x29F40, symSize: 0x80 }
  - { offset: 0x13968D, size: 0x8, addend: 0x0, symName: __ZNSt3__117__compressed_pairIPNS_12basic_stringIcNS_11char_traitsIcEENS_9allocatorIcEEEEZN8nlohmann16json_abi_v3_11_210basic_jsonINS_3mapENS_6vectorES6_bxydS4_NS9_14adl_serializerENSC_IhNS4_IhEEEEE6createIS6_JRKS6_EEEPT_DpOT0_EUlS7_E_E6secondB8de180100Ev, symObjAddr: 0x238F0, symBinAddr: 0x29FC0, symSize: 0x20 }
  - { offset: 0x1396B8, size: 0x8, addend: 0x0, symName: __ZZN8nlohmann16json_abi_v3_11_210basic_jsonINSt3__13mapENS2_6vectorENS2_12basic_stringIcNS2_11char_traitsIcEENS2_9allocatorIcEEEEbxydS8_NS0_14adl_serializerENS4_IhNS8_IhEEEEE6createISA_JRKSA_EEEPT_DpOT0_ENKUlPSA_E_clESN_, symObjAddr: 0x23910, symBinAddr: 0x29FE0, symSize: 0x30 }
  - { offset: 0x1396F2, size: 0x8, addend: 0x0, symName: __ZNSt3__122__compressed_pair_elemIZN8nlohmann16json_abi_v3_11_210basic_jsonINS_3mapENS_6vectorENS_12basic_stringIcNS_11char_traitsIcEENS_9allocatorIcEEEEbxydS9_NS2_14adl_serializerENS5_IhNS9_IhEEEEE6createISB_JRKSB_EEEPT_DpOT0_EUlPSB_E_Li1ELb0EE5__getB8de180100Ev, symObjAddr: 0x23940, symBinAddr: 0x2A010, symSize: 0x10 }
  - { offset: 0x139718, size: 0x8, addend: 0x0, symName: __ZN8nlohmann16json_abi_v3_11_210basic_jsonINSt3__13mapENS2_6vectorENS2_12basic_stringIcNS2_11char_traitsIcEENS2_9allocatorIcEEEEbxydS8_NS0_14adl_serializerENS4_IhNS8_IhEEEEE10json_valueC2Eb, symObjAddr: 0x23950, symBinAddr: 0x2A020, symSize: 0x20 }
  - { offset: 0x139752, size: 0x8, addend: 0x0, symName: __ZN8nlohmann16json_abi_v3_11_210basic_jsonINSt3__13mapENS2_6vectorENS2_12basic_stringIcNS2_11char_traitsIcEENS2_9allocatorIcEEEEbxydS8_NS0_14adl_serializerENS4_IhNS8_IhEEEEE10json_valueC2Ex, symObjAddr: 0x23970, symBinAddr: 0x2A040, symSize: 0x20 }
  - { offset: 0x13978C, size: 0x8, addend: 0x0, symName: __ZN8nlohmann16json_abi_v3_11_210basic_jsonINSt3__13mapENS2_6vectorENS2_12basic_stringIcNS2_11char_traitsIcEENS2_9allocatorIcEEEEbxydS8_NS0_14adl_serializerENS4_IhNS8_IhEEEEE10json_valueC2Ey, symObjAddr: 0x23990, symBinAddr: 0x2A060, symSize: 0x20 }
  - { offset: 0x1397C6, size: 0x8, addend: 0x0, symName: __ZN8nlohmann16json_abi_v3_11_210basic_jsonINSt3__13mapENS2_6vectorENS2_12basic_stringIcNS2_11char_traitsIcEENS2_9allocatorIcEEEEbxydS8_NS0_14adl_serializerENS4_IhNS8_IhEEEEE10json_valueC2Ed, symObjAddr: 0x239B0, symBinAddr: 0x2A080, symSize: 0x20 }
  - { offset: 0x139800, size: 0x8, addend: 0x0, symName: __ZN8nlohmann16json_abi_v3_11_210basic_jsonINSt3__13mapENS2_6vectorENS2_12basic_stringIcNS2_11char_traitsIcEENS2_9allocatorIcEEEEbxydS8_NS0_14adl_serializerENS4_IhNS8_IhEEEEE10json_valueC2ERKNS0_27byte_container_with_subtypeISD_EE, symObjAddr: 0x239D0, symBinAddr: 0x2A0A0, symSize: 0x40 }
  - { offset: 0x13983A, size: 0x8, addend: 0x0, symName: __ZN8nlohmann16json_abi_v3_11_210basic_jsonINSt3__13mapENS2_6vectorENS2_12basic_stringIcNS2_11char_traitsIcEENS2_9allocatorIcEEEEbxydS8_NS0_14adl_serializerENS4_IhNS8_IhEEEEE6createINS0_27byte_container_with_subtypeISD_EEJRKSH_EEEPT_DpOT0_, symObjAddr: 0x23A10, symBinAddr: 0x2A0E0, symSize: 0xF0 }
  - { offset: 0x139939, size: 0x8, addend: 0x0, symName: __ZNSt3__110unique_ptrIN8nlohmann16json_abi_v3_11_227byte_container_with_subtypeINS_6vectorIhNS_9allocatorIhEEEEEEZNS2_10basic_jsonINS_3mapES4_NS_12basic_stringIcNS_11char_traitsIcEENS5_IcEEEEbxydS5_NS2_14adl_serializerES7_E6createIS8_JRKS8_EEEPT_DpOT0_EUlPS8_E_EC1B8de180100ILb1EvEESQ_NS_16__dependent_typeINS_27__unique_ptr_deleter_sfinaeISR_EEXT_EE15__lval_ref_typeE, symObjAddr: 0x23B00, symBinAddr: 0x2A1D0, symSize: 0x30 }
  - { offset: 0x13998E, size: 0x8, addend: 0x0, symName: __ZNSt3__116allocator_traitsINS_9allocatorIN8nlohmann16json_abi_v3_11_227byte_container_with_subtypeINS_6vectorIhNS1_IhEEEEEEEEE9constructB8de180100IS8_JRKS8_EvEEvRS9_PT_DpOT0_, symObjAddr: 0x23B30, symBinAddr: 0x2A200, symSize: 0x30 }
  - { offset: 0x1399EB, size: 0x8, addend: 0x0, symName: __ZNKSt3__110unique_ptrIN8nlohmann16json_abi_v3_11_227byte_container_with_subtypeINS_6vectorIhNS_9allocatorIhEEEEEEZNS2_10basic_jsonINS_3mapES4_NS_12basic_stringIcNS_11char_traitsIcEENS5_IcEEEEbxydS5_NS2_14adl_serializerES7_E6createIS8_JRKS8_EEEPT_DpOT0_EUlPS8_E_E3getB8de180100Ev, symObjAddr: 0x23B60, symBinAddr: 0x2A230, symSize: 0x20 }
  - { offset: 0x139A11, size: 0x8, addend: 0x0, symName: __ZNSt3__110unique_ptrIN8nlohmann16json_abi_v3_11_227byte_container_with_subtypeINS_6vectorIhNS_9allocatorIhEEEEEEZNS2_10basic_jsonINS_3mapES4_NS_12basic_stringIcNS_11char_traitsIcEENS5_IcEEEEbxydS5_NS2_14adl_serializerES7_E6createIS8_JRKS8_EEEPT_DpOT0_EUlPS8_E_E7releaseB8de180100Ev, symObjAddr: 0x23BB0, symBinAddr: 0x2A280, symSize: 0x40 }
  - { offset: 0x139A47, size: 0x8, addend: 0x0, symName: __ZNSt3__110unique_ptrIN8nlohmann16json_abi_v3_11_227byte_container_with_subtypeINS_6vectorIhNS_9allocatorIhEEEEEEZNS2_10basic_jsonINS_3mapES4_NS_12basic_stringIcNS_11char_traitsIcEENS5_IcEEEEbxydS5_NS2_14adl_serializerES7_E6createIS8_JRKS8_EEEPT_DpOT0_EUlPS8_E_ED1B8de180100Ev, symObjAddr: 0x23BF0, symBinAddr: 0x2A2C0, symSize: 0x20 }
  - { offset: 0x139A71, size: 0x8, addend: 0x0, symName: __ZNSt3__110unique_ptrIN8nlohmann16json_abi_v3_11_227byte_container_with_subtypeINS_6vectorIhNS_9allocatorIhEEEEEEZNS2_10basic_jsonINS_3mapES4_NS_12basic_stringIcNS_11char_traitsIcEENS5_IcEEEEbxydS5_NS2_14adl_serializerES7_E6createIS8_JRKS8_EEEPT_DpOT0_EUlPS8_E_EC2B8de180100ILb1EvEESQ_NS_16__dependent_typeINS_27__unique_ptr_deleter_sfinaeISR_EEXT_EE15__lval_ref_typeE, symObjAddr: 0x23C10, symBinAddr: 0x2A2E0, symSize: 0x40 }
  - { offset: 0x139AC6, size: 0x8, addend: 0x0, symName: __ZNSt3__117__compressed_pairIPN8nlohmann16json_abi_v3_11_227byte_container_with_subtypeINS_6vectorIhNS_9allocatorIhEEEEEEZNS2_10basic_jsonINS_3mapES4_NS_12basic_stringIcNS_11char_traitsIcEENS5_IcEEEEbxydS5_NS2_14adl_serializerES7_E6createIS8_JRKS8_EEEPT_DpOT0_EUlS9_E_EC1B8de180100IRS9_RKSR_EEOSM_OT0_, symObjAddr: 0x23C50, symBinAddr: 0x2A320, symSize: 0x30 }
  - { offset: 0x139B20, size: 0x8, addend: 0x0, symName: __ZNSt3__117__compressed_pairIPN8nlohmann16json_abi_v3_11_227byte_container_with_subtypeINS_6vectorIhNS_9allocatorIhEEEEEEZNS2_10basic_jsonINS_3mapES4_NS_12basic_stringIcNS_11char_traitsIcEENS5_IcEEEEbxydS5_NS2_14adl_serializerES7_E6createIS8_JRKS8_EEEPT_DpOT0_EUlS9_E_EC2B8de180100IRS9_RKSR_EEOSM_OT0_, symObjAddr: 0x23C80, symBinAddr: 0x2A350, symSize: 0x40 }
  - { offset: 0x139B7A, size: 0x8, addend: 0x0, symName: __ZNSt3__122__compressed_pair_elemIZN8nlohmann16json_abi_v3_11_210basic_jsonINS_3mapENS_6vectorENS_12basic_stringIcNS_11char_traitsIcEENS_9allocatorIcEEEEbxydS9_NS2_14adl_serializerENS5_IhNS9_IhEEEEE6createINS2_27byte_container_with_subtypeISE_EEJRKSI_EEEPT_DpOT0_EUlPSI_E_Li1ELb0EEC2B8de180100IRKSR_vEEOSL_, symObjAddr: 0x23CC0, symBinAddr: 0x2A390, symSize: 0x20 }
  - { offset: 0x139BBE, size: 0x8, addend: 0x0, symName: __ZNSt3__19allocatorIN8nlohmann16json_abi_v3_11_227byte_container_with_subtypeINS_6vectorIhNS0_IhEEEEEEE9constructB8de180100IS7_JRKS7_EEEvPT_DpOT0_, symObjAddr: 0x23CE0, symBinAddr: 0x2A3B0, symSize: 0x30 }
  - { offset: 0x139C18, size: 0x8, addend: 0x0, symName: __ZN8nlohmann16json_abi_v3_11_227byte_container_with_subtypeINSt3__16vectorIhNS2_9allocatorIhEEEEEC1ERKS7_, symObjAddr: 0x23D10, symBinAddr: 0x2A3E0, symSize: 0x30 }
  - { offset: 0x139C4E, size: 0x8, addend: 0x0, symName: __ZN8nlohmann16json_abi_v3_11_227byte_container_with_subtypeINSt3__16vectorIhNS2_9allocatorIhEEEEEC2ERKS7_, symObjAddr: 0x23D40, symBinAddr: 0x2A410, symSize: 0x40 }
  - { offset: 0x139C84, size: 0x8, addend: 0x0, symName: __ZNSt3__16vectorIhNS_9allocatorIhEEEC2ERKS3_, symObjAddr: 0x23D80, symBinAddr: 0x2A450, symSize: 0xA0 }
  - { offset: 0x139CCB, size: 0x8, addend: 0x0, symName: __ZNSt3__116allocator_traitsINS_9allocatorIhEEE37select_on_container_copy_constructionB8de180100IS2_vvEES2_RKS2_, symObjAddr: 0x23E20, symBinAddr: 0x2A4F0, symSize: 0x10 }
  - { offset: 0x139CFD, size: 0x8, addend: 0x0, symName: __ZNKSt3__16vectorIhNS_9allocatorIhEEE7__allocB8de180100Ev, symObjAddr: 0x23E30, symBinAddr: 0x2A500, symSize: 0x20 }
  - { offset: 0x139D29, size: 0x8, addend: 0x0, symName: __ZNSt3__117__compressed_pairIPhNS_9allocatorIhEEEC1B8de180100IDnS3_EEOT_OT0_, symObjAddr: 0x23E50, symBinAddr: 0x2A520, symSize: 0x30 }
  - { offset: 0x139D83, size: 0x8, addend: 0x0, symName: __ZNSt3__16vectorIhNS_9allocatorIhEEE16__init_with_sizeB8de180100IPhS5_EEvT_T0_m, symObjAddr: 0x23E80, symBinAddr: 0x2A550, symSize: 0xB0 }
  - { offset: 0x139DFB, size: 0x8, addend: 0x0, symName: __ZNKSt3__16vectorIhNS_9allocatorIhEEE4sizeB8de180100Ev, symObjAddr: 0x23F30, symBinAddr: 0x2A600, symSize: 0x20 }
  - { offset: 0x139E21, size: 0x8, addend: 0x0, symName: __ZNKSt3__117__compressed_pairIPhNS_9allocatorIhEEE6secondB8de180100Ev, symObjAddr: 0x23F50, symBinAddr: 0x2A620, symSize: 0x20 }
  - { offset: 0x139E47, size: 0x8, addend: 0x0, symName: __ZNKSt3__122__compressed_pair_elemINS_9allocatorIhEELi1ELb1EE5__getB8de180100Ev, symObjAddr: 0x23F70, symBinAddr: 0x2A640, symSize: 0x10 }
  - { offset: 0x139E6D, size: 0x8, addend: 0x0, symName: __ZNSt3__117__compressed_pairIPhNS_9allocatorIhEEEC2B8de180100IDnS3_EEOT_OT0_, symObjAddr: 0x23F80, symBinAddr: 0x2A650, symSize: 0x40 }
  - { offset: 0x139EC7, size: 0x8, addend: 0x0, symName: __ZNSt3__122__compressed_pair_elemINS_9allocatorIhEELi1ELb1EEC2B8de180100IS2_vEEOT_, symObjAddr: 0x23FC0, symBinAddr: 0x2A690, symSize: 0x10 }
  - { offset: 0x139F0B, size: 0x8, addend: 0x0, symName: __ZNSt3__16vectorIhNS_9allocatorIhEEE11__vallocateB8de180100Em, symObjAddr: 0x24010, symBinAddr: 0x2A6E0, symSize: 0xA0 }
  - { offset: 0x139F51, size: 0x8, addend: 0x0, symName: __ZNSt3__16vectorIhNS_9allocatorIhEEE18__construct_at_endIPhS5_EEvT_T0_m, symObjAddr: 0x240B0, symBinAddr: 0x2A780, symSize: 0x90 }
  - { offset: 0x139FCB, size: 0x8, addend: 0x0, symName: __ZNSt3__128__exception_guard_exceptionsINS_6vectorIhNS_9allocatorIhEEE16__destroy_vectorEE10__completeB8de180100Ev, symObjAddr: 0x24140, symBinAddr: 0x2A810, symSize: 0x20 }
  - { offset: 0x139FF1, size: 0x8, addend: 0x0, symName: __ZNSt3__128__exception_guard_exceptionsINS_6vectorIhNS_9allocatorIhEEE16__destroy_vectorEED1B8de180100Ev, symObjAddr: 0x24160, symBinAddr: 0x2A830, symSize: 0x20 }
  - { offset: 0x13A01B, size: 0x8, addend: 0x0, symName: __ZNSt3__128__exception_guard_exceptionsINS_6vectorIhNS_9allocatorIhEEE16__destroy_vectorEEC1B8de180100ES5_, symObjAddr: 0x24180, symBinAddr: 0x2A850, symSize: 0x30 }
  - { offset: 0x13A054, size: 0x8, addend: 0x0, symName: __ZNSt3__128__exception_guard_exceptionsINS_6vectorIhNS_9allocatorIhEEE16__destroy_vectorEEC2B8de180100ES5_, symObjAddr: 0x241B0, symBinAddr: 0x2A880, symSize: 0x20 }
  - { offset: 0x13A08D, size: 0x8, addend: 0x0, symName: __ZNKSt3__16vectorIhNS_9allocatorIhEEE8max_sizeEv, symObjAddr: 0x241D0, symBinAddr: 0x2A8A0, symSize: 0x60 }
  - { offset: 0x13A0B5, size: 0x8, addend: 0x0, symName: __ZNKSt3__16vectorIhNS_9allocatorIhEEE20__throw_length_errorB8de180100Ev, symObjAddr: 0x24230, symBinAddr: 0x2A900, symSize: 0x20 }
  - { offset: 0x13A0DB, size: 0x8, addend: 0x0, symName: __ZNSt3__16vectorIhNS_9allocatorIhEEE9__end_capB8de180100Ev, symObjAddr: 0x24290, symBinAddr: 0x2A960, symSize: 0x20 }
  - { offset: 0x13A101, size: 0x8, addend: 0x0, symName: __ZNKSt3__16vectorIhNS_9allocatorIhEEE14__annotate_newB8de180100Em, symObjAddr: 0x242B0, symBinAddr: 0x2A980, symSize: 0x10 }
  - { offset: 0x13A137, size: 0x8, addend: 0x0, symName: __ZNSt3__116allocator_traitsINS_9allocatorIhEEE8max_sizeB8de180100IS2_vEEmRKS2_, symObjAddr: 0x242C0, symBinAddr: 0x2A990, symSize: 0x20 }
  - { offset: 0x13A167, size: 0x8, addend: 0x0, symName: __ZNKSt3__19allocatorIhE8max_sizeB8de180100Ev, symObjAddr: 0x242E0, symBinAddr: 0x2A9B0, symSize: 0x20 }
  - { offset: 0x13A18D, size: 0x8, addend: 0x0, symName: __ZNSt3__19allocatorIhE8allocateB8de180100Em, symObjAddr: 0x24300, symBinAddr: 0x2A9D0, symSize: 0x50 }
  - { offset: 0x13A1C2, size: 0x8, addend: 0x0, symName: __ZNSt3__117__compressed_pairIPhNS_9allocatorIhEEE5firstB8de180100Ev, symObjAddr: 0x24350, symBinAddr: 0x2AA20, symSize: 0x20 }
  - { offset: 0x13A1E8, size: 0x8, addend: 0x0, symName: __ZNSt3__122__compressed_pair_elemIPhLi0ELb0EE5__getB8de180100Ev, symObjAddr: 0x24370, symBinAddr: 0x2AA40, symSize: 0x10 }
  - { offset: 0x13A229, size: 0x8, addend: 0x0, symName: __ZNSt3__16vectorIhNS_9allocatorIhEEE21_ConstructTransactionC1B8de180100ERS3_m, symObjAddr: 0x24380, symBinAddr: 0x2AA50, symSize: 0x30 }
  - { offset: 0x13A273, size: 0x8, addend: 0x0, symName: __ZNSt3__16vectorIhNS_9allocatorIhEEE21_ConstructTransactionD1B8de180100Ev, symObjAddr: 0x24430, symBinAddr: 0x2AB00, symSize: 0x20 }
  - { offset: 0x13A29D, size: 0x8, addend: 0x0, symName: __ZNSt3__16vectorIhNS_9allocatorIhEEE21_ConstructTransactionC2B8de180100ERS3_m, symObjAddr: 0x24450, symBinAddr: 0x2AB20, symSize: 0x40 }
  - { offset: 0x13A309, size: 0x8, addend: 0x0, symName: __ZNSt3__14pairIPhS1_EC1B8de180100IS1_S1_Li0EEEOT_OT0_, symObjAddr: 0x245A0, symBinAddr: 0x2AC70, symSize: 0x30 }
  - { offset: 0x13A36A, size: 0x8, addend: 0x0, symName: __ZNSt3__14pairIPhS1_EC2B8de180100IS1_S1_Li0EEEOT_OT0_, symObjAddr: 0x245D0, symBinAddr: 0x2ACA0, symSize: 0x30 }
  - { offset: 0x13A3D5, size: 0x8, addend: 0x0, symName: __ZNKSt3__114__copy_trivialclB8de180100IhhLi0EEENS_4pairIPT_PT0_EES4_S4_S6_, symObjAddr: 0x24770, symBinAddr: 0x2AE40, symSize: 0x40 }
  - { offset: 0x13A444, size: 0x8, addend: 0x0, symName: __ZNSt3__14pairIPhS1_EC1B8de180100IRS1_S1_Li0EEEOT_OT0_, symObjAddr: 0x248D0, symBinAddr: 0x2AFA0, symSize: 0x30 }
  - { offset: 0x13A4A5, size: 0x8, addend: 0x0, symName: __ZNSt3__14pairIPhS1_EC2B8de180100IRS1_S1_Li0EEEOT_OT0_, symObjAddr: 0x24900, symBinAddr: 0x2AFD0, symSize: 0x30 }
  - { offset: 0x13A506, size: 0x8, addend: 0x0, symName: __ZNSt3__118__unwrap_iter_implIPhLb1EE8__unwrapB8de180100ES1_, symObjAddr: 0x24930, symBinAddr: 0x2B000, symSize: 0x20 }
  - { offset: 0x13A52B, size: 0x8, addend: 0x0, symName: __ZNSt3__118__unwrap_iter_implIPhLb1EE8__rewrapB8de180100ES1_S1_, symObjAddr: 0x24950, symBinAddr: 0x2B020, symSize: 0x40 }
  - { offset: 0x13A560, size: 0x8, addend: 0x0, symName: __ZNSt3__16vectorIhNS_9allocatorIhEEE21_ConstructTransactionD2B8de180100Ev, symObjAddr: 0x24990, symBinAddr: 0x2B060, symSize: 0x20 }
  - { offset: 0x13A58A, size: 0x8, addend: 0x0, symName: __ZNSt3__128__exception_guard_exceptionsINS_6vectorIhNS_9allocatorIhEEE16__destroy_vectorEED2B8de180100Ev, symObjAddr: 0x249B0, symBinAddr: 0x2B080, symSize: 0x30 }
  - { offset: 0x13A5B4, size: 0x8, addend: 0x0, symName: __ZNKSt3__117__compressed_pairIPN8nlohmann16json_abi_v3_11_227byte_container_with_subtypeINS_6vectorIhNS_9allocatorIhEEEEEEZNS2_10basic_jsonINS_3mapES4_NS_12basic_stringIcNS_11char_traitsIcEENS5_IcEEEEbxydS5_NS2_14adl_serializerES7_E6createIS8_JRKS8_EEEPT_DpOT0_EUlS9_E_E5firstB8de180100Ev, symObjAddr: 0x249E0, symBinAddr: 0x2B0B0, symSize: 0x20 }
  - { offset: 0x13A5DA, size: 0x8, addend: 0x0, symName: __ZNKSt3__110unique_ptrIN8nlohmann16json_abi_v3_11_227byte_container_with_subtypeINS_6vectorIhNS_9allocatorIhEEEEEEZNS2_10basic_jsonINS_3mapES4_NS_12basic_stringIcNS_11char_traitsIcEENS5_IcEEEEbxydS5_NS2_14adl_serializerES7_E6createIS8_JRKS8_EEEPT_DpOT0_EUlPS8_E_EcvbB8de180100Ev, symObjAddr: 0x24A00, symBinAddr: 0x2B0D0, symSize: 0x30 }
  - { offset: 0x13A600, size: 0x8, addend: 0x0, symName: __ZNSt3__117__compressed_pairIPN8nlohmann16json_abi_v3_11_227byte_container_with_subtypeINS_6vectorIhNS_9allocatorIhEEEEEEZNS2_10basic_jsonINS_3mapES4_NS_12basic_stringIcNS_11char_traitsIcEENS5_IcEEEEbxydS5_NS2_14adl_serializerES7_E6createIS8_JRKS8_EEEPT_DpOT0_EUlS9_E_E5firstB8de180100Ev, symObjAddr: 0x24A30, symBinAddr: 0x2B100, symSize: 0x20 }
  - { offset: 0x13A626, size: 0x8, addend: 0x0, symName: __ZNSt3__110unique_ptrIN8nlohmann16json_abi_v3_11_227byte_container_with_subtypeINS_6vectorIhNS_9allocatorIhEEEEEEZNS2_10basic_jsonINS_3mapES4_NS_12basic_stringIcNS_11char_traitsIcEENS5_IcEEEEbxydS5_NS2_14adl_serializerES7_E6createIS8_JRKS8_EEEPT_DpOT0_EUlPS8_E_ED2B8de180100Ev, symObjAddr: 0x24A50, symBinAddr: 0x2B120, symSize: 0x20 }
  - { offset: 0x13A650, size: 0x8, addend: 0x0, symName: __ZNSt3__110unique_ptrIN8nlohmann16json_abi_v3_11_227byte_container_with_subtypeINS_6vectorIhNS_9allocatorIhEEEEEEZNS2_10basic_jsonINS_3mapES4_NS_12basic_stringIcNS_11char_traitsIcEENS5_IcEEEEbxydS5_NS2_14adl_serializerES7_E6createIS8_JRKS8_EEEPT_DpOT0_EUlPS8_E_E5resetB8de180100ESQ_, symObjAddr: 0x24A70, symBinAddr: 0x2B140, symSize: 0x80 }
  - { offset: 0x13A696, size: 0x8, addend: 0x0, symName: __ZNSt3__117__compressed_pairIPN8nlohmann16json_abi_v3_11_227byte_container_with_subtypeINS_6vectorIhNS_9allocatorIhEEEEEEZNS2_10basic_jsonINS_3mapES4_NS_12basic_stringIcNS_11char_traitsIcEENS5_IcEEEEbxydS5_NS2_14adl_serializerES7_E6createIS8_JRKS8_EEEPT_DpOT0_EUlS9_E_E6secondB8de180100Ev, symObjAddr: 0x24AF0, symBinAddr: 0x2B1C0, symSize: 0x20 }
  - { offset: 0x13A6C1, size: 0x8, addend: 0x0, symName: __ZZN8nlohmann16json_abi_v3_11_210basic_jsonINSt3__13mapENS2_6vectorENS2_12basic_stringIcNS2_11char_traitsIcEENS2_9allocatorIcEEEEbxydS8_NS0_14adl_serializerENS4_IhNS8_IhEEEEE6createINS0_27byte_container_with_subtypeISD_EEJRKSH_EEEPT_DpOT0_ENKUlPSH_E_clESP_, symObjAddr: 0x24B10, symBinAddr: 0x2B1E0, symSize: 0x30 }
  - { offset: 0x13A6FB, size: 0x8, addend: 0x0, symName: __ZNSt3__122__compressed_pair_elemIZN8nlohmann16json_abi_v3_11_210basic_jsonINS_3mapENS_6vectorENS_12basic_stringIcNS_11char_traitsIcEENS_9allocatorIcEEEEbxydS9_NS2_14adl_serializerENS5_IhNS9_IhEEEEE6createINS2_27byte_container_with_subtypeISE_EEJRKSI_EEEPT_DpOT0_EUlPSI_E_Li1ELb0EE5__getB8de180100Ev, symObjAddr: 0x24B40, symBinAddr: 0x2B210, symSize: 0x10 }
  - { offset: 0x13A721, size: 0x8, addend: 0x0, symName: __ZNSt3__16vectorIPN8nlohmann16json_abi_v3_11_210basic_jsonINS_3mapES0_NS_12basic_stringIcNS_11char_traitsIcEENS_9allocatorIcEEEEbxydS8_NS2_14adl_serializerENS0_IhNS8_IhEEEEEENS8_ISF_EEE17__destruct_at_endB8de180100EPSF_, symObjAddr: 0x24B50, symBinAddr: 0x2B220, symSize: 0x50 }
  - { offset: 0x13A767, size: 0x8, addend: 0x0, symName: __ZNKSt3__16vectorIPN8nlohmann16json_abi_v3_11_210basic_jsonINS_3mapES0_NS_12basic_stringIcNS_11char_traitsIcEENS_9allocatorIcEEEEbxydS8_NS2_14adl_serializerENS0_IhNS8_IhEEEEEENS8_ISF_EEE17__annotate_shrinkB8de180100Em, symObjAddr: 0x24BA0, symBinAddr: 0x2B270, symSize: 0x10 }
  - { offset: 0x13A79D, size: 0x8, addend: 0x0, symName: __ZN8nlohmann16json_abi_v3_11_26detail9iter_implINS0_10basic_jsonINSt3__13mapENS4_6vectorENS4_12basic_stringIcNS4_11char_traitsIcEENS4_9allocatorIcEEEEbxydSA_NS0_14adl_serializerENS6_IhNSA_IhEEEEEEEC1EPSG_, symObjAddr: 0x24BB0, symBinAddr: 0x2B280, symSize: 0x30 }
  - { offset: 0x13A7D7, size: 0x8, addend: 0x0, symName: __ZN8nlohmann16json_abi_v3_11_26detail9iter_implINS0_10basic_jsonINSt3__13mapENS4_6vectorENS4_12basic_stringIcNS4_11char_traitsIcEENS4_9allocatorIcEEEEbxydSA_NS0_14adl_serializerENS6_IhNSA_IhEEEEEEE9set_beginEv, symObjAddr: 0x24BE0, symBinAddr: 0x2B2B0, symSize: 0x140 }
  - { offset: 0x13A7FD, size: 0x8, addend: 0x0, symName: __ZN8nlohmann16json_abi_v3_11_26detail9iter_implINS0_10basic_jsonINSt3__13mapENS4_6vectorENS4_12basic_stringIcNS4_11char_traitsIcEENS4_9allocatorIcEEEEbxydSA_NS0_14adl_serializerENS6_IhNSA_IhEEEEEEEC2EPSG_, symObjAddr: 0x24D20, symBinAddr: 0x2B3F0, symSize: 0x160 }
  - { offset: 0x13A837, size: 0x8, addend: 0x0, symName: __ZNSt3__114__map_iteratorINS_15__tree_iteratorINS_12__value_typeINS_12basic_stringIcNS_11char_traitsIcEENS_9allocatorIcEEEEN8nlohmann16json_abi_v3_11_210basic_jsonINS_3mapENS_6vectorES8_bxydS6_NSA_14adl_serializerENSD_IhNS6_IhEEEEEEEEPNS_11__tree_nodeISI_PvEElEEEC1B8de180100Ev, symObjAddr: 0x24E80, symBinAddr: 0x2B550, symSize: 0x20 }
  - { offset: 0x13A861, size: 0x8, addend: 0x0, symName: __ZNSt3__111__wrap_iterIPN8nlohmann16json_abi_v3_11_210basic_jsonINS_3mapENS_6vectorENS_12basic_stringIcNS_11char_traitsIcEENS_9allocatorIcEEEEbxydS9_NS2_14adl_serializerENS5_IhNS9_IhEEEEEEEC1B8de180100Ev, symObjAddr: 0x24EA0, symBinAddr: 0x2B570, symSize: 0x20 }
  - { offset: 0x13A88B, size: 0x8, addend: 0x0, symName: __ZN8nlohmann16json_abi_v3_11_26detail20primitive_iterator_tC1Ev, symObjAddr: 0x24EC0, symBinAddr: 0x2B590, symSize: 0x20 }
